C000  4C F5 C5  JMP                             A:00 X:00 Y:00 P:24 SP:FD PPU:  0,  0
C5F5  A2 00     LDX                             A:00 X:00 Y:00 P:24 SP:FD PPU:  9,  0
C5F7  86 00     STX                             A:00 X:00 Y:00 P:26 SP:FD PPU: 15,  0
C5F9  86 10     STX                             A:00 X:00 Y:00 P:26 SP:FD PPU: 24,  0
C5FB  86 11     STX                             A:00 X:00 Y:00 P:26 SP:FD PPU: 33,  0
C5FD  20 2D C7  JSR                             A:00 X:00 Y:00 P:26 SP:FD PPU: 42,  0
C72D  EA        NOP                             A:00 X:00 Y:00 P:26 SP:FB PPU: 60,  0
C72E  38        SEC                             A:00 X:00 Y:00 P:26 SP:FB PPU: 66,  0
C72F  B0 04     BCS                             A:00 X:00 Y:00 P:27 SP:FB PPU: 72,  0
C735  EA        NOP                             A:00 X:00 Y:00 P:27 SP:FB PPU: 81,  0
C736  18        CLC                             A:00 X:00 Y:00 P:27 SP:FB PPU: 87,  0
C737  B0 03     BCS                             A:00 X:00 Y:00 P:26 SP:FB PPU: 93,  0
C739  4C 40 C7  JMP                             A:00 X:00 Y:00 P:26 SP:FB PPU: 99,  0
C740  EA        NOP                             A:00 X:00 Y:00 P:26 SP:FB PPU:108,  0
C741  38        SEC                             A:00 X:00 Y:00 P:26 SP:FB PPU:114,  0
C742  90 03     BCC                             A:00 X:00 Y:00 P:27 SP:FB PPU:120,  0
C744  4C 4B C7  JMP                             A:00 X:00 Y:00 P:27 SP:FB PPU:126,  0
C74B  EA        NOP                             A:00 X:00 Y:00 P:27 SP:FB PPU:135,  0
C74C  18        CLC                             A:00 X:00 Y:00 P:27 SP:FB PPU:141,  0
C74D  90 04     BCC                             A:00 X:00 Y:00 P:26 SP:FB PPU:147,  0
C753  EA        NOP                             A:00 X:00 Y:00 P:26 SP:FB PPU:156,  0
C754  A9 00     LDA                             A:00 X:00 Y:00 P:26 SP:FB PPU:162,  0
C756  F0 04     BEQ                             A:00 X:00 Y:00 P:26 SP:FB PPU:168,  0
C75C  EA        NOP                             A:00 X:00 Y:00 P:26 SP:FB PPU:177,  0
C75D  A9 40     LDA                             A:00 X:00 Y:00 P:26 SP:FB PPU:183,  0
C75F  F0 03     BEQ                             A:40 X:00 Y:00 P:24 SP:FB PPU:189,  0
C761  4C 68 C7  JMP                             A:40 X:00 Y:00 P:24 SP:FB PPU:195,  0
C768  EA        NOP                             A:40 X:00 Y:00 P:24 SP:FB PPU:204,  0
C769  A9 40     LDA                             A:40 X:00 Y:00 P:24 SP:FB PPU:210,  0
C76B  D0 04     BNE                             A:40 X:00 Y:00 P:24 SP:FB PPU:216,  0
C771  EA        NOP                             A:40 X:00 Y:00 P:24 SP:FB PPU:225,  0
C772  A9 00     LDA                             A:40 X:00 Y:00 P:24 SP:FB PPU:231,  0
C774  D0 03     BNE                             A:00 X:00 Y:00 P:26 SP:FB PPU:237,  0
C776  4C 7D C7  JMP                             A:00 X:00 Y:00 P:26 SP:FB PPU:243,  0
C77D  EA        NOP                             A:00 X:00 Y:00 P:26 SP:FB PPU:252,  0
C77E  A9 FF     LDA                             A:00 X:00 Y:00 P:26 SP:FB PPU:258,  0
C780  85 01     STA                             A:FF X:00 Y:00 P:A4 SP:FB PPU:264,  0
C782  24 01     BIT                             A:FF X:00 Y:00 P:A4 SP:FB PPU:273,  0
C784  70 04     BVS                             A:FF X:00 Y:00 P:E4 SP:FB PPU:282,  0
C78A  EA        NOP                             A:FF X:00 Y:00 P:E4 SP:FB PPU:291,  0
C78B  24 01     BIT                             A:FF X:00 Y:00 P:E4 SP:FB PPU:297,  0
C78D  50 03     BVC                             A:FF X:00 Y:00 P:E4 SP:FB PPU:306,  0
C78F  4C 96 C7  JMP                             A:FF X:00 Y:00 P:E4 SP:FB PPU:312,  0
C796  EA        NOP                             A:FF X:00 Y:00 P:E4 SP:FB PPU:321,  0
C797  A9 00     LDA                             A:FF X:00 Y:00 P:E4 SP:FB PPU:327,  0
C799  85 01     STA                             A:00 X:00 Y:00 P:66 SP:FB PPU:333,  0
C79B  24 01     BIT                             A:00 X:00 Y:00 P:66 SP:FB PPU:  1,  1
C79D  50 04     BVC                             A:00 X:00 Y:00 P:26 SP:FB PPU: 10,  1
C7A3  EA        NOP                             A:00 X:00 Y:00 P:26 SP:FB PPU: 19,  1
C7A4  24 01     BIT                             A:00 X:00 Y:00 P:26 SP:FB PPU: 25,  1
C7A6  70 03     BVS                             A:00 X:00 Y:00 P:26 SP:FB PPU: 34,  1
C7A8  4C AF C7  JMP                             A:00 X:00 Y:00 P:26 SP:FB PPU: 40,  1
C7AF  EA        NOP                             A:00 X:00 Y:00 P:26 SP:FB PPU: 49,  1
C7B0  A9 00     LDA                             A:00 X:00 Y:00 P:26 SP:FB PPU: 55,  1
C7B2  10 04     BPL                             A:00 X:00 Y:00 P:26 SP:FB PPU: 61,  1
C7B8  EA        NOP                             A:00 X:00 Y:00 P:26 SP:FB PPU: 70,  1
C7B9  A9 80     LDA                             A:00 X:00 Y:00 P:26 SP:FB PPU: 76,  1
C7BB  10 03     BPL                             A:80 X:00 Y:00 P:A4 SP:FB PPU: 82,  1
C7BD  4C D9 C7  JMP                             A:80 X:00 Y:00 P:A4 SP:FB PPU: 88,  1
C7D9  EA        NOP                             A:80 X:00 Y:00 P:A4 SP:FB PPU: 97,  1
C7DA  60        RTS                             A:80 X:00 Y:00 P:A4 SP:FB PPU:103,  1
C600  20 DB C7  JSR                             A:80 X:00 Y:00 P:A4 SP:FD PPU:121,  1
C7DB  EA        NOP                             A:80 X:00 Y:00 P:A4 SP:FB PPU:139,  1
C7DC  A9 FF     LDA                             A:80 X:00 Y:00 P:A4 SP:FB PPU:145,  1
C7DE  85 01     STA                             A:FF X:00 Y:00 P:A4 SP:FB PPU:151,  1
C7E0  24 01     BIT                             A:FF X:00 Y:00 P:A4 SP:FB PPU:160,  1
C7E2  A9 00     LDA                             A:FF X:00 Y:00 P:E4 SP:FB PPU:169,  1
C7E4  38        SEC                             A:00 X:00 Y:00 P:66 SP:FB PPU:175,  1
C7E5  78        SEI                             A:00 X:00 Y:00 P:67 SP:FB PPU:181,  1
C7E6  F8        SED                             A:00 X:00 Y:00 P:67 SP:FB PPU:187,  1
C7E7  08        PHP                             A:00 X:00 Y:00 P:6F SP:FB PPU:193,  1
C7E8  68        PLA                             A:00 X:00 Y:00 P:6F SP:FA PPU:202,  1
C7E9  29 EF     AND                             A:7F X:00 Y:00 P:6D SP:FB PPU:214,  1
C7EB  C9 6F     CMP                             A:6F X:00 Y:00 P:6D SP:FB PPU:220,  1
C7ED  F0 04     BEQ                             A:6F X:00 Y:00 P:6F SP:FB PPU:226,  1
C7F3  EA        NOP                             A:6F X:00 Y:00 P:6F SP:FB PPU:235,  1
C7F4  A9 40     LDA                             A:6F X:00 Y:00 P:6F SP:FB PPU:241,  1
C7F6  85 01     STA                             A:40 X:00 Y:00 P:6D SP:FB PPU:247,  1
C7F8  24 01     BIT                             A:40 X:00 Y:00 P:6D SP:FB PPU:256,  1
C7FA  D8        CLD                             A:40 X:00 Y:00 P:6D SP:FB PPU:265,  1
C7FB  A9 10     LDA                             A:40 X:00 Y:00 P:65 SP:FB PPU:271,  1
C7FD  18        CLC                             A:10 X:00 Y:00 P:65 SP:FB PPU:277,  1
C7FE  08        PHP                             A:10 X:00 Y:00 P:64 SP:FB PPU:283,  1
C7FF  68        PLA                             A:10 X:00 Y:00 P:64 SP:FA PPU:292,  1
C800  29 EF     AND                             A:74 X:00 Y:00 P:64 SP:FB PPU:304,  1
C802  C9 64     CMP                             A:64 X:00 Y:00 P:64 SP:FB PPU:310,  1
C804  F0 04     BEQ                             A:64 X:00 Y:00 P:67 SP:FB PPU:316,  1
C80A  EA        NOP                             A:64 X:00 Y:00 P:67 SP:FB PPU:325,  1
C80B  A9 80     LDA                             A:64 X:00 Y:00 P:67 SP:FB PPU:331,  1
C80D  85 01     STA                             A:80 X:00 Y:00 P:E5 SP:FB PPU:337,  1
C80F  24 01     BIT                             A:80 X:00 Y:00 P:E5 SP:FB PPU:  5,  2
C811  F8        SED                             A:80 X:00 Y:00 P:A5 SP:FB PPU: 14,  2
C812  A9 00     LDA                             A:80 X:00 Y:00 P:AD SP:FB PPU: 20,  2
C814  38        SEC                             A:00 X:00 Y:00 P:2F SP:FB PPU: 26,  2
C815  08        PHP                             A:00 X:00 Y:00 P:2F SP:FB PPU: 32,  2
C816  68        PLA                             A:00 X:00 Y:00 P:2F SP:FA PPU: 41,  2
C817  29 EF     AND                             A:3F X:00 Y:00 P:2D SP:FB PPU: 53,  2
C819  C9 2F     CMP                             A:2F X:00 Y:00 P:2D SP:FB PPU: 59,  2
C81B  F0 04     BEQ                             A:2F X:00 Y:00 P:2F SP:FB PPU: 65,  2
C821  EA        NOP                             A:2F X:00 Y:00 P:2F SP:FB PPU: 74,  2
C822  A9 FF     LDA                             A:2F X:00 Y:00 P:2F SP:FB PPU: 80,  2
C824  48        PHA                             A:FF X:00 Y:00 P:AD SP:FB PPU: 86,  2
C825  28        PLP                             A:FF X:00 Y:00 P:AD SP:FA PPU: 95,  2
C826  D0 09     BNE                             A:FF X:00 Y:00 P:EF SP:FB PPU:107,  2
C828  10 07     BPL                             A:FF X:00 Y:00 P:EF SP:FB PPU:113,  2
C82A  50 05     BVC                             A:FF X:00 Y:00 P:EF SP:FB PPU:119,  2
C82C  90 03     BCC                             A:FF X:00 Y:00 P:EF SP:FB PPU:125,  2
C82E  4C 35 C8  JMP                             A:FF X:00 Y:00 P:EF SP:FB PPU:131,  2
C835  EA        NOP                             A:FF X:00 Y:00 P:EF SP:FB PPU:140,  2
C836  A9 04     LDA                             A:FF X:00 Y:00 P:EF SP:FB PPU:146,  2
C838  48        PHA                             A:04 X:00 Y:00 P:6D SP:FB PPU:152,  2
C839  28        PLP                             A:04 X:00 Y:00 P:6D SP:FA PPU:161,  2
C83A  F0 09     BEQ                             A:04 X:00 Y:00 P:24 SP:FB PPU:173,  2
C83C  30 07     BMI                             A:04 X:00 Y:00 P:24 SP:FB PPU:179,  2
C83E  70 05     BVS                             A:04 X:00 Y:00 P:24 SP:FB PPU:185,  2
C840  B0 03     BCS                             A:04 X:00 Y:00 P:24 SP:FB PPU:191,  2
C842  4C 49 C8  JMP                             A:04 X:00 Y:00 P:24 SP:FB PPU:197,  2
C849  EA        NOP                             A:04 X:00 Y:00 P:24 SP:FB PPU:206,  2
C84A  F8        SED                             A:04 X:00 Y:00 P:24 SP:FB PPU:212,  2
C84B  A9 FF     LDA                             A:04 X:00 Y:00 P:2C SP:FB PPU:218,  2
C84D  85 01     STA                             A:FF X:00 Y:00 P:AC SP:FB PPU:224,  2
C84F  24 01     BIT                             A:FF X:00 Y:00 P:AC SP:FB PPU:233,  2
C851  18        CLC                             A:FF X:00 Y:00 P:EC SP:FB PPU:242,  2
C852  A9 00     LDA                             A:FF X:00 Y:00 P:EC SP:FB PPU:248,  2
C854  48        PHA                             A:00 X:00 Y:00 P:6E SP:FB PPU:254,  2
C855  A9 FF     LDA                             A:00 X:00 Y:00 P:6E SP:FA PPU:263,  2
C857  68        PLA                             A:FF X:00 Y:00 P:EC SP:FA PPU:269,  2
C858  D0 09     BNE                             A:00 X:00 Y:00 P:6E SP:FB PPU:281,  2
C85A  30 07     BMI                             A:00 X:00 Y:00 P:6E SP:FB PPU:287,  2
C85C  50 05     BVC                             A:00 X:00 Y:00 P:6E SP:FB PPU:293,  2
C85E  B0 03     BCS                             A:00 X:00 Y:00 P:6E SP:FB PPU:299,  2
C860  4C 67 C8  JMP                             A:00 X:00 Y:00 P:6E SP:FB PPU:305,  2
C867  EA        NOP                             A:00 X:00 Y:00 P:6E SP:FB PPU:314,  2
C868  A9 00     LDA                             A:00 X:00 Y:00 P:6E SP:FB PPU:320,  2
C86A  85 01     STA                             A:00 X:00 Y:00 P:6E SP:FB PPU:326,  2
C86C  24 01     BIT                             A:00 X:00 Y:00 P:6E SP:FB PPU:335,  2
C86E  38        SEC                             A:00 X:00 Y:00 P:2E SP:FB PPU:  3,  3
C86F  A9 FF     LDA                             A:00 X:00 Y:00 P:2F SP:FB PPU:  9,  3
C871  48        PHA                             A:FF X:00 Y:00 P:AD SP:FB PPU: 15,  3
C872  A9 00     LDA                             A:FF X:00 Y:00 P:AD SP:FA PPU: 24,  3
C874  68        PLA                             A:00 X:00 Y:00 P:2F SP:FA PPU: 30,  3
C875  F0 09     BEQ                             A:FF X:00 Y:00 P:AD SP:FB PPU: 42,  3
C877  10 07     BPL                             A:FF X:00 Y:00 P:AD SP:FB PPU: 48,  3
C879  70 05     BVS                             A:FF X:00 Y:00 P:AD SP:FB PPU: 54,  3
C87B  90 03     BCC                             A:FF X:00 Y:00 P:AD SP:FB PPU: 60,  3
C87D  4C 84 C8  JMP                             A:FF X:00 Y:00 P:AD SP:FB PPU: 66,  3
C884  60        RTS                             A:FF X:00 Y:00 P:AD SP:FB PPU: 75,  3
C603  20 85 C8  JSR                             A:FF X:00 Y:00 P:AD SP:FD PPU: 93,  3
C885  EA        NOP                             A:FF X:00 Y:00 P:AD SP:FB PPU:111,  3
C886  18        CLC                             A:FF X:00 Y:00 P:AD SP:FB PPU:117,  3
C887  A9 FF     LDA                             A:FF X:00 Y:00 P:AC SP:FB PPU:123,  3
C889  85 01     STA                             A:FF X:00 Y:00 P:AC SP:FB PPU:129,  3
C88B  24 01     BIT                             A:FF X:00 Y:00 P:AC SP:FB PPU:138,  3
C88D  A9 55     LDA                             A:FF X:00 Y:00 P:EC SP:FB PPU:147,  3
C88F  09 AA     ORA                             A:55 X:00 Y:00 P:6C SP:FB PPU:153,  3
C891  B0 0B     BCS                             A:FF X:00 Y:00 P:EC SP:FB PPU:159,  3
C893  10 09     BPL                             A:FF X:00 Y:00 P:EC SP:FB PPU:165,  3
C895  C9 FF     CMP                             A:FF X:00 Y:00 P:EC SP:FB PPU:171,  3
C897  D0 05     BNE                             A:FF X:00 Y:00 P:6F SP:FB PPU:177,  3
C899  50 03     BVC                             A:FF X:00 Y:00 P:6F SP:FB PPU:183,  3
C89B  4C A2 C8  JMP                             A:FF X:00 Y:00 P:6F SP:FB PPU:189,  3
C8A2  EA        NOP                             A:FF X:00 Y:00 P:6F SP:FB PPU:198,  3
C8A3  38        SEC                             A:FF X:00 Y:00 P:6F SP:FB PPU:204,  3
C8A4  B8        CLV                             A:FF X:00 Y:00 P:6F SP:FB PPU:210,  3
C8A5  A9 00     LDA                             A:FF X:00 Y:00 P:2F SP:FB PPU:216,  3
C8A7  09 00     ORA                             A:00 X:00 Y:00 P:2F SP:FB PPU:222,  3
C8A9  D0 09     BNE                             A:00 X:00 Y:00 P:2F SP:FB PPU:228,  3
C8AB  70 07     BVS                             A:00 X:00 Y:00 P:2F SP:FB PPU:234,  3
C8AD  90 05     BCC                             A:00 X:00 Y:00 P:2F SP:FB PPU:240,  3
C8AF  30 03     BMI                             A:00 X:00 Y:00 P:2F SP:FB PPU:246,  3
C8B1  4C B8 C8  JMP                             A:00 X:00 Y:00 P:2F SP:FB PPU:252,  3
C8B8  EA        NOP                             A:00 X:00 Y:00 P:2F SP:FB PPU:261,  3
C8B9  18        CLC                             A:00 X:00 Y:00 P:2F SP:FB PPU:267,  3
C8BA  24 01     BIT                             A:00 X:00 Y:00 P:2E SP:FB PPU:273,  3
C8BC  A9 55     LDA                             A:00 X:00 Y:00 P:EE SP:FB PPU:282,  3
C8BE  29 AA     AND                             A:55 X:00 Y:00 P:6C SP:FB PPU:288,  3
C8C0  D0 09     BNE                             A:00 X:00 Y:00 P:6E SP:FB PPU:294,  3
C8C2  50 07     BVC                             A:00 X:00 Y:00 P:6E SP:FB PPU:300,  3
C8C4  B0 05     BCS                             A:00 X:00 Y:00 P:6E SP:FB PPU:306,  3
C8C6  30 03     BMI                             A:00 X:00 Y:00 P:6E SP:FB PPU:312,  3
C8C8  4C CF C8  JMP                             A:00 X:00 Y:00 P:6E SP:FB PPU:318,  3
C8CF  EA        NOP                             A:00 X:00 Y:00 P:6E SP:FB PPU:327,  3
C8D0  38        SEC                             A:00 X:00 Y:00 P:6E SP:FB PPU:333,  3
C8D1  B8        CLV                             A:00 X:00 Y:00 P:6F SP:FB PPU:339,  3
C8D2  A9 F8     LDA                             A:00 X:00 Y:00 P:2F SP:FB PPU:  4,  4
C8D4  29 EF     AND                             A:F8 X:00 Y:00 P:AD SP:FB PPU: 10,  4
C8D6  90 0B     BCC                             A:E8 X:00 Y:00 P:AD SP:FB PPU: 16,  4
C8D8  10 09     BPL                             A:E8 X:00 Y:00 P:AD SP:FB PPU: 22,  4
C8DA  C9 E8     CMP                             A:E8 X:00 Y:00 P:AD SP:FB PPU: 28,  4
C8DC  D0 05     BNE                             A:E8 X:00 Y:00 P:2F SP:FB PPU: 34,  4
C8DE  70 03     BVS                             A:E8 X:00 Y:00 P:2F SP:FB PPU: 40,  4
C8E0  4C E7 C8  JMP                             A:E8 X:00 Y:00 P:2F SP:FB PPU: 46,  4
C8E7  EA        NOP                             A:E8 X:00 Y:00 P:2F SP:FB PPU: 55,  4
C8E8  18        CLC                             A:E8 X:00 Y:00 P:2F SP:FB PPU: 61,  4
C8E9  24 01     BIT                             A:E8 X:00 Y:00 P:2E SP:FB PPU: 67,  4
C8EB  A9 5F     LDA                             A:E8 X:00 Y:00 P:EC SP:FB PPU: 76,  4
C8ED  49 AA     EOR                             A:5F X:00 Y:00 P:6C SP:FB PPU: 82,  4
C8EF  B0 0B     BCS                             A:F5 X:00 Y:00 P:EC SP:FB PPU: 88,  4
C8F1  10 09     BPL                             A:F5 X:00 Y:00 P:EC SP:FB PPU: 94,  4
C8F3  C9 F5     CMP                             A:F5 X:00 Y:00 P:EC SP:FB PPU:100,  4
C8F5  D0 05     BNE                             A:F5 X:00 Y:00 P:6F SP:FB PPU:106,  4
C8F7  50 03     BVC                             A:F5 X:00 Y:00 P:6F SP:FB PPU:112,  4
C8F9  4C 00 C9  JMP                             A:F5 X:00 Y:00 P:6F SP:FB PPU:118,  4
C900  EA        NOP                             A:F5 X:00 Y:00 P:6F SP:FB PPU:127,  4
C901  38        SEC                             A:F5 X:00 Y:00 P:6F SP:FB PPU:133,  4
C902  B8        CLV                             A:F5 X:00 Y:00 P:6F SP:FB PPU:139,  4
C903  A9 70     LDA                             A:F5 X:00 Y:00 P:2F SP:FB PPU:145,  4
C905  49 70     EOR                             A:70 X:00 Y:00 P:2D SP:FB PPU:151,  4
C907  D0 09     BNE                             A:00 X:00 Y:00 P:2F SP:FB PPU:157,  4
C909  70 07     BVS                             A:00 X:00 Y:00 P:2F SP:FB PPU:163,  4
C90B  90 05     BCC                             A:00 X:00 Y:00 P:2F SP:FB PPU:169,  4
C90D  30 03     BMI                             A:00 X:00 Y:00 P:2F SP:FB PPU:175,  4
C90F  4C 16 C9  JMP                             A:00 X:00 Y:00 P:2F SP:FB PPU:181,  4
C916  EA        NOP                             A:00 X:00 Y:00 P:2F SP:FB PPU:190,  4
C917  18        CLC                             A:00 X:00 Y:00 P:2F SP:FB PPU:196,  4
C918  24 01     BIT                             A:00 X:00 Y:00 P:2E SP:FB PPU:202,  4
C91A  A9 00     LDA                             A:00 X:00 Y:00 P:EE SP:FB PPU:211,  4
C91C  69 69     ADC                             A:00 X:00 Y:00 P:6E SP:FB PPU:217,  4
C91E  30 0B     BMI                             A:69 X:00 Y:00 P:2C SP:FB PPU:223,  4
C920  B0 09     BCS                             A:69 X:00 Y:00 P:2C SP:FB PPU:229,  4
C922  C9 69     CMP                             A:69 X:00 Y:00 P:2C SP:FB PPU:235,  4
C924  D0 05     BNE                             A:69 X:00 Y:00 P:2F SP:FB PPU:241,  4
C926  70 03     BVS                             A:69 X:00 Y:00 P:2F SP:FB PPU:247,  4
C928  4C 2F C9  JMP                             A:69 X:00 Y:00 P:2F SP:FB PPU:253,  4
C92F  EA        NOP                             A:69 X:00 Y:00 P:2F SP:FB PPU:262,  4
C930  38        SEC                             A:69 X:00 Y:00 P:2F SP:FB PPU:268,  4
C931  F8        SED                             A:69 X:00 Y:00 P:2F SP:FB PPU:274,  4
C932  24 01     BIT                             A:69 X:00 Y:00 P:2F SP:FB PPU:280,  4
C934  A9 01     LDA                             A:69 X:00 Y:00 P:ED SP:FB PPU:289,  4
C936  69 69     ADC                             A:01 X:00 Y:00 P:6D SP:FB PPU:295,  4
C938  30 0B     BMI                             A:6B X:00 Y:00 P:2C SP:FB PPU:301,  4
C93A  B0 09     BCS                             A:6B X:00 Y:00 P:2C SP:FB PPU:307,  4
C93C  C9 6B     CMP                             A:6B X:00 Y:00 P:2C SP:FB PPU:313,  4
C93E  D0 05     BNE                             A:6B X:00 Y:00 P:2F SP:FB PPU:319,  4
C940  70 03     BVS                             A:6B X:00 Y:00 P:2F SP:FB PPU:325,  4
C942  4C 49 C9  JMP                             A:6B X:00 Y:00 P:2F SP:FB PPU:331,  4
C949  EA        NOP                             A:6B X:00 Y:00 P:2F SP:FB PPU:340,  4
C94A  D8        CLD                             A:6B X:00 Y:00 P:2F SP:FB PPU:  5,  5
C94B  38        SEC                             A:6B X:00 Y:00 P:27 SP:FB PPU: 11,  5
C94C  B8        CLV                             A:6B X:00 Y:00 P:27 SP:FB PPU: 17,  5
C94D  A9 7F     LDA                             A:6B X:00 Y:00 P:27 SP:FB PPU: 23,  5
C94F  69 7F     ADC                             A:7F X:00 Y:00 P:25 SP:FB PPU: 29,  5
C951  10 0B     BPL                             A:FF X:00 Y:00 P:E4 SP:FB PPU: 35,  5
C953  B0 09     BCS                             A:FF X:00 Y:00 P:E4 SP:FB PPU: 41,  5
C955  C9 FF     CMP                             A:FF X:00 Y:00 P:E4 SP:FB PPU: 47,  5
C957  D0 05     BNE                             A:FF X:00 Y:00 P:67 SP:FB PPU: 53,  5
C959  50 03     BVC                             A:FF X:00 Y:00 P:67 SP:FB PPU: 59,  5
C95B  4C 62 C9  JMP                             A:FF X:00 Y:00 P:67 SP:FB PPU: 65,  5
C962  EA        NOP                             A:FF X:00 Y:00 P:67 SP:FB PPU: 74,  5
C963  18        CLC                             A:FF X:00 Y:00 P:67 SP:FB PPU: 80,  5
C964  24 01     BIT                             A:FF X:00 Y:00 P:66 SP:FB PPU: 86,  5
C966  A9 7F     LDA                             A:FF X:00 Y:00 P:E4 SP:FB PPU: 95,  5
C968  69 80     ADC                             A:7F X:00 Y:00 P:64 SP:FB PPU:101,  5
C96A  10 0B     BPL                             A:FF X:00 Y:00 P:A4 SP:FB PPU:107,  5
C96C  B0 09     BCS                             A:FF X:00 Y:00 P:A4 SP:FB PPU:113,  5
C96E  C9 FF     CMP                             A:FF X:00 Y:00 P:A4 SP:FB PPU:119,  5
C970  D0 05     BNE                             A:FF X:00 Y:00 P:27 SP:FB PPU:125,  5
C972  70 03     BVS                             A:FF X:00 Y:00 P:27 SP:FB PPU:131,  5
C974  4C 7B C9  JMP                             A:FF X:00 Y:00 P:27 SP:FB PPU:137,  5
C97B  EA        NOP                             A:FF X:00 Y:00 P:27 SP:FB PPU:146,  5
C97C  38        SEC                             A:FF X:00 Y:00 P:27 SP:FB PPU:152,  5
C97D  B8        CLV                             A:FF X:00 Y:00 P:27 SP:FB PPU:158,  5
C97E  A9 7F     LDA                             A:FF X:00 Y:00 P:27 SP:FB PPU:164,  5
C980  69 80     ADC                             A:7F X:00 Y:00 P:25 SP:FB PPU:170,  5
C982  D0 09     BNE                             A:00 X:00 Y:00 P:27 SP:FB PPU:176,  5
C984  30 07     BMI                             A:00 X:00 Y:00 P:27 SP:FB PPU:182,  5
C986  70 05     BVS                             A:00 X:00 Y:00 P:27 SP:FB PPU:188,  5
C988  90 03     BCC                             A:00 X:00 Y:00 P:27 SP:FB PPU:194,  5
C98A  4C 91 C9  JMP                             A:00 X:00 Y:00 P:27 SP:FB PPU:200,  5
C991  EA        NOP                             A:00 X:00 Y:00 P:27 SP:FB PPU:209,  5
C992  38        SEC                             A:00 X:00 Y:00 P:27 SP:FB PPU:215,  5
C993  B8        CLV                             A:00 X:00 Y:00 P:27 SP:FB PPU:221,  5
C994  A9 9F     LDA                             A:00 X:00 Y:00 P:27 SP:FB PPU:227,  5
C996  F0 09     BEQ                             A:9F X:00 Y:00 P:A5 SP:FB PPU:233,  5
C998  10 07     BPL                             A:9F X:00 Y:00 P:A5 SP:FB PPU:239,  5
C99A  70 05     BVS                             A:9F X:00 Y:00 P:A5 SP:FB PPU:245,  5
C99C  90 03     BCC                             A:9F X:00 Y:00 P:A5 SP:FB PPU:251,  5
C99E  4C A5 C9  JMP                             A:9F X:00 Y:00 P:A5 SP:FB PPU:257,  5
C9A5  EA        NOP                             A:9F X:00 Y:00 P:A5 SP:FB PPU:266,  5
C9A6  18        CLC                             A:9F X:00 Y:00 P:A5 SP:FB PPU:272,  5
C9A7  24 01     BIT                             A:9F X:00 Y:00 P:A4 SP:FB PPU:278,  5
C9A9  A9 00     LDA                             A:9F X:00 Y:00 P:E4 SP:FB PPU:287,  5
C9AB  D0 09     BNE                             A:00 X:00 Y:00 P:66 SP:FB PPU:293,  5
C9AD  30 07     BMI                             A:00 X:00 Y:00 P:66 SP:FB PPU:299,  5
C9AF  50 05     BVC                             A:00 X:00 Y:00 P:66 SP:FB PPU:305,  5
C9B1  B0 03     BCS                             A:00 X:00 Y:00 P:66 SP:FB PPU:311,  5
C9B3  4C BA C9  JMP                             A:00 X:00 Y:00 P:66 SP:FB PPU:317,  5
C9BA  EA        NOP                             A:00 X:00 Y:00 P:66 SP:FB PPU:326,  5
C9BB  24 01     BIT                             A:00 X:00 Y:00 P:66 SP:FB PPU:332,  5
C9BD  A9 40     LDA                             A:00 X:00 Y:00 P:E6 SP:FB PPU:  0,  6
C9BF  C9 40     CMP                             A:40 X:00 Y:00 P:64 SP:FB PPU:  6,  6
C9C1  30 09     BMI                             A:40 X:00 Y:00 P:67 SP:FB PPU: 12,  6
C9C3  90 07     BCC                             A:40 X:00 Y:00 P:67 SP:FB PPU: 18,  6
C9C5  D0 05     BNE                             A:40 X:00 Y:00 P:67 SP:FB PPU: 24,  6
C9C7  50 03     BVC                             A:40 X:00 Y:00 P:67 SP:FB PPU: 30,  6
C9C9  4C D0 C9  JMP                             A:40 X:00 Y:00 P:67 SP:FB PPU: 36,  6
C9D0  EA        NOP                             A:40 X:00 Y:00 P:67 SP:FB PPU: 45,  6
C9D1  B8        CLV                             A:40 X:00 Y:00 P:67 SP:FB PPU: 51,  6
C9D2  C9 3F     CMP                             A:40 X:00 Y:00 P:27 SP:FB PPU: 57,  6
C9D4  F0 09     BEQ                             A:40 X:00 Y:00 P:25 SP:FB PPU: 63,  6
C9D6  30 07     BMI                             A:40 X:00 Y:00 P:25 SP:FB PPU: 69,  6
C9D8  90 05     BCC                             A:40 X:00 Y:00 P:25 SP:FB PPU: 75,  6
C9DA  70 03     BVS                             A:40 X:00 Y:00 P:25 SP:FB PPU: 81,  6
C9DC  4C E3 C9  JMP                             A:40 X:00 Y:00 P:25 SP:FB PPU: 87,  6
C9E3  EA        NOP                             A:40 X:00 Y:00 P:25 SP:FB PPU: 96,  6
C9E4  C9 41     CMP                             A:40 X:00 Y:00 P:25 SP:FB PPU:102,  6
C9E6  F0 07     BEQ                             A:40 X:00 Y:00 P:A4 SP:FB PPU:108,  6
C9E8  10 05     BPL                             A:40 X:00 Y:00 P:A4 SP:FB PPU:114,  6
C9EA  10 03     BPL                             A:40 X:00 Y:00 P:A4 SP:FB PPU:120,  6
C9EC  4C F3 C9  JMP                             A:40 X:00 Y:00 P:A4 SP:FB PPU:126,  6
C9F3  EA        NOP                             A:40 X:00 Y:00 P:A4 SP:FB PPU:135,  6
C9F4  A9 80     LDA                             A:40 X:00 Y:00 P:A4 SP:FB PPU:141,  6
C9F6  C9 00     CMP                             A:80 X:00 Y:00 P:A4 SP:FB PPU:147,  6
C9F8  F0 07     BEQ                             A:80 X:00 Y:00 P:A5 SP:FB PPU:153,  6
C9FA  10 05     BPL                             A:80 X:00 Y:00 P:A5 SP:FB PPU:159,  6
C9FC  90 03     BCC                             A:80 X:00 Y:00 P:A5 SP:FB PPU:165,  6
C9FE  4C 05 CA  JMP                             A:80 X:00 Y:00 P:A5 SP:FB PPU:171,  6
CA05  EA        NOP                             A:80 X:00 Y:00 P:A5 SP:FB PPU:180,  6
CA06  C9 80     CMP                             A:80 X:00 Y:00 P:A5 SP:FB PPU:186,  6
CA08  D0 07     BNE                             A:80 X:00 Y:00 P:27 SP:FB PPU:192,  6
CA0A  30 05     BMI                             A:80 X:00 Y:00 P:27 SP:FB PPU:198,  6
CA0C  90 03     BCC                             A:80 X:00 Y:00 P:27 SP:FB PPU:204,  6
CA0E  4C 15 CA  JMP                             A:80 X:00 Y:00 P:27 SP:FB PPU:210,  6
CA15  EA        NOP                             A:80 X:00 Y:00 P:27 SP:FB PPU:219,  6
CA16  C9 81     CMP                             A:80 X:00 Y:00 P:27 SP:FB PPU:225,  6
CA18  B0 07     BCS                             A:80 X:00 Y:00 P:A4 SP:FB PPU:231,  6
CA1A  F0 05     BEQ                             A:80 X:00 Y:00 P:A4 SP:FB PPU:237,  6
CA1C  10 03     BPL                             A:80 X:00 Y:00 P:A4 SP:FB PPU:243,  6
CA1E  4C 25 CA  JMP                             A:80 X:00 Y:00 P:A4 SP:FB PPU:249,  6
CA25  EA        NOP                             A:80 X:00 Y:00 P:A4 SP:FB PPU:258,  6
CA26  C9 7F     CMP                             A:80 X:00 Y:00 P:A4 SP:FB PPU:264,  6
CA28  90 07     BCC                             A:80 X:00 Y:00 P:25 SP:FB PPU:270,  6
CA2A  F0 05     BEQ                             A:80 X:00 Y:00 P:25 SP:FB PPU:276,  6
CA2C  30 03     BMI                             A:80 X:00 Y:00 P:25 SP:FB PPU:282,  6
CA2E  4C 35 CA  JMP                             A:80 X:00 Y:00 P:25 SP:FB PPU:288,  6
CA35  EA        NOP                             A:80 X:00 Y:00 P:25 SP:FB PPU:297,  6
CA36  24 01     BIT                             A:80 X:00 Y:00 P:25 SP:FB PPU:303,  6
CA38  A0 40     LDY                             A:80 X:00 Y:00 P:E5 SP:FB PPU:312,  6
CA3A  C0 40     CPY                             A:80 X:00 Y:40 P:65 SP:FB PPU:318,  6
CA3C  D0 09     BNE                             A:80 X:00 Y:40 P:67 SP:FB PPU:324,  6
CA3E  30 07     BMI                             A:80 X:00 Y:40 P:67 SP:FB PPU:330,  6
CA40  90 05     BCC                             A:80 X:00 Y:40 P:67 SP:FB PPU:336,  6
CA42  50 03     BVC                             A:80 X:00 Y:40 P:67 SP:FB PPU:  1,  7
CA44  4C 4B CA  JMP                             A:80 X:00 Y:40 P:67 SP:FB PPU:  7,  7
CA4B  EA        NOP                             A:80 X:00 Y:40 P:67 SP:FB PPU: 16,  7
CA4C  B8        CLV                             A:80 X:00 Y:40 P:67 SP:FB PPU: 22,  7
CA4D  C0 3F     CPY                             A:80 X:00 Y:40 P:27 SP:FB PPU: 28,  7
CA4F  F0 09     BEQ                             A:80 X:00 Y:40 P:25 SP:FB PPU: 34,  7
CA51  30 07     BMI                             A:80 X:00 Y:40 P:25 SP:FB PPU: 40,  7
CA53  90 05     BCC                             A:80 X:00 Y:40 P:25 SP:FB PPU: 46,  7
CA55  70 03     BVS                             A:80 X:00 Y:40 P:25 SP:FB PPU: 52,  7
CA57  4C 5E CA  JMP                             A:80 X:00 Y:40 P:25 SP:FB PPU: 58,  7
CA5E  EA        NOP                             A:80 X:00 Y:40 P:25 SP:FB PPU: 67,  7
CA5F  C0 41     CPY                             A:80 X:00 Y:40 P:25 SP:FB PPU: 73,  7
CA61  F0 07     BEQ                             A:80 X:00 Y:40 P:A4 SP:FB PPU: 79,  7
CA63  10 05     BPL                             A:80 X:00 Y:40 P:A4 SP:FB PPU: 85,  7
CA65  10 03     BPL                             A:80 X:00 Y:40 P:A4 SP:FB PPU: 91,  7
CA67  4C 6E CA  JMP                             A:80 X:00 Y:40 P:A4 SP:FB PPU: 97,  7
CA6E  EA        NOP                             A:80 X:00 Y:40 P:A4 SP:FB PPU:106,  7
CA6F  A0 80     LDY                             A:80 X:00 Y:40 P:A4 SP:FB PPU:112,  7
CA71  C0 00     CPY                             A:80 X:00 Y:80 P:A4 SP:FB PPU:118,  7
CA73  F0 07     BEQ                             A:80 X:00 Y:80 P:A5 SP:FB PPU:124,  7
CA75  10 05     BPL                             A:80 X:00 Y:80 P:A5 SP:FB PPU:130,  7
CA77  90 03     BCC                             A:80 X:00 Y:80 P:A5 SP:FB PPU:136,  7
CA79  4C 80 CA  JMP                             A:80 X:00 Y:80 P:A5 SP:FB PPU:142,  7
CA80  EA        NOP                             A:80 X:00 Y:80 P:A5 SP:FB PPU:151,  7
CA81  C0 80     CPY                             A:80 X:00 Y:80 P:A5 SP:FB PPU:157,  7
CA83  D0 07     BNE                             A:80 X:00 Y:80 P:27 SP:FB PPU:163,  7
CA85  30 05     BMI                             A:80 X:00 Y:80 P:27 SP:FB PPU:169,  7
CA87  90 03     BCC                             A:80 X:00 Y:80 P:27 SP:FB PPU:175,  7
CA89  4C 90 CA  JMP                             A:80 X:00 Y:80 P:27 SP:FB PPU:181,  7
CA90  EA        NOP                             A:80 X:00 Y:80 P:27 SP:FB PPU:190,  7
CA91  C0 81     CPY                             A:80 X:00 Y:80 P:27 SP:FB PPU:196,  7
CA93  B0 07     BCS                             A:80 X:00 Y:80 P:A4 SP:FB PPU:202,  7
CA95  F0 05     BEQ                             A:80 X:00 Y:80 P:A4 SP:FB PPU:208,  7
CA97  10 03     BPL                             A:80 X:00 Y:80 P:A4 SP:FB PPU:214,  7
CA99  4C A0 CA  JMP                             A:80 X:00 Y:80 P:A4 SP:FB PPU:220,  7
CAA0  EA        NOP                             A:80 X:00 Y:80 P:A4 SP:FB PPU:229,  7
CAA1  C0 7F     CPY                             A:80 X:00 Y:80 P:A4 SP:FB PPU:235,  7
CAA3  90 07     BCC                             A:80 X:00 Y:80 P:25 SP:FB PPU:241,  7
CAA5  F0 05     BEQ                             A:80 X:00 Y:80 P:25 SP:FB PPU:247,  7
CAA7  30 03     BMI                             A:80 X:00 Y:80 P:25 SP:FB PPU:253,  7
CAA9  4C B0 CA  JMP                             A:80 X:00 Y:80 P:25 SP:FB PPU:259,  7
CAB0  EA        NOP                             A:80 X:00 Y:80 P:25 SP:FB PPU:268,  7
CAB1  24 01     BIT                             A:80 X:00 Y:80 P:25 SP:FB PPU:274,  7
CAB3  A2 40     LDX                             A:80 X:00 Y:80 P:E5 SP:FB PPU:283,  7
CAB5  E0 40     CPX                             A:80 X:40 Y:80 P:65 SP:FB PPU:289,  7
CAB7  D0 09     BNE                             A:80 X:40 Y:80 P:67 SP:FB PPU:295,  7
CAB9  30 07     BMI                             A:80 X:40 Y:80 P:67 SP:FB PPU:301,  7
CABB  90 05     BCC                             A:80 X:40 Y:80 P:67 SP:FB PPU:307,  7
CABD  50 03     BVC                             A:80 X:40 Y:80 P:67 SP:FB PPU:313,  7
CABF  4C C6 CA  JMP                             A:80 X:40 Y:80 P:67 SP:FB PPU:319,  7
CAC6  EA        NOP                             A:80 X:40 Y:80 P:67 SP:FB PPU:328,  7
CAC7  B8        CLV                             A:80 X:40 Y:80 P:67 SP:FB PPU:334,  7
CAC8  E0 3F     CPX                             A:80 X:40 Y:80 P:27 SP:FB PPU:340,  7
CACA  F0 09     BEQ                             A:80 X:40 Y:80 P:25 SP:FB PPU:  5,  8
CACC  30 07     BMI                             A:80 X:40 Y:80 P:25 SP:FB PPU: 11,  8
CACE  90 05     BCC                             A:80 X:40 Y:80 P:25 SP:FB PPU: 17,  8
CAD0  70 03     BVS                             A:80 X:40 Y:80 P:25 SP:FB PPU: 23,  8
CAD2  4C D9 CA  JMP                             A:80 X:40 Y:80 P:25 SP:FB PPU: 29,  8
CAD9  EA        NOP                             A:80 X:40 Y:80 P:25 SP:FB PPU: 38,  8
CADA  E0 41     CPX                             A:80 X:40 Y:80 P:25 SP:FB PPU: 44,  8
CADC  F0 07     BEQ                             A:80 X:40 Y:80 P:A4 SP:FB PPU: 50,  8
CADE  10 05     BPL                             A:80 X:40 Y:80 P:A4 SP:FB PPU: 56,  8
CAE0  10 03     BPL                             A:80 X:40 Y:80 P:A4 SP:FB PPU: 62,  8
CAE2  4C E9 CA  JMP                             A:80 X:40 Y:80 P:A4 SP:FB PPU: 68,  8
CAE9  EA        NOP                             A:80 X:40 Y:80 P:A4 SP:FB PPU: 77,  8
CAEA  A2 80     LDX                             A:80 X:40 Y:80 P:A4 SP:FB PPU: 83,  8
CAEC  E0 00     CPX                             A:80 X:80 Y:80 P:A4 SP:FB PPU: 89,  8
CAEE  F0 07     BEQ                             A:80 X:80 Y:80 P:A5 SP:FB PPU: 95,  8
CAF0  10 05     BPL                             A:80 X:80 Y:80 P:A5 SP:FB PPU:101,  8
CAF2  90 03     BCC                             A:80 X:80 Y:80 P:A5 SP:FB PPU:107,  8
CAF4  4C FB CA  JMP                             A:80 X:80 Y:80 P:A5 SP:FB PPU:113,  8
CAFB  EA        NOP                             A:80 X:80 Y:80 P:A5 SP:FB PPU:122,  8
CAFC  E0 80     CPX                             A:80 X:80 Y:80 P:A5 SP:FB PPU:128,  8
CAFE  D0 07     BNE                             A:80 X:80 Y:80 P:27 SP:FB PPU:134,  8
CB00  30 05     BMI                             A:80 X:80 Y:80 P:27 SP:FB PPU:140,  8
CB02  90 03     BCC                             A:80 X:80 Y:80 P:27 SP:FB PPU:146,  8
CB04  4C 0B CB  JMP                             A:80 X:80 Y:80 P:27 SP:FB PPU:152,  8
CB0B  EA        NOP                             A:80 X:80 Y:80 P:27 SP:FB PPU:161,  8
CB0C  E0 81     CPX                             A:80 X:80 Y:80 P:27 SP:FB PPU:167,  8
CB0E  B0 07     BCS                             A:80 X:80 Y:80 P:A4 SP:FB PPU:173,  8
CB10  F0 05     BEQ                             A:80 X:80 Y:80 P:A4 SP:FB PPU:179,  8
CB12  10 03     BPL                             A:80 X:80 Y:80 P:A4 SP:FB PPU:185,  8
CB14  4C 1B CB  JMP                             A:80 X:80 Y:80 P:A4 SP:FB PPU:191,  8
CB1B  EA        NOP                             A:80 X:80 Y:80 P:A4 SP:FB PPU:200,  8
CB1C  E0 7F     CPX                             A:80 X:80 Y:80 P:A4 SP:FB PPU:206,  8
CB1E  90 07     BCC                             A:80 X:80 Y:80 P:25 SP:FB PPU:212,  8
CB20  F0 05     BEQ                             A:80 X:80 Y:80 P:25 SP:FB PPU:218,  8
CB22  30 03     BMI                             A:80 X:80 Y:80 P:25 SP:FB PPU:224,  8
CB24  4C 2B CB  JMP                             A:80 X:80 Y:80 P:25 SP:FB PPU:230,  8
CB2B  EA        NOP                             A:80 X:80 Y:80 P:25 SP:FB PPU:239,  8
CB2C  38        SEC                             A:80 X:80 Y:80 P:25 SP:FB PPU:245,  8
CB2D  B8        CLV                             A:80 X:80 Y:80 P:25 SP:FB PPU:251,  8
CB2E  A2 9F     LDX                             A:80 X:80 Y:80 P:25 SP:FB PPU:257,  8
CB30  F0 09     BEQ                             A:80 X:9F Y:80 P:A5 SP:FB PPU:263,  8
CB32  10 07     BPL                             A:80 X:9F Y:80 P:A5 SP:FB PPU:269,  8
CB34  70 05     BVS                             A:80 X:9F Y:80 P:A5 SP:FB PPU:275,  8
CB36  90 03     BCC                             A:80 X:9F Y:80 P:A5 SP:FB PPU:281,  8
CB38  4C 3F CB  JMP                             A:80 X:9F Y:80 P:A5 SP:FB PPU:287,  8
CB3F  EA        NOP                             A:80 X:9F Y:80 P:A5 SP:FB PPU:296,  8
CB40  18        CLC                             A:80 X:9F Y:80 P:A5 SP:FB PPU:302,  8
CB41  24 01     BIT                             A:80 X:9F Y:80 P:A4 SP:FB PPU:308,  8
CB43  A2 00     LDX                             A:80 X:9F Y:80 P:E4 SP:FB PPU:317,  8
CB45  D0 09     BNE                             A:80 X:00 Y:80 P:66 SP:FB PPU:323,  8
CB47  30 07     BMI                             A:80 X:00 Y:80 P:66 SP:FB PPU:329,  8
CB49  50 05     BVC                             A:80 X:00 Y:80 P:66 SP:FB PPU:335,  8
CB4B  B0 03     BCS                             A:80 X:00 Y:80 P:66 SP:FB PPU:  0,  9
CB4D  4C 54 CB  JMP                             A:80 X:00 Y:80 P:66 SP:FB PPU:  6,  9
CB54  EA        NOP                             A:80 X:00 Y:80 P:66 SP:FB PPU: 15,  9
CB55  38        SEC                             A:80 X:00 Y:80 P:66 SP:FB PPU: 21,  9
CB56  B8        CLV                             A:80 X:00 Y:80 P:67 SP:FB PPU: 27,  9
CB57  A0 9F     LDY                             A:80 X:00 Y:80 P:27 SP:FB PPU: 33,  9
CB59  F0 09     BEQ                             A:80 X:00 Y:9F P:A5 SP:FB PPU: 39,  9
CB5B  10 07     BPL                             A:80 X:00 Y:9F P:A5 SP:FB PPU: 45,  9
CB5D  70 05     BVS                             A:80 X:00 Y:9F P:A5 SP:FB PPU: 51,  9
CB5F  90 03     BCC                             A:80 X:00 Y:9F P:A5 SP:FB PPU: 57,  9
CB61  4C 68 CB  JMP                             A:80 X:00 Y:9F P:A5 SP:FB PPU: 63,  9
CB68  EA        NOP                             A:80 X:00 Y:9F P:A5 SP:FB PPU: 72,  9
CB69  18        CLC                             A:80 X:00 Y:9F P:A5 SP:FB PPU: 78,  9
CB6A  24 01     BIT                             A:80 X:00 Y:9F P:A4 SP:FB PPU: 84,  9
CB6C  A0 00     LDY                             A:80 X:00 Y:9F P:E4 SP:FB PPU: 93,  9
CB6E  D0 09     BNE                             A:80 X:00 Y:00 P:66 SP:FB PPU: 99,  9
CB70  30 07     BMI                             A:80 X:00 Y:00 P:66 SP:FB PPU:105,  9
CB72  50 05     BVC                             A:80 X:00 Y:00 P:66 SP:FB PPU:111,  9
CB74  B0 03     BCS                             A:80 X:00 Y:00 P:66 SP:FB PPU:117,  9
CB76  4C 7D CB  JMP                             A:80 X:00 Y:00 P:66 SP:FB PPU:123,  9
CB7D  EA        NOP                             A:80 X:00 Y:00 P:66 SP:FB PPU:132,  9
CB7E  A9 55     LDA                             A:80 X:00 Y:00 P:66 SP:FB PPU:138,  9
CB80  A2 AA     LDX                             A:55 X:00 Y:00 P:64 SP:FB PPU:144,  9
CB82  A0 33     LDY                             A:55 X:AA Y:00 P:E4 SP:FB PPU:150,  9
CB84  C9 55     CMP                             A:55 X:AA Y:33 P:64 SP:FB PPU:156,  9
CB86  D0 23     BNE                             A:55 X:AA Y:33 P:67 SP:FB PPU:162,  9
CB88  E0 AA     CPX                             A:55 X:AA Y:33 P:67 SP:FB PPU:168,  9
CB8A  D0 1F     BNE                             A:55 X:AA Y:33 P:67 SP:FB PPU:174,  9
CB8C  C0 33     CPY                             A:55 X:AA Y:33 P:67 SP:FB PPU:180,  9
CB8E  D0 1B     BNE                             A:55 X:AA Y:33 P:67 SP:FB PPU:186,  9
CB90  C9 55     CMP                             A:55 X:AA Y:33 P:67 SP:FB PPU:192,  9
CB92  D0 17     BNE                             A:55 X:AA Y:33 P:67 SP:FB PPU:198,  9
CB94  E0 AA     CPX                             A:55 X:AA Y:33 P:67 SP:FB PPU:204,  9
CB96  D0 13     BNE                             A:55 X:AA Y:33 P:67 SP:FB PPU:210,  9
CB98  C0 33     CPY                             A:55 X:AA Y:33 P:67 SP:FB PPU:216,  9
CB9A  D0 0F     BNE                             A:55 X:AA Y:33 P:67 SP:FB PPU:222,  9
CB9C  C9 56     CMP                             A:55 X:AA Y:33 P:67 SP:FB PPU:228,  9
CB9E  F0 0B     BEQ                             A:55 X:AA Y:33 P:E4 SP:FB PPU:234,  9
CBA0  E0 AB     CPX                             A:55 X:AA Y:33 P:E4 SP:FB PPU:240,  9
CBA2  F0 07     BEQ                             A:55 X:AA Y:33 P:E4 SP:FB PPU:246,  9
CBA4  C0 34     CPY                             A:55 X:AA Y:33 P:E4 SP:FB PPU:252,  9
CBA6  F0 03     BEQ                             A:55 X:AA Y:33 P:E4 SP:FB PPU:258,  9
CBA8  4C AF CB  JMP                             A:55 X:AA Y:33 P:E4 SP:FB PPU:264,  9
CBAF  A0 71     LDY                             A:55 X:AA Y:33 P:E4 SP:FB PPU:273,  9
CBB1  20 31 F9  JSR                             A:55 X:AA Y:71 P:64 SP:FB PPU:279,  9
F931  24 01     BIT                             A:55 X:AA Y:71 P:64 SP:F9 PPU:297,  9
F933  A9 40     LDA                             A:55 X:AA Y:71 P:E4 SP:F9 PPU:306,  9
F935  38        SEC                             A:40 X:AA Y:71 P:64 SP:F9 PPU:312,  9
F936  60        RTS                             A:40 X:AA Y:71 P:65 SP:F9 PPU:318,  9
CBB4  E9 40     SBC                             A:40 X:AA Y:71 P:65 SP:FB PPU:336,  9
CBB6  20 37 F9  JSR                             A:00 X:AA Y:71 P:27 SP:FB PPU:  1, 10
F937  30 0B     BMI                             A:00 X:AA Y:71 P:27 SP:F9 PPU: 19, 10
F939  90 09     BCC                             A:00 X:AA Y:71 P:27 SP:F9 PPU: 25, 10
F93B  D0 07     BNE                             A:00 X:AA Y:71 P:27 SP:F9 PPU: 31, 10
F93D  70 05     BVS                             A:00 X:AA Y:71 P:27 SP:F9 PPU: 37, 10
F93F  C9 00     CMP                             A:00 X:AA Y:71 P:27 SP:F9 PPU: 43, 10
F941  D0 01     BNE                             A:00 X:AA Y:71 P:27 SP:F9 PPU: 49, 10
F943  60        RTS                             A:00 X:AA Y:71 P:27 SP:F9 PPU: 55, 10
CBB9  C8        INY                             A:00 X:AA Y:71 P:27 SP:FB PPU: 73, 10
CBBA  20 47 F9  JSR                             A:00 X:AA Y:72 P:25 SP:FB PPU: 79, 10
F947  B8        CLV                             A:00 X:AA Y:72 P:25 SP:F9 PPU: 97, 10
F948  38        SEC                             A:00 X:AA Y:72 P:25 SP:F9 PPU:103, 10
F949  A9 40     LDA                             A:00 X:AA Y:72 P:25 SP:F9 PPU:109, 10
F94B  60        RTS                             A:40 X:AA Y:72 P:25 SP:F9 PPU:115, 10
CBBD  E9 3F     SBC                             A:40 X:AA Y:72 P:25 SP:FB PPU:133, 10
CBBF  20 4C F9  JSR                             A:01 X:AA Y:72 P:25 SP:FB PPU:139, 10
F94C  F0 0B     BEQ                             A:01 X:AA Y:72 P:25 SP:F9 PPU:157, 10
F94E  30 09     BMI                             A:01 X:AA Y:72 P:25 SP:F9 PPU:163, 10
F950  90 07     BCC                             A:01 X:AA Y:72 P:25 SP:F9 PPU:169, 10
F952  70 05     BVS                             A:01 X:AA Y:72 P:25 SP:F9 PPU:175, 10
F954  C9 01     CMP                             A:01 X:AA Y:72 P:25 SP:F9 PPU:181, 10
F956  D0 01     BNE                             A:01 X:AA Y:72 P:27 SP:F9 PPU:187, 10
F958  60        RTS                             A:01 X:AA Y:72 P:27 SP:F9 PPU:193, 10
CBC2  C8        INY                             A:01 X:AA Y:72 P:27 SP:FB PPU:211, 10
CBC3  20 5C F9  JSR                             A:01 X:AA Y:73 P:25 SP:FB PPU:217, 10
F95C  A9 40     LDA                             A:01 X:AA Y:73 P:25 SP:F9 PPU:235, 10
F95E  38        SEC                             A:40 X:AA Y:73 P:25 SP:F9 PPU:241, 10
F95F  24 01     BIT                             A:40 X:AA Y:73 P:25 SP:F9 PPU:247, 10
F961  60        RTS                             A:40 X:AA Y:73 P:E5 SP:F9 PPU:256, 10
CBC6  E9 41     SBC                             A:40 X:AA Y:73 P:E5 SP:FB PPU:274, 10
CBC8  20 62 F9  JSR                             A:FF X:AA Y:73 P:A4 SP:FB PPU:280, 10
F962  B0 0B     BCS                             A:FF X:AA Y:73 P:A4 SP:F9 PPU:298, 10
F964  F0 09     BEQ                             A:FF X:AA Y:73 P:A4 SP:F9 PPU:304, 10
F966  10 07     BPL                             A:FF X:AA Y:73 P:A4 SP:F9 PPU:310, 10
F968  70 05     BVS                             A:FF X:AA Y:73 P:A4 SP:F9 PPU:316, 10
F96A  C9 FF     CMP                             A:FF X:AA Y:73 P:A4 SP:F9 PPU:322, 10
F96C  D0 01     BNE                             A:FF X:AA Y:73 P:27 SP:F9 PPU:328, 10
F96E  60        RTS                             A:FF X:AA Y:73 P:27 SP:F9 PPU:334, 10
CBCB  C8        INY                             A:FF X:AA Y:73 P:27 SP:FB PPU: 11, 11
CBCC  20 72 F9  JSR                             A:FF X:AA Y:74 P:25 SP:FB PPU: 17, 11
F972  18        CLC                             A:FF X:AA Y:74 P:25 SP:F9 PPU: 35, 11
F973  A9 80     LDA                             A:FF X:AA Y:74 P:24 SP:F9 PPU: 41, 11
F975  60        RTS                             A:80 X:AA Y:74 P:A4 SP:F9 PPU: 47, 11
CBCF  E9 00     SBC                             A:80 X:AA Y:74 P:A4 SP:FB PPU: 65, 11
CBD1  20 76 F9  JSR                             A:7F X:AA Y:74 P:65 SP:FB PPU: 71, 11
F976  90 05     BCC                             A:7F X:AA Y:74 P:65 SP:F9 PPU: 89, 11
F978  C9 7F     CMP                             A:7F X:AA Y:74 P:65 SP:F9 PPU: 95, 11
F97A  D0 01     BNE                             A:7F X:AA Y:74 P:67 SP:F9 PPU:101, 11
F97C  60        RTS                             A:7F X:AA Y:74 P:67 SP:F9 PPU:107, 11
CBD4  C8        INY                             A:7F X:AA Y:74 P:67 SP:FB PPU:125, 11
CBD5  20 80 F9  JSR                             A:7F X:AA Y:75 P:65 SP:FB PPU:131, 11
F980  38        SEC                             A:7F X:AA Y:75 P:65 SP:F9 PPU:149, 11
F981  A9 81     LDA                             A:7F X:AA Y:75 P:65 SP:F9 PPU:155, 11
F983  60        RTS                             A:81 X:AA Y:75 P:E5 SP:F9 PPU:161, 11
CBD8  E9 7F     SBC                             A:81 X:AA Y:75 P:E5 SP:FB PPU:179, 11
CBDA  20 84 F9  JSR                             A:02 X:AA Y:75 P:65 SP:FB PPU:185, 11
F984  50 07     BVC                             A:02 X:AA Y:75 P:65 SP:F9 PPU:203, 11
F986  90 05     BCC                             A:02 X:AA Y:75 P:65 SP:F9 PPU:209, 11
F988  C9 02     CMP                             A:02 X:AA Y:75 P:65 SP:F9 PPU:215, 11
F98A  D0 01     BNE                             A:02 X:AA Y:75 P:67 SP:F9 PPU:221, 11
F98C  60        RTS                             A:02 X:AA Y:75 P:67 SP:F9 PPU:227, 11
CBDD  60        RTS                             A:02 X:AA Y:75 P:67 SP:FB PPU:245, 11
C606  20 DE CB  JSR                             A:02 X:AA Y:75 P:67 SP:FD PPU:263, 11
CBDE  EA        NOP                             A:02 X:AA Y:75 P:67 SP:FB PPU:281, 11
CBDF  A9 FF     LDA                             A:02 X:AA Y:75 P:67 SP:FB PPU:287, 11
CBE1  85 01     STA                             A:FF X:AA Y:75 P:E5 SP:FB PPU:293, 11
CBE3  A9 44     LDA                             A:FF X:AA Y:75 P:E5 SP:FB PPU:302, 11
CBE5  A2 55     LDX                             A:44 X:AA Y:75 P:65 SP:FB PPU:308, 11
CBE7  A0 66     LDY                             A:44 X:55 Y:75 P:65 SP:FB PPU:314, 11
CBE9  E8        INX                             A:44 X:55 Y:66 P:65 SP:FB PPU:320, 11
CBEA  88        DEY                             A:44 X:56 Y:66 P:65 SP:FB PPU:326, 11
CBEB  E0 56     CPX                             A:44 X:56 Y:65 P:65 SP:FB PPU:332, 11
CBED  D0 21     BNE                             A:44 X:56 Y:65 P:67 SP:FB PPU:338, 11
CBEF  C0 65     CPY                             A:44 X:56 Y:65 P:67 SP:FB PPU:  3, 12
CBF1  D0 1D     BNE                             A:44 X:56 Y:65 P:67 SP:FB PPU:  9, 12
CBF3  E8        INX                             A:44 X:56 Y:65 P:67 SP:FB PPU: 15, 12
CBF4  E8        INX                             A:44 X:57 Y:65 P:65 SP:FB PPU: 21, 12
CBF5  88        DEY                             A:44 X:58 Y:65 P:65 SP:FB PPU: 27, 12
CBF6  88        DEY                             A:44 X:58 Y:64 P:65 SP:FB PPU: 33, 12
CBF7  E0 58     CPX                             A:44 X:58 Y:63 P:65 SP:FB PPU: 39, 12
CBF9  D0 15     BNE                             A:44 X:58 Y:63 P:67 SP:FB PPU: 45, 12
CBFB  C0 63     CPY                             A:44 X:58 Y:63 P:67 SP:FB PPU: 51, 12
CBFD  D0 11     BNE                             A:44 X:58 Y:63 P:67 SP:FB PPU: 57, 12
CBFF  CA        DEX                             A:44 X:58 Y:63 P:67 SP:FB PPU: 63, 12
CC00  C8        INY                             A:44 X:57 Y:63 P:65 SP:FB PPU: 69, 12
CC01  E0 57     CPX                             A:44 X:57 Y:64 P:65 SP:FB PPU: 75, 12
CC03  D0 0B     BNE                             A:44 X:57 Y:64 P:67 SP:FB PPU: 81, 12
CC05  C0 64     CPY                             A:44 X:57 Y:64 P:67 SP:FB PPU: 87, 12
CC07  D0 07     BNE                             A:44 X:57 Y:64 P:67 SP:FB PPU: 93, 12
CC09  C9 44     CMP                             A:44 X:57 Y:64 P:67 SP:FB PPU: 99, 12
CC0B  D0 03     BNE                             A:44 X:57 Y:64 P:67 SP:FB PPU:105, 12
CC0D  4C 14 CC  JMP                             A:44 X:57 Y:64 P:67 SP:FB PPU:111, 12
CC14  EA        NOP                             A:44 X:57 Y:64 P:67 SP:FB PPU:120, 12
CC15  38        SEC                             A:44 X:57 Y:64 P:67 SP:FB PPU:126, 12
CC16  A2 69     LDX                             A:44 X:57 Y:64 P:67 SP:FB PPU:132, 12
CC18  A9 96     LDA                             A:44 X:69 Y:64 P:65 SP:FB PPU:138, 12
CC1A  24 01     BIT                             A:96 X:69 Y:64 P:E5 SP:FB PPU:144, 12
CC1C  A0 FF     LDY                             A:96 X:69 Y:64 P:E5 SP:FB PPU:153, 12
CC1E  C8        INY                             A:96 X:69 Y:FF P:E5 SP:FB PPU:159, 12
CC1F  D0 3D     BNE                             A:96 X:69 Y:00 P:67 SP:FB PPU:165, 12
CC21  30 3B     BMI                             A:96 X:69 Y:00 P:67 SP:FB PPU:171, 12
CC23  90 39     BCC                             A:96 X:69 Y:00 P:67 SP:FB PPU:177, 12
CC25  50 37     BVC                             A:96 X:69 Y:00 P:67 SP:FB PPU:183, 12
CC27  C0 00     CPY                             A:96 X:69 Y:00 P:67 SP:FB PPU:189, 12
CC29  D0 33     BNE                             A:96 X:69 Y:00 P:67 SP:FB PPU:195, 12
CC2B  C8        INY                             A:96 X:69 Y:00 P:67 SP:FB PPU:201, 12
CC2C  F0 30     BEQ                             A:96 X:69 Y:01 P:65 SP:FB PPU:207, 12
CC2E  30 2E     BMI                             A:96 X:69 Y:01 P:65 SP:FB PPU:213, 12
CC30  90 2C     BCC                             A:96 X:69 Y:01 P:65 SP:FB PPU:219, 12
CC32  50 2A     BVC                             A:96 X:69 Y:01 P:65 SP:FB PPU:225, 12
CC34  18        CLC                             A:96 X:69 Y:01 P:65 SP:FB PPU:231, 12
CC35  B8        CLV                             A:96 X:69 Y:01 P:64 SP:FB PPU:237, 12
CC36  A0 00     LDY                             A:96 X:69 Y:01 P:24 SP:FB PPU:243, 12
CC38  88        DEY                             A:96 X:69 Y:00 P:26 SP:FB PPU:249, 12
CC39  F0 23     BEQ                             A:96 X:69 Y:FF P:A4 SP:FB PPU:255, 12
CC3B  10 21     BPL                             A:96 X:69 Y:FF P:A4 SP:FB PPU:261, 12
CC3D  B0 1F     BCS                             A:96 X:69 Y:FF P:A4 SP:FB PPU:267, 12
CC3F  70 1D     BVS                             A:96 X:69 Y:FF P:A4 SP:FB PPU:273, 12
CC41  C0 FF     CPY                             A:96 X:69 Y:FF P:A4 SP:FB PPU:279, 12
CC43  D0 19     BNE                             A:96 X:69 Y:FF P:27 SP:FB PPU:285, 12
CC45  18        CLC                             A:96 X:69 Y:FF P:27 SP:FB PPU:291, 12
CC46  88        DEY                             A:96 X:69 Y:FF P:26 SP:FB PPU:297, 12
CC47  F0 15     BEQ                             A:96 X:69 Y:FE P:A4 SP:FB PPU:303, 12
CC49  10 13     BPL                             A:96 X:69 Y:FE P:A4 SP:FB PPU:309, 12
CC4B  B0 11     BCS                             A:96 X:69 Y:FE P:A4 SP:FB PPU:315, 12
CC4D  70 0F     BVS                             A:96 X:69 Y:FE P:A4 SP:FB PPU:321, 12
CC4F  C0 FE     CPY                             A:96 X:69 Y:FE P:A4 SP:FB PPU:327, 12
CC51  D0 0B     BNE                             A:96 X:69 Y:FE P:27 SP:FB PPU:333, 12
CC53  C9 96     CMP                             A:96 X:69 Y:FE P:27 SP:FB PPU:339, 12
CC55  D0 07     BNE                             A:96 X:69 Y:FE P:27 SP:FB PPU:  4, 13
CC57  E0 69     CPX                             A:96 X:69 Y:FE P:27 SP:FB PPU: 10, 13
CC59  D0 03     BNE                             A:96 X:69 Y:FE P:27 SP:FB PPU: 16, 13
CC5B  4C 62 CC  JMP                             A:96 X:69 Y:FE P:27 SP:FB PPU: 22, 13
CC62  EA        NOP                             A:96 X:69 Y:FE P:27 SP:FB PPU: 31, 13
CC63  38        SEC                             A:96 X:69 Y:FE P:27 SP:FB PPU: 37, 13
CC64  A0 69     LDY                             A:96 X:69 Y:FE P:27 SP:FB PPU: 43, 13
CC66  A9 96     LDA                             A:96 X:69 Y:69 P:25 SP:FB PPU: 49, 13
CC68  24 01     BIT                             A:96 X:69 Y:69 P:A5 SP:FB PPU: 55, 13
CC6A  A2 FF     LDX                             A:96 X:69 Y:69 P:E5 SP:FB PPU: 64, 13
CC6C  E8        INX                             A:96 X:FF Y:69 P:E5 SP:FB PPU: 70, 13
CC6D  D0 3D     BNE                             A:96 X:00 Y:69 P:67 SP:FB PPU: 76, 13
CC6F  30 3B     BMI                             A:96 X:00 Y:69 P:67 SP:FB PPU: 82, 13
CC71  90 39     BCC                             A:96 X:00 Y:69 P:67 SP:FB PPU: 88, 13
CC73  50 37     BVC                             A:96 X:00 Y:69 P:67 SP:FB PPU: 94, 13
CC75  E0 00     CPX                             A:96 X:00 Y:69 P:67 SP:FB PPU:100, 13
CC77  D0 33     BNE                             A:96 X:00 Y:69 P:67 SP:FB PPU:106, 13
CC79  E8        INX                             A:96 X:00 Y:69 P:67 SP:FB PPU:112, 13
CC7A  F0 30     BEQ                             A:96 X:01 Y:69 P:65 SP:FB PPU:118, 13
CC7C  30 2E     BMI                             A:96 X:01 Y:69 P:65 SP:FB PPU:124, 13
CC7E  90 2C     BCC                             A:96 X:01 Y:69 P:65 SP:FB PPU:130, 13
CC80  50 2A     BVC                             A:96 X:01 Y:69 P:65 SP:FB PPU:136, 13
CC82  18        CLC                             A:96 X:01 Y:69 P:65 SP:FB PPU:142, 13
CC83  B8        CLV                             A:96 X:01 Y:69 P:64 SP:FB PPU:148, 13
CC84  A2 00     LDX                             A:96 X:01 Y:69 P:24 SP:FB PPU:154, 13
CC86  CA        DEX                             A:96 X:00 Y:69 P:26 SP:FB PPU:160, 13
CC87  F0 23     BEQ                             A:96 X:FF Y:69 P:A4 SP:FB PPU:166, 13
CC89  10 21     BPL                             A:96 X:FF Y:69 P:A4 SP:FB PPU:172, 13
CC8B  B0 1F     BCS                             A:96 X:FF Y:69 P:A4 SP:FB PPU:178, 13
CC8D  70 1D     BVS                             A:96 X:FF Y:69 P:A4 SP:FB PPU:184, 13
CC8F  E0 FF     CPX                             A:96 X:FF Y:69 P:A4 SP:FB PPU:190, 13
CC91  D0 19     BNE                             A:96 X:FF Y:69 P:27 SP:FB PPU:196, 13
CC93  18        CLC                             A:96 X:FF Y:69 P:27 SP:FB PPU:202, 13
CC94  CA        DEX                             A:96 X:FF Y:69 P:26 SP:FB PPU:208, 13
CC95  F0 15     BEQ                             A:96 X:FE Y:69 P:A4 SP:FB PPU:214, 13
CC97  10 13     BPL                             A:96 X:FE Y:69 P:A4 SP:FB PPU:220, 13
CC99  B0 11     BCS                             A:96 X:FE Y:69 P:A4 SP:FB PPU:226, 13
CC9B  70 0F     BVS                             A:96 X:FE Y:69 P:A4 SP:FB PPU:232, 13
CC9D  E0 FE     CPX                             A:96 X:FE Y:69 P:A4 SP:FB PPU:238, 13
CC9F  D0 0B     BNE                             A:96 X:FE Y:69 P:27 SP:FB PPU:244, 13
CCA1  C9 96     CMP                             A:96 X:FE Y:69 P:27 SP:FB PPU:250, 13
CCA3  D0 07     BNE                             A:96 X:FE Y:69 P:27 SP:FB PPU:256, 13
CCA5  C0 69     CPY                             A:96 X:FE Y:69 P:27 SP:FB PPU:262, 13
CCA7  D0 03     BNE                             A:96 X:FE Y:69 P:27 SP:FB PPU:268, 13
CCA9  4C B0 CC  JMP                             A:96 X:FE Y:69 P:27 SP:FB PPU:274, 13
CCB0  EA        NOP                             A:96 X:FE Y:69 P:27 SP:FB PPU:283, 13
CCB1  A9 85     LDA                             A:96 X:FE Y:69 P:27 SP:FB PPU:289, 13
CCB3  A2 34     LDX                             A:85 X:FE Y:69 P:A5 SP:FB PPU:295, 13
CCB5  A0 99     LDY                             A:85 X:34 Y:69 P:25 SP:FB PPU:301, 13
CCB7  18        CLC                             A:85 X:34 Y:99 P:A5 SP:FB PPU:307, 13
CCB8  24 01     BIT                             A:85 X:34 Y:99 P:A4 SP:FB PPU:313, 13
CCBA  A8        TAY                             A:85 X:34 Y:99 P:E4 SP:FB PPU:322, 13
CCBB  F0 2E     BEQ                             A:85 X:34 Y:85 P:E4 SP:FB PPU:328, 13
CCBD  B0 2C     BCS                             A:85 X:34 Y:85 P:E4 SP:FB PPU:334, 13
CCBF  50 2A     BVC                             A:85 X:34 Y:85 P:E4 SP:FB PPU:340, 13
CCC1  10 28     BPL                             A:85 X:34 Y:85 P:E4 SP:FB PPU:  5, 14
CCC3  C9 85     CMP                             A:85 X:34 Y:85 P:E4 SP:FB PPU: 11, 14
CCC5  D0 24     BNE                             A:85 X:34 Y:85 P:67 SP:FB PPU: 17, 14
CCC7  E0 34     CPX                             A:85 X:34 Y:85 P:67 SP:FB PPU: 23, 14
CCC9  D0 20     BNE                             A:85 X:34 Y:85 P:67 SP:FB PPU: 29, 14
CCCB  C0 85     CPY                             A:85 X:34 Y:85 P:67 SP:FB PPU: 35, 14
CCCD  D0 1C     BNE                             A:85 X:34 Y:85 P:67 SP:FB PPU: 41, 14
CCCF  A9 00     LDA                             A:85 X:34 Y:85 P:67 SP:FB PPU: 47, 14
CCD1  38        SEC                             A:00 X:34 Y:85 P:67 SP:FB PPU: 53, 14
CCD2  B8        CLV                             A:00 X:34 Y:85 P:67 SP:FB PPU: 59, 14
CCD3  A8        TAY                             A:00 X:34 Y:85 P:27 SP:FB PPU: 65, 14
CCD4  D0 15     BNE                             A:00 X:34 Y:00 P:27 SP:FB PPU: 71, 14
CCD6  90 13     BCC                             A:00 X:34 Y:00 P:27 SP:FB PPU: 77, 14
CCD8  70 11     BVS                             A:00 X:34 Y:00 P:27 SP:FB PPU: 83, 14
CCDA  30 0F     BMI                             A:00 X:34 Y:00 P:27 SP:FB PPU: 89, 14
CCDC  C9 00     CMP                             A:00 X:34 Y:00 P:27 SP:FB PPU: 95, 14
CCDE  D0 0B     BNE                             A:00 X:34 Y:00 P:27 SP:FB PPU:101, 14
CCE0  E0 34     CPX                             A:00 X:34 Y:00 P:27 SP:FB PPU:107, 14
CCE2  D0 07     BNE                             A:00 X:34 Y:00 P:27 SP:FB PPU:113, 14
CCE4  C0 00     CPY                             A:00 X:34 Y:00 P:27 SP:FB PPU:119, 14
CCE6  D0 03     BNE                             A:00 X:34 Y:00 P:27 SP:FB PPU:125, 14
CCE8  4C EF CC  JMP                             A:00 X:34 Y:00 P:27 SP:FB PPU:131, 14
CCEF  EA        NOP                             A:00 X:34 Y:00 P:27 SP:FB PPU:140, 14
CCF0  A9 85     LDA                             A:00 X:34 Y:00 P:27 SP:FB PPU:146, 14
CCF2  A2 34     LDX                             A:85 X:34 Y:00 P:A5 SP:FB PPU:152, 14
CCF4  A0 99     LDY                             A:85 X:34 Y:00 P:25 SP:FB PPU:158, 14
CCF6  18        CLC                             A:85 X:34 Y:99 P:A5 SP:FB PPU:164, 14
CCF7  24 01     BIT                             A:85 X:34 Y:99 P:A4 SP:FB PPU:170, 14
CCF9  AA        TAX                             A:85 X:34 Y:99 P:E4 SP:FB PPU:179, 14
CCFA  F0 2E     BEQ                             A:85 X:85 Y:99 P:E4 SP:FB PPU:185, 14
CCFC  B0 2C     BCS                             A:85 X:85 Y:99 P:E4 SP:FB PPU:191, 14
CCFE  50 2A     BVC                             A:85 X:85 Y:99 P:E4 SP:FB PPU:197, 14
CD00  10 28     BPL                             A:85 X:85 Y:99 P:E4 SP:FB PPU:203, 14
CD02  C9 85     CMP                             A:85 X:85 Y:99 P:E4 SP:FB PPU:209, 14
CD04  D0 24     BNE                             A:85 X:85 Y:99 P:67 SP:FB PPU:215, 14
CD06  E0 85     CPX                             A:85 X:85 Y:99 P:67 SP:FB PPU:221, 14
CD08  D0 20     BNE                             A:85 X:85 Y:99 P:67 SP:FB PPU:227, 14
CD0A  C0 99     CPY                             A:85 X:85 Y:99 P:67 SP:FB PPU:233, 14
CD0C  D0 1C     BNE                             A:85 X:85 Y:99 P:67 SP:FB PPU:239, 14
CD0E  A9 00     LDA                             A:85 X:85 Y:99 P:67 SP:FB PPU:245, 14
CD10  38        SEC                             A:00 X:85 Y:99 P:67 SP:FB PPU:251, 14
CD11  B8        CLV                             A:00 X:85 Y:99 P:67 SP:FB PPU:257, 14
CD12  AA        TAX                             A:00 X:85 Y:99 P:27 SP:FB PPU:263, 14
CD13  D0 15     BNE                             A:00 X:00 Y:99 P:27 SP:FB PPU:269, 14
CD15  90 13     BCC                             A:00 X:00 Y:99 P:27 SP:FB PPU:275, 14
CD17  70 11     BVS                             A:00 X:00 Y:99 P:27 SP:FB PPU:281, 14
CD19  30 0F     BMI                             A:00 X:00 Y:99 P:27 SP:FB PPU:287, 14
CD1B  C9 00     CMP                             A:00 X:00 Y:99 P:27 SP:FB PPU:293, 14
CD1D  D0 0B     BNE                             A:00 X:00 Y:99 P:27 SP:FB PPU:299, 14
CD1F  E0 00     CPX                             A:00 X:00 Y:99 P:27 SP:FB PPU:305, 14
CD21  D0 07     BNE                             A:00 X:00 Y:99 P:27 SP:FB PPU:311, 14
CD23  C0 99     CPY                             A:00 X:00 Y:99 P:27 SP:FB PPU:317, 14
CD25  D0 03     BNE                             A:00 X:00 Y:99 P:27 SP:FB PPU:323, 14
CD27  4C 2E CD  JMP                             A:00 X:00 Y:99 P:27 SP:FB PPU:329, 14
CD2E  EA        NOP                             A:00 X:00 Y:99 P:27 SP:FB PPU:338, 14
CD2F  A9 85     LDA                             A:00 X:00 Y:99 P:27 SP:FB PPU:  3, 15
CD31  A2 34     LDX                             A:85 X:00 Y:99 P:A5 SP:FB PPU:  9, 15
CD33  A0 99     LDY                             A:85 X:34 Y:99 P:25 SP:FB PPU: 15, 15
CD35  18        CLC                             A:85 X:34 Y:99 P:A5 SP:FB PPU: 21, 15
CD36  24 01     BIT                             A:85 X:34 Y:99 P:A4 SP:FB PPU: 27, 15
CD38  98        TYA                             A:85 X:34 Y:99 P:E4 SP:FB PPU: 36, 15
CD39  F0 2E     BEQ                             A:99 X:34 Y:99 P:E4 SP:FB PPU: 42, 15
CD3B  B0 2C     BCS                             A:99 X:34 Y:99 P:E4 SP:FB PPU: 48, 15
CD3D  50 2A     BVC                             A:99 X:34 Y:99 P:E4 SP:FB PPU: 54, 15
CD3F  10 28     BPL                             A:99 X:34 Y:99 P:E4 SP:FB PPU: 60, 15
CD41  C9 99     CMP                             A:99 X:34 Y:99 P:E4 SP:FB PPU: 66, 15
CD43  D0 24     BNE                             A:99 X:34 Y:99 P:67 SP:FB PPU: 72, 15
CD45  E0 34     CPX                             A:99 X:34 Y:99 P:67 SP:FB PPU: 78, 15
CD47  D0 20     BNE                             A:99 X:34 Y:99 P:67 SP:FB PPU: 84, 15
CD49  C0 99     CPY                             A:99 X:34 Y:99 P:67 SP:FB PPU: 90, 15
CD4B  D0 1C     BNE                             A:99 X:34 Y:99 P:67 SP:FB PPU: 96, 15
CD4D  A0 00     LDY                             A:99 X:34 Y:99 P:67 SP:FB PPU:102, 15
CD4F  38        SEC                             A:99 X:34 Y:00 P:67 SP:FB PPU:108, 15
CD50  B8        CLV                             A:99 X:34 Y:00 P:67 SP:FB PPU:114, 15
CD51  98        TYA                             A:99 X:34 Y:00 P:27 SP:FB PPU:120, 15
CD52  D0 15     BNE                             A:00 X:34 Y:00 P:27 SP:FB PPU:126, 15
CD54  90 13     BCC                             A:00 X:34 Y:00 P:27 SP:FB PPU:132, 15
CD56  70 11     BVS                             A:00 X:34 Y:00 P:27 SP:FB PPU:138, 15
CD58  30 0F     BMI                             A:00 X:34 Y:00 P:27 SP:FB PPU:144, 15
CD5A  C9 00     CMP                             A:00 X:34 Y:00 P:27 SP:FB PPU:150, 15
CD5C  D0 0B     BNE                             A:00 X:34 Y:00 P:27 SP:FB PPU:156, 15
CD5E  E0 34     CPX                             A:00 X:34 Y:00 P:27 SP:FB PPU:162, 15
CD60  D0 07     BNE                             A:00 X:34 Y:00 P:27 SP:FB PPU:168, 15
CD62  C0 00     CPY                             A:00 X:34 Y:00 P:27 SP:FB PPU:174, 15
CD64  D0 03     BNE                             A:00 X:34 Y:00 P:27 SP:FB PPU:180, 15
CD66  4C 6D CD  JMP                             A:00 X:34 Y:00 P:27 SP:FB PPU:186, 15
CD6D  EA        NOP                             A:00 X:34 Y:00 P:27 SP:FB PPU:195, 15
CD6E  A9 85     LDA                             A:00 X:34 Y:00 P:27 SP:FB PPU:201, 15
CD70  A2 34     LDX                             A:85 X:34 Y:00 P:A5 SP:FB PPU:207, 15
CD72  A0 99     LDY                             A:85 X:34 Y:00 P:25 SP:FB PPU:213, 15
CD74  18        CLC                             A:85 X:34 Y:99 P:A5 SP:FB PPU:219, 15
CD75  24 01     BIT                             A:85 X:34 Y:99 P:A4 SP:FB PPU:225, 15
CD77  8A        TXA                             A:85 X:34 Y:99 P:E4 SP:FB PPU:234, 15
CD78  F0 2E     BEQ                             A:34 X:34 Y:99 P:64 SP:FB PPU:240, 15
CD7A  B0 2C     BCS                             A:34 X:34 Y:99 P:64 SP:FB PPU:246, 15
CD7C  50 2A     BVC                             A:34 X:34 Y:99 P:64 SP:FB PPU:252, 15
CD7E  30 28     BMI                             A:34 X:34 Y:99 P:64 SP:FB PPU:258, 15
CD80  C9 34     CMP                             A:34 X:34 Y:99 P:64 SP:FB PPU:264, 15
CD82  D0 24     BNE                             A:34 X:34 Y:99 P:67 SP:FB PPU:270, 15
CD84  E0 34     CPX                             A:34 X:34 Y:99 P:67 SP:FB PPU:276, 15
CD86  D0 20     BNE                             A:34 X:34 Y:99 P:67 SP:FB PPU:282, 15
CD88  C0 99     CPY                             A:34 X:34 Y:99 P:67 SP:FB PPU:288, 15
CD8A  D0 1C     BNE                             A:34 X:34 Y:99 P:67 SP:FB PPU:294, 15
CD8C  A2 00     LDX                             A:34 X:34 Y:99 P:67 SP:FB PPU:300, 15
CD8E  38        SEC                             A:34 X:00 Y:99 P:67 SP:FB PPU:306, 15
CD8F  B8        CLV                             A:34 X:00 Y:99 P:67 SP:FB PPU:312, 15
CD90  8A        TXA                             A:34 X:00 Y:99 P:27 SP:FB PPU:318, 15
CD91  D0 15     BNE                             A:00 X:00 Y:99 P:27 SP:FB PPU:324, 15
CD93  90 13     BCC                             A:00 X:00 Y:99 P:27 SP:FB PPU:330, 15
CD95  70 11     BVS                             A:00 X:00 Y:99 P:27 SP:FB PPU:336, 15
CD97  30 0F     BMI                             A:00 X:00 Y:99 P:27 SP:FB PPU:  1, 16
CD99  C9 00     CMP                             A:00 X:00 Y:99 P:27 SP:FB PPU:  7, 16
CD9B  D0 0B     BNE                             A:00 X:00 Y:99 P:27 SP:FB PPU: 13, 16
CD9D  E0 00     CPX                             A:00 X:00 Y:99 P:27 SP:FB PPU: 19, 16
CD9F  D0 07     BNE                             A:00 X:00 Y:99 P:27 SP:FB PPU: 25, 16
CDA1  C0 99     CPY                             A:00 X:00 Y:99 P:27 SP:FB PPU: 31, 16
CDA3  D0 03     BNE                             A:00 X:00 Y:99 P:27 SP:FB PPU: 37, 16
CDA5  4C AC CD  JMP                             A:00 X:00 Y:99 P:27 SP:FB PPU: 43, 16
CDAC  EA        NOP                             A:00 X:00 Y:99 P:27 SP:FB PPU: 52, 16
CDAD  BA        TSX                             A:00 X:00 Y:99 P:27 SP:FB PPU: 58, 16
CDAE  8E FF 07  STX                             A:00 X:FB Y:99 P:A5 SP:FB PPU: 64, 16
CDB1  A0 33     LDY                             A:00 X:FB Y:99 P:A5 SP:FB PPU: 76, 16
CDB3  A2 69     LDX                             A:00 X:FB Y:33 P:25 SP:FB PPU: 82, 16
CDB5  A9 84     LDA                             A:00 X:69 Y:33 P:25 SP:FB PPU: 88, 16
CDB7  18        CLC                             A:84 X:69 Y:33 P:A5 SP:FB PPU: 94, 16
CDB8  24 01     BIT                             A:84 X:69 Y:33 P:A4 SP:FB PPU:100, 16
CDBA  9A        TXS                             A:84 X:69 Y:33 P:E4 SP:FB PPU:109, 16
CDBB  F0 32     BEQ                             A:84 X:69 Y:33 P:E4 SP:69 PPU:115, 16
CDBD  10 30     BPL                             A:84 X:69 Y:33 P:E4 SP:69 PPU:121, 16
CDBF  B0 2E     BCS                             A:84 X:69 Y:33 P:E4 SP:69 PPU:127, 16
CDC1  50 2C     BVC                             A:84 X:69 Y:33 P:E4 SP:69 PPU:133, 16
CDC3  C9 84     CMP                             A:84 X:69 Y:33 P:E4 SP:69 PPU:139, 16
CDC5  D0 28     BNE                             A:84 X:69 Y:33 P:67 SP:69 PPU:145, 16
CDC7  E0 69     CPX                             A:84 X:69 Y:33 P:67 SP:69 PPU:151, 16
CDC9  D0 24     BNE                             A:84 X:69 Y:33 P:67 SP:69 PPU:157, 16
CDCB  C0 33     CPY                             A:84 X:69 Y:33 P:67 SP:69 PPU:163, 16
CDCD  D0 20     BNE                             A:84 X:69 Y:33 P:67 SP:69 PPU:169, 16
CDCF  A0 01     LDY                             A:84 X:69 Y:33 P:67 SP:69 PPU:175, 16
CDD1  A9 04     LDA                             A:84 X:69 Y:01 P:65 SP:69 PPU:181, 16
CDD3  38        SEC                             A:04 X:69 Y:01 P:65 SP:69 PPU:187, 16
CDD4  B8        CLV                             A:04 X:69 Y:01 P:65 SP:69 PPU:193, 16
CDD5  A2 00     LDX                             A:04 X:69 Y:01 P:25 SP:69 PPU:199, 16
CDD7  BA        TSX                             A:04 X:00 Y:01 P:27 SP:69 PPU:205, 16
CDD8  F0 15     BEQ                             A:04 X:69 Y:01 P:25 SP:69 PPU:211, 16
CDDA  30 13     BMI                             A:04 X:69 Y:01 P:25 SP:69 PPU:217, 16
CDDC  90 11     BCC                             A:04 X:69 Y:01 P:25 SP:69 PPU:223, 16
CDDE  70 0F     BVS                             A:04 X:69 Y:01 P:25 SP:69 PPU:229, 16
CDE0  E0 69     CPX                             A:04 X:69 Y:01 P:25 SP:69 PPU:235, 16
CDE2  D0 0B     BNE                             A:04 X:69 Y:01 P:27 SP:69 PPU:241, 16
CDE4  C9 04     CMP                             A:04 X:69 Y:01 P:27 SP:69 PPU:247, 16
CDE6  D0 07     BNE                             A:04 X:69 Y:01 P:27 SP:69 PPU:253, 16
CDE8  C0 01     CPY                             A:04 X:69 Y:01 P:27 SP:69 PPU:259, 16
CDEA  D0 03     BNE                             A:04 X:69 Y:01 P:27 SP:69 PPU:265, 16
CDEC  4C F3 CD  JMP                             A:04 X:69 Y:01 P:27 SP:69 PPU:271, 16
CDF3  AE FF 07  LDX                             A:04 X:69 Y:01 P:27 SP:69 PPU:280, 16
CDF6  9A        TXS                             A:04 X:FB Y:01 P:A5 SP:69 PPU:292, 16
CDF7  60        RTS                             A:04 X:FB Y:01 P:A5 SP:FB PPU:298, 16
C609  20 F8 CD  JSR                             A:04 X:FB Y:01 P:A5 SP:FD PPU:316, 16
CDF8  A9 FF     LDA                             A:04 X:FB Y:01 P:A5 SP:FB PPU:334, 16
CDFA  85 01     STA                             A:FF X:FB Y:01 P:A5 SP:FB PPU:340, 16
CDFC  BA        TSX                             A:FF X:FB Y:01 P:A5 SP:FB PPU:  8, 17
CDFD  8E FF 07  STX                             A:FF X:FB Y:01 P:A5 SP:FB PPU: 14, 17
CE00  EA        NOP                             A:FF X:FB Y:01 P:A5 SP:FB PPU: 26, 17
CE01  A2 80     LDX                             A:FF X:FB Y:01 P:A5 SP:FB PPU: 32, 17
CE03  9A        TXS                             A:FF X:80 Y:01 P:A5 SP:FB PPU: 38, 17
CE04  A9 33     LDA                             A:FF X:80 Y:01 P:A5 SP:80 PPU: 44, 17
CE06  48        PHA                             A:33 X:80 Y:01 P:25 SP:80 PPU: 50, 17
CE07  A9 69     LDA                             A:33 X:80 Y:01 P:25 SP:7F PPU: 59, 17
CE09  48        PHA                             A:69 X:80 Y:01 P:25 SP:7F PPU: 65, 17
CE0A  BA        TSX                             A:69 X:80 Y:01 P:25 SP:7E PPU: 74, 17
CE0B  E0 7E     CPX                             A:69 X:7E Y:01 P:25 SP:7E PPU: 80, 17
CE0D  D0 20     BNE                             A:69 X:7E Y:01 P:27 SP:7E PPU: 86, 17
CE0F  68        PLA                             A:69 X:7E Y:01 P:27 SP:7E PPU: 92, 17
CE10  C9 69     CMP                             A:69 X:7E Y:01 P:25 SP:7F PPU:104, 17
CE12  D0 1B     BNE                             A:69 X:7E Y:01 P:27 SP:7F PPU:110, 17
CE14  68        PLA                             A:69 X:7E Y:01 P:27 SP:7F PPU:116, 17
CE15  C9 33     CMP                             A:33 X:7E Y:01 P:25 SP:80 PPU:128, 17
CE17  D0 16     BNE                             A:33 X:7E Y:01 P:27 SP:80 PPU:134, 17
CE19  BA        TSX                             A:33 X:7E Y:01 P:27 SP:80 PPU:140, 17
CE1A  E0 80     CPX                             A:33 X:80 Y:01 P:A5 SP:80 PPU:146, 17
CE1C  D0 11     BNE                             A:33 X:80 Y:01 P:27 SP:80 PPU:152, 17
CE1E  AD 80 01  LDA                             A:33 X:80 Y:01 P:27 SP:80 PPU:158, 17
CE21  C9 33     CMP                             A:33 X:80 Y:01 P:25 SP:80 PPU:170, 17
CE23  D0 0A     BNE                             A:33 X:80 Y:01 P:27 SP:80 PPU:176, 17
CE25  AD 7F 01  LDA                             A:33 X:80 Y:01 P:27 SP:80 PPU:182, 17
CE28  C9 69     CMP                             A:69 X:80 Y:01 P:25 SP:80 PPU:194, 17
CE2A  D0 03     BNE                             A:69 X:80 Y:01 P:27 SP:80 PPU:200, 17
CE2C  4C 33 CE  JMP                             A:69 X:80 Y:01 P:27 SP:80 PPU:206, 17
CE33  EA        NOP                             A:69 X:80 Y:01 P:27 SP:80 PPU:215, 17
CE34  A2 80     LDX                             A:69 X:80 Y:01 P:27 SP:80 PPU:221, 17
CE36  9A        TXS                             A:69 X:80 Y:01 P:A5 SP:80 PPU:227, 17
CE37  20 3D CE  JSR                             A:69 X:80 Y:01 P:A5 SP:80 PPU:233, 17
CE3D  BA        TSX                             A:69 X:80 Y:01 P:A5 SP:7E PPU:251, 17
CE3E  E0 7E     CPX                             A:69 X:7E Y:01 P:25 SP:7E PPU:257, 17
CE40  D0 19     BNE                             A:69 X:7E Y:01 P:27 SP:7E PPU:263, 17
CE42  68        PLA                             A:69 X:7E Y:01 P:27 SP:7E PPU:269, 17
CE43  68        PLA                             A:39 X:7E Y:01 P:25 SP:7F PPU:281, 17
CE44  BA        TSX                             A:CE X:7E Y:01 P:A5 SP:80 PPU:293, 17
CE45  E0 80     CPX                             A:CE X:80 Y:01 P:A5 SP:80 PPU:299, 17
CE47  D0 12     BNE                             A:CE X:80 Y:01 P:27 SP:80 PPU:305, 17
CE49  A9 00     LDA                             A:CE X:80 Y:01 P:27 SP:80 PPU:311, 17
CE4B  20 4E CE  JSR                             A:00 X:80 Y:01 P:27 SP:80 PPU:317, 17
CE4E  68        PLA                             A:00 X:80 Y:01 P:27 SP:7E PPU:335, 17
CE4F  C9 4D     CMP                             A:4D X:80 Y:01 P:25 SP:7F PPU:  6, 18
CE51  D0 08     BNE                             A:4D X:80 Y:01 P:27 SP:7F PPU: 12, 18
CE53  68        PLA                             A:4D X:80 Y:01 P:27 SP:7F PPU: 18, 18
CE54  C9 CE     CMP                             A:CE X:80 Y:01 P:A5 SP:80 PPU: 30, 18
CE56  D0 03     BNE                             A:CE X:80 Y:01 P:27 SP:80 PPU: 36, 18
CE58  4C 5F CE  JMP                             A:CE X:80 Y:01 P:27 SP:80 PPU: 42, 18
CE5F  EA        NOP                             A:CE X:80 Y:01 P:27 SP:80 PPU: 51, 18
CE60  A9 CE     LDA                             A:CE X:80 Y:01 P:27 SP:80 PPU: 57, 18
CE62  48        PHA                             A:CE X:80 Y:01 P:A5 SP:80 PPU: 63, 18
CE63  A9 66     LDA                             A:CE X:80 Y:01 P:A5 SP:7F PPU: 72, 18
CE65  48        PHA                             A:66 X:80 Y:01 P:25 SP:7F PPU: 78, 18
CE66  60        RTS                             A:66 X:80 Y:01 P:25 SP:7E PPU: 87, 18
CE67  A2 77     LDX                             A:66 X:80 Y:01 P:25 SP:80 PPU:105, 18
CE69  A0 69     LDY                             A:66 X:77 Y:01 P:25 SP:80 PPU:111, 18
CE6B  18        CLC                             A:66 X:77 Y:69 P:25 SP:80 PPU:117, 18
CE6C  24 01     BIT                             A:66 X:77 Y:69 P:24 SP:80 PPU:123, 18
CE6E  A9 83     LDA                             A:66 X:77 Y:69 P:E4 SP:80 PPU:132, 18
CE70  20 66 CE  JSR                             A:83 X:77 Y:69 P:E4 SP:80 PPU:138, 18
CE66  60        RTS                             A:83 X:77 Y:69 P:E4 SP:7E PPU:156, 18
CE73  F0 24     BEQ                             A:83 X:77 Y:69 P:E4 SP:80 PPU:174, 18
CE75  10 22     BPL                             A:83 X:77 Y:69 P:E4 SP:80 PPU:180, 18
CE77  B0 20     BCS                             A:83 X:77 Y:69 P:E4 SP:80 PPU:186, 18
CE79  50 1E     BVC                             A:83 X:77 Y:69 P:E4 SP:80 PPU:192, 18
CE7B  C9 83     CMP                             A:83 X:77 Y:69 P:E4 SP:80 PPU:198, 18
CE7D  D0 1A     BNE                             A:83 X:77 Y:69 P:67 SP:80 PPU:204, 18
CE7F  C0 69     CPY                             A:83 X:77 Y:69 P:67 SP:80 PPU:210, 18
CE81  D0 16     BNE                             A:83 X:77 Y:69 P:67 SP:80 PPU:216, 18
CE83  E0 77     CPX                             A:83 X:77 Y:69 P:67 SP:80 PPU:222, 18
CE85  D0 12     BNE                             A:83 X:77 Y:69 P:67 SP:80 PPU:228, 18
CE87  38        SEC                             A:83 X:77 Y:69 P:67 SP:80 PPU:234, 18
CE88  B8        CLV                             A:83 X:77 Y:69 P:67 SP:80 PPU:240, 18
CE89  A9 00     LDA                             A:83 X:77 Y:69 P:27 SP:80 PPU:246, 18
CE8B  20 66 CE  JSR                             A:00 X:77 Y:69 P:27 SP:80 PPU:252, 18
CE66  60        RTS                             A:00 X:77 Y:69 P:27 SP:7E PPU:270, 18
CE8E  D0 09     BNE                             A:00 X:77 Y:69 P:27 SP:80 PPU:288, 18
CE90  30 07     BMI                             A:00 X:77 Y:69 P:27 SP:80 PPU:294, 18
CE92  90 05     BCC                             A:00 X:77 Y:69 P:27 SP:80 PPU:300, 18
CE94  70 03     BVS                             A:00 X:77 Y:69 P:27 SP:80 PPU:306, 18
CE96  4C 9D CE  JMP                             A:00 X:77 Y:69 P:27 SP:80 PPU:312, 18
CE9D  EA        NOP                             A:00 X:77 Y:69 P:27 SP:80 PPU:321, 18
CE9E  A9 CE     LDA                             A:00 X:77 Y:69 P:27 SP:80 PPU:327, 18
CEA0  48        PHA                             A:CE X:77 Y:69 P:A5 SP:80 PPU:333, 18
CEA1  A9 AE     LDA                             A:CE X:77 Y:69 P:A5 SP:7F PPU:  1, 19
CEA3  48        PHA                             A:AE X:77 Y:69 P:A5 SP:7F PPU:  7, 19
CEA4  A9 65     LDA                             A:AE X:77 Y:69 P:A5 SP:7E PPU: 16, 19
CEA6  48        PHA                             A:65 X:77 Y:69 P:25 SP:7E PPU: 22, 19
CEA7  A9 55     LDA                             A:65 X:77 Y:69 P:25 SP:7D PPU: 31, 19
CEA9  A0 88     LDY                             A:55 X:77 Y:69 P:25 SP:7D PPU: 37, 19
CEAB  A2 99     LDX                             A:55 X:77 Y:88 P:A5 SP:7D PPU: 43, 19
CEAD  40        RTI                             A:55 X:99 Y:88 P:A5 SP:7D PPU: 49, 19
CEAE  30 35     BMI                             A:55 X:99 Y:88 P:65 SP:80 PPU: 67, 19
CEB0  50 33     BVC                             A:55 X:99 Y:88 P:65 SP:80 PPU: 73, 19
CEB2  F0 31     BEQ                             A:55 X:99 Y:88 P:65 SP:80 PPU: 79, 19
CEB4  90 2F     BCC                             A:55 X:99 Y:88 P:65 SP:80 PPU: 85, 19
CEB6  C9 55     CMP                             A:55 X:99 Y:88 P:65 SP:80 PPU: 91, 19
CEB8  D0 2B     BNE                             A:55 X:99 Y:88 P:67 SP:80 PPU: 97, 19
CEBA  C0 88     CPY                             A:55 X:99 Y:88 P:67 SP:80 PPU:103, 19
CEBC  D0 27     BNE                             A:55 X:99 Y:88 P:67 SP:80 PPU:109, 19
CEBE  E0 99     CPX                             A:55 X:99 Y:88 P:67 SP:80 PPU:115, 19
CEC0  D0 23     BNE                             A:55 X:99 Y:88 P:67 SP:80 PPU:121, 19
CEC2  A9 CE     LDA                             A:55 X:99 Y:88 P:67 SP:80 PPU:127, 19
CEC4  48        PHA                             A:CE X:99 Y:88 P:E5 SP:80 PPU:133, 19
CEC5  A9 CE     LDA                             A:CE X:99 Y:88 P:E5 SP:7F PPU:142, 19
CEC7  48        PHA                             A:CE X:99 Y:88 P:E5 SP:7F PPU:148, 19
CEC8  A9 87     LDA                             A:CE X:99 Y:88 P:E5 SP:7E PPU:157, 19
CECA  48        PHA                             A:87 X:99 Y:88 P:E5 SP:7E PPU:163, 19
CECB  A9 55     LDA                             A:87 X:99 Y:88 P:E5 SP:7D PPU:172, 19
CECD  40        RTI                             A:55 X:99 Y:88 P:65 SP:7D PPU:178, 19
CECE  10 15     BPL                             A:55 X:99 Y:88 P:A7 SP:80 PPU:196, 19
CED0  70 13     BVS                             A:55 X:99 Y:88 P:A7 SP:80 PPU:202, 19
CED2  D0 11     BNE                             A:55 X:99 Y:88 P:A7 SP:80 PPU:208, 19
CED4  90 0F     BCC                             A:55 X:99 Y:88 P:A7 SP:80 PPU:214, 19
CED6  C9 55     CMP                             A:55 X:99 Y:88 P:A7 SP:80 PPU:220, 19
CED8  D0 0B     BNE                             A:55 X:99 Y:88 P:27 SP:80 PPU:226, 19
CEDA  C0 88     CPY                             A:55 X:99 Y:88 P:27 SP:80 PPU:232, 19
CEDC  D0 07     BNE                             A:55 X:99 Y:88 P:27 SP:80 PPU:238, 19
CEDE  E0 99     CPX                             A:55 X:99 Y:88 P:27 SP:80 PPU:244, 19
CEE0  D0 03     BNE                             A:55 X:99 Y:88 P:27 SP:80 PPU:250, 19
CEE2  4C E9 CE  JMP                             A:55 X:99 Y:88 P:27 SP:80 PPU:256, 19
CEE9  AE FF 07  LDX                             A:55 X:99 Y:88 P:27 SP:80 PPU:265, 19
CEEC  9A        TXS                             A:55 X:FB Y:88 P:A5 SP:80 PPU:277, 19
CEED  60        RTS                             A:55 X:FB Y:88 P:A5 SP:FB PPU:283, 19
C60C  20 EE CE  JSR                             A:55 X:FB Y:88 P:A5 SP:FD PPU:301, 19
CEEE  A2 55     LDX                             A:55 X:FB Y:88 P:A5 SP:FB PPU:319, 19
CEF0  A0 69     LDY                             A:55 X:55 Y:88 P:25 SP:FB PPU:325, 19
CEF2  A9 FF     LDA                             A:55 X:55 Y:69 P:25 SP:FB PPU:331, 19
CEF4  85 01     STA                             A:FF X:55 Y:69 P:A5 SP:FB PPU:337, 19
CEF6  EA        NOP                             A:FF X:55 Y:69 P:A5 SP:FB PPU:  5, 20
CEF7  24 01     BIT                             A:FF X:55 Y:69 P:A5 SP:FB PPU: 11, 20
CEF9  38        SEC                             A:FF X:55 Y:69 P:E5 SP:FB PPU: 20, 20
CEFA  A9 01     LDA                             A:FF X:55 Y:69 P:E5 SP:FB PPU: 26, 20
CEFC  4A        LSR                             A:01 X:55 Y:69 P:65 SP:FB PPU: 32, 20
CEFD  90 1D     BCC                             A:00 X:55 Y:69 P:67 SP:FB PPU: 38, 20
CEFF  D0 1B     BNE                             A:00 X:55 Y:69 P:67 SP:FB PPU: 44, 20
CF01  30 19     BMI                             A:00 X:55 Y:69 P:67 SP:FB PPU: 50, 20
CF03  50 17     BVC                             A:00 X:55 Y:69 P:67 SP:FB PPU: 56, 20
CF05  C9 00     CMP                             A:00 X:55 Y:69 P:67 SP:FB PPU: 62, 20
CF07  D0 13     BNE                             A:00 X:55 Y:69 P:67 SP:FB PPU: 68, 20
CF09  B8        CLV                             A:00 X:55 Y:69 P:67 SP:FB PPU: 74, 20
CF0A  A9 AA     LDA                             A:00 X:55 Y:69 P:27 SP:FB PPU: 80, 20
CF0C  4A        LSR                             A:AA X:55 Y:69 P:A5 SP:FB PPU: 86, 20
CF0D  B0 0D     BCS                             A:55 X:55 Y:69 P:24 SP:FB PPU: 92, 20
CF0F  F0 0B     BEQ                             A:55 X:55 Y:69 P:24 SP:FB PPU: 98, 20
CF11  30 09     BMI                             A:55 X:55 Y:69 P:24 SP:FB PPU:104, 20
CF13  70 07     BVS                             A:55 X:55 Y:69 P:24 SP:FB PPU:110, 20
CF15  C9 55     CMP                             A:55 X:55 Y:69 P:24 SP:FB PPU:116, 20
CF17  D0 03     BNE                             A:55 X:55 Y:69 P:27 SP:FB PPU:122, 20
CF19  4C 20 CF  JMP                             A:55 X:55 Y:69 P:27 SP:FB PPU:128, 20
CF20  EA        NOP                             A:55 X:55 Y:69 P:27 SP:FB PPU:137, 20
CF21  24 01     BIT                             A:55 X:55 Y:69 P:27 SP:FB PPU:143, 20
CF23  38        SEC                             A:55 X:55 Y:69 P:E5 SP:FB PPU:152, 20
CF24  A9 80     LDA                             A:55 X:55 Y:69 P:E5 SP:FB PPU:158, 20
CF26  0A        ASL                             A:80 X:55 Y:69 P:E5 SP:FB PPU:164, 20
CF27  90 1E     BCC                             A:00 X:55 Y:69 P:67 SP:FB PPU:170, 20
CF29  D0 1C     BNE                             A:00 X:55 Y:69 P:67 SP:FB PPU:176, 20
CF2B  30 1A     BMI                             A:00 X:55 Y:69 P:67 SP:FB PPU:182, 20
CF2D  50 18     BVC                             A:00 X:55 Y:69 P:67 SP:FB PPU:188, 20
CF2F  C9 00     CMP                             A:00 X:55 Y:69 P:67 SP:FB PPU:194, 20
CF31  D0 14     BNE                             A:00 X:55 Y:69 P:67 SP:FB PPU:200, 20
CF33  B8        CLV                             A:00 X:55 Y:69 P:67 SP:FB PPU:206, 20
CF34  38        SEC                             A:00 X:55 Y:69 P:27 SP:FB PPU:212, 20
CF35  A9 55     LDA                             A:00 X:55 Y:69 P:27 SP:FB PPU:218, 20
CF37  0A        ASL                             A:55 X:55 Y:69 P:25 SP:FB PPU:224, 20
CF38  B0 0D     BCS                             A:AA X:55 Y:69 P:A4 SP:FB PPU:230, 20
CF3A  F0 0B     BEQ                             A:AA X:55 Y:69 P:A4 SP:FB PPU:236, 20
CF3C  10 09     BPL                             A:AA X:55 Y:69 P:A4 SP:FB PPU:242, 20
CF3E  70 07     BVS                             A:AA X:55 Y:69 P:A4 SP:FB PPU:248, 20
CF40  C9 AA     CMP                             A:AA X:55 Y:69 P:A4 SP:FB PPU:254, 20
CF42  D0 03     BNE                             A:AA X:55 Y:69 P:27 SP:FB PPU:260, 20
CF44  4C 4B CF  JMP                             A:AA X:55 Y:69 P:27 SP:FB PPU:266, 20
CF4B  EA        NOP                             A:AA X:55 Y:69 P:27 SP:FB PPU:275, 20
CF4C  24 01     BIT                             A:AA X:55 Y:69 P:27 SP:FB PPU:281, 20
CF4E  38        SEC                             A:AA X:55 Y:69 P:E5 SP:FB PPU:290, 20
CF4F  A9 01     LDA                             A:AA X:55 Y:69 P:E5 SP:FB PPU:296, 20
CF51  6A        ROR                             A:01 X:55 Y:69 P:65 SP:FB PPU:302, 20
CF52  90 1E     BCC                             A:80 X:55 Y:69 P:E5 SP:FB PPU:308, 20
CF54  F0 1C     BEQ                             A:80 X:55 Y:69 P:E5 SP:FB PPU:314, 20
CF56  10 1A     BPL                             A:80 X:55 Y:69 P:E5 SP:FB PPU:320, 20
CF58  50 18     BVC                             A:80 X:55 Y:69 P:E5 SP:FB PPU:326, 20
CF5A  C9 80     CMP                             A:80 X:55 Y:69 P:E5 SP:FB PPU:332, 20
CF5C  D0 14     BNE                             A:80 X:55 Y:69 P:67 SP:FB PPU:338, 20
CF5E  B8        CLV                             A:80 X:55 Y:69 P:67 SP:FB PPU:  3, 21
CF5F  18        CLC                             A:80 X:55 Y:69 P:27 SP:FB PPU:  9, 21
CF60  A9 55     LDA                             A:80 X:55 Y:69 P:26 SP:FB PPU: 15, 21
CF62  6A        ROR                             A:55 X:55 Y:69 P:24 SP:FB PPU: 21, 21
CF63  90 0D     BCC                             A:2A X:55 Y:69 P:25 SP:FB PPU: 27, 21
CF65  F0 0B     BEQ                             A:2A X:55 Y:69 P:25 SP:FB PPU: 33, 21
CF67  30 09     BMI                             A:2A X:55 Y:69 P:25 SP:FB PPU: 39, 21
CF69  70 07     BVS                             A:2A X:55 Y:69 P:25 SP:FB PPU: 45, 21
CF6B  C9 2A     CMP                             A:2A X:55 Y:69 P:25 SP:FB PPU: 51, 21
CF6D  D0 03     BNE                             A:2A X:55 Y:69 P:27 SP:FB PPU: 57, 21
CF6F  4C 76 CF  JMP                             A:2A X:55 Y:69 P:27 SP:FB PPU: 63, 21
CF76  EA        NOP                             A:2A X:55 Y:69 P:27 SP:FB PPU: 72, 21
CF77  24 01     BIT                             A:2A X:55 Y:69 P:27 SP:FB PPU: 78, 21
CF79  38        SEC                             A:2A X:55 Y:69 P:E5 SP:FB PPU: 87, 21
CF7A  A9 80     LDA                             A:2A X:55 Y:69 P:E5 SP:FB PPU: 93, 21
CF7C  2A        ROL                             A:80 X:55 Y:69 P:E5 SP:FB PPU: 99, 21
CF7D  90 1E     BCC                             A:01 X:55 Y:69 P:65 SP:FB PPU:105, 21
CF7F  F0 1C     BEQ                             A:01 X:55 Y:69 P:65 SP:FB PPU:111, 21
CF81  30 1A     BMI                             A:01 X:55 Y:69 P:65 SP:FB PPU:117, 21
CF83  50 18     BVC                             A:01 X:55 Y:69 P:65 SP:FB PPU:123, 21
CF85  C9 01     CMP                             A:01 X:55 Y:69 P:65 SP:FB PPU:129, 21
CF87  D0 14     BNE                             A:01 X:55 Y:69 P:67 SP:FB PPU:135, 21
CF89  B8        CLV                             A:01 X:55 Y:69 P:67 SP:FB PPU:141, 21
CF8A  18        CLC                             A:01 X:55 Y:69 P:27 SP:FB PPU:147, 21
CF8B  A9 55     LDA                             A:01 X:55 Y:69 P:26 SP:FB PPU:153, 21
CF8D  2A        ROL                             A:55 X:55 Y:69 P:24 SP:FB PPU:159, 21
CF8E  B0 0D     BCS                             A:AA X:55 Y:69 P:A4 SP:FB PPU:165, 21
CF90  F0 0B     BEQ                             A:AA X:55 Y:69 P:A4 SP:FB PPU:171, 21
CF92  10 09     BPL                             A:AA X:55 Y:69 P:A4 SP:FB PPU:177, 21
CF94  70 07     BVS                             A:AA X:55 Y:69 P:A4 SP:FB PPU:183, 21
CF96  C9 AA     CMP                             A:AA X:55 Y:69 P:A4 SP:FB PPU:189, 21
CF98  D0 03     BNE                             A:AA X:55 Y:69 P:27 SP:FB PPU:195, 21
CF9A  4C A1 CF  JMP                             A:AA X:55 Y:69 P:27 SP:FB PPU:201, 21
CFA1  60        RTS                             A:AA X:55 Y:69 P:27 SP:FB PPU:210, 21
C60F  20 A2 CF  JSR                             A:AA X:55 Y:69 P:27 SP:FD PPU:228, 21
CFA2  A5 00     LDA                             A:AA X:55 Y:69 P:27 SP:FB PPU:246, 21
CFA4  8D FF 07  STA                             A:00 X:55 Y:69 P:27 SP:FB PPU:255, 21
CFA7  A9 00     LDA                             A:00 X:55 Y:69 P:27 SP:FB PPU:267, 21
CFA9  85 80     STA                             A:00 X:55 Y:69 P:27 SP:FB PPU:273, 21
CFAB  A9 02     LDA                             A:00 X:55 Y:69 P:27 SP:FB PPU:282, 21
CFAD  85 81     STA                             A:02 X:55 Y:69 P:25 SP:FB PPU:288, 21
CFAF  A9 FF     LDA                             A:02 X:55 Y:69 P:25 SP:FB PPU:297, 21
CFB1  85 01     STA                             A:FF X:55 Y:69 P:A5 SP:FB PPU:303, 21
CFB3  A9 00     LDA                             A:FF X:55 Y:69 P:A5 SP:FB PPU:312, 21
CFB5  85 82     STA                             A:00 X:55 Y:69 P:27 SP:FB PPU:318, 21
CFB7  A9 03     LDA                             A:00 X:55 Y:69 P:27 SP:FB PPU:327, 21
CFB9  85 83     STA                             A:03 X:55 Y:69 P:25 SP:FB PPU:333, 21
CFBB  85 84     STA                             A:03 X:55 Y:69 P:25 SP:FB PPU:  1, 22
CFBD  A9 00     LDA                             A:03 X:55 Y:69 P:25 SP:FB PPU: 10, 22
CFBF  85 FF     STA                             A:00 X:55 Y:69 P:27 SP:FB PPU: 16, 22
CFC1  A9 04     LDA                             A:00 X:55 Y:69 P:27 SP:FB PPU: 25, 22
CFC3  85 00     STA                             A:04 X:55 Y:69 P:25 SP:FB PPU: 31, 22
CFC5  A9 5A     LDA                             A:04 X:55 Y:69 P:25 SP:FB PPU: 40, 22
CFC7  8D 00 02  STA                             A:5A X:55 Y:69 P:25 SP:FB PPU: 46, 22
CFCA  A9 5B     LDA                             A:5A X:55 Y:69 P:25 SP:FB PPU: 58, 22
CFCC  8D 00 03  STA                             A:5B X:55 Y:69 P:25 SP:FB PPU: 64, 22
CFCF  A9 5C     LDA                             A:5B X:55 Y:69 P:25 SP:FB PPU: 76, 22
CFD1  8D 03 03  STA                             A:5C X:55 Y:69 P:25 SP:FB PPU: 82, 22
CFD4  A9 5D     LDA                             A:5C X:55 Y:69 P:25 SP:FB PPU: 94, 22
CFD6  8D 00 04  STA                             A:5D X:55 Y:69 P:25 SP:FB PPU:100, 22
CFD9  A2 00     LDX                             A:5D X:55 Y:69 P:25 SP:FB PPU:112, 22
CFDB  A1 80     LDA                             A:5D X:00 Y:69 P:27 SP:FB PPU:118, 22
CFDD  C9 5A     CMP                             A:5A X:00 Y:69 P:25 SP:FB PPU:136, 22
CFDF  D0 1F     BNE                             A:5A X:00 Y:69 P:27 SP:FB PPU:142, 22
CFE1  E8        INX                             A:5A X:00 Y:69 P:27 SP:FB PPU:148, 22
CFE2  E8        INX                             A:5A X:01 Y:69 P:25 SP:FB PPU:154, 22
CFE3  A1 80     LDA                             A:5A X:02 Y:69 P:25 SP:FB PPU:160, 22
CFE5  C9 5B     CMP                             A:5B X:02 Y:69 P:25 SP:FB PPU:178, 22
CFE7  D0 17     BNE                             A:5B X:02 Y:69 P:27 SP:FB PPU:184, 22
CFE9  E8        INX                             A:5B X:02 Y:69 P:27 SP:FB PPU:190, 22
CFEA  A1 80     LDA                             A:5B X:03 Y:69 P:25 SP:FB PPU:196, 22
CFEC  C9 5C     CMP                             A:5C X:03 Y:69 P:25 SP:FB PPU:214, 22
CFEE  D0 10     BNE                             A:5C X:03 Y:69 P:27 SP:FB PPU:220, 22
CFF0  A2 00     LDX                             A:5C X:03 Y:69 P:27 SP:FB PPU:226, 22
CFF2  A1 FF     LDA                             A:5C X:00 Y:69 P:27 SP:FB PPU:232, 22
CFF4  C9 5D     CMP                             A:5D X:00 Y:69 P:25 SP:FB PPU:250, 22
CFF6  D0 08     BNE                             A:5D X:00 Y:69 P:27 SP:FB PPU:256, 22
CFF8  A2 81     LDX                             A:5D X:00 Y:69 P:27 SP:FB PPU:262, 22
CFFA  A1 FF     LDA                             A:5D X:81 Y:69 P:A5 SP:FB PPU:268, 22
CFFC  C9 5A     CMP                             A:5A X:81 Y:69 P:25 SP:FB PPU:286, 22
CFFE  F0 05     BEQ                             A:5A X:81 Y:69 P:27 SP:FB PPU:292, 22
D005  A9 AA     LDA                             A:5A X:81 Y:69 P:27 SP:FB PPU:301, 22
D007  A2 00     LDX                             A:AA X:81 Y:69 P:A5 SP:FB PPU:307, 22
D009  81 80     STA                             A:AA X:00 Y:69 P:27 SP:FB PPU:313, 22
D00B  E8        INX                             A:AA X:00 Y:69 P:27 SP:FB PPU:331, 22
D00C  E8        INX                             A:AA X:01 Y:69 P:25 SP:FB PPU:337, 22
D00D  A9 AB     LDA                             A:AA X:02 Y:69 P:25 SP:FB PPU:  2, 23
D00F  81 80     STA                             A:AB X:02 Y:69 P:A5 SP:FB PPU:  8, 23
D011  E8        INX                             A:AB X:02 Y:69 P:A5 SP:FB PPU: 26, 23
D012  A9 AC     LDA                             A:AB X:03 Y:69 P:25 SP:FB PPU: 32, 23
D014  81 80     STA                             A:AC X:03 Y:69 P:A5 SP:FB PPU: 38, 23
D016  A2 00     LDX                             A:AC X:03 Y:69 P:A5 SP:FB PPU: 56, 23
D018  A9 AD     LDA                             A:AC X:00 Y:69 P:27 SP:FB PPU: 62, 23
D01A  81 FF     STA                             A:AD X:00 Y:69 P:A5 SP:FB PPU: 68, 23
D01C  AD 00 02  LDA                             A:AD X:00 Y:69 P:A5 SP:FB PPU: 86, 23
D01F  C9 AA     CMP                             A:AA X:00 Y:69 P:A5 SP:FB PPU: 98, 23
D021  D0 15     BNE                             A:AA X:00 Y:69 P:27 SP:FB PPU:104, 23
D023  AD 00 03  LDA                             A:AA X:00 Y:69 P:27 SP:FB PPU:110, 23
D026  C9 AB     CMP                             A:AB X:00 Y:69 P:A5 SP:FB PPU:122, 23
D028  D0 0E     BNE                             A:AB X:00 Y:69 P:27 SP:FB PPU:128, 23
D02A  AD 03 03  LDA                             A:AB X:00 Y:69 P:27 SP:FB PPU:134, 23
D02D  C9 AC     CMP                             A:AC X:00 Y:69 P:A5 SP:FB PPU:146, 23
D02F  D0 07     BNE                             A:AC X:00 Y:69 P:27 SP:FB PPU:152, 23
D031  AD 00 04  LDA                             A:AC X:00 Y:69 P:27 SP:FB PPU:158, 23
D034  C9 AD     CMP                             A:AD X:00 Y:69 P:A5 SP:FB PPU:170, 23
D036  F0 05     BEQ                             A:AD X:00 Y:69 P:27 SP:FB PPU:176, 23
D03D  AD FF 07  LDA                             A:AD X:00 Y:69 P:27 SP:FB PPU:185, 23
D040  85 00     STA                             A:00 X:00 Y:69 P:27 SP:FB PPU:197, 23
D042  A9 00     LDA                             A:00 X:00 Y:69 P:27 SP:FB PPU:206, 23
D044  8D 00 03  STA                             A:00 X:00 Y:69 P:27 SP:FB PPU:212, 23
D047  A9 AA     LDA                             A:00 X:00 Y:69 P:27 SP:FB PPU:224, 23
D049  8D 00 02  STA                             A:AA X:00 Y:69 P:A5 SP:FB PPU:230, 23
D04C  A2 00     LDX                             A:AA X:00 Y:69 P:A5 SP:FB PPU:242, 23
D04E  A0 5A     LDY                             A:AA X:00 Y:69 P:27 SP:FB PPU:248, 23
D050  20 B6 F7  JSR                             A:AA X:00 Y:5A P:25 SP:FB PPU:254, 23
F7B6  18        CLC                             A:AA X:00 Y:5A P:25 SP:F9 PPU:272, 23
F7B7  A9 FF     LDA                             A:AA X:00 Y:5A P:24 SP:F9 PPU:278, 23
F7B9  85 01     STA                             A:FF X:00 Y:5A P:A4 SP:F9 PPU:284, 23
F7BB  24 01     BIT                             A:FF X:00 Y:5A P:A4 SP:F9 PPU:293, 23
F7BD  A9 55     LDA                             A:FF X:00 Y:5A P:E4 SP:F9 PPU:302, 23
F7BF  60        RTS                             A:55 X:00 Y:5A P:64 SP:F9 PPU:308, 23
D053  01 80     ORA                             A:55 X:00 Y:5A P:64 SP:FB PPU:326, 23
D055  20 C0 F7  JSR                             A:FF X:00 Y:5A P:E4 SP:FB PPU:  3, 24
F7C0  B0 09     BCS                             A:FF X:00 Y:5A P:E4 SP:F9 PPU: 21, 24
F7C2  10 07     BPL                             A:FF X:00 Y:5A P:E4 SP:F9 PPU: 27, 24
F7C4  C9 FF     CMP                             A:FF X:00 Y:5A P:E4 SP:F9 PPU: 33, 24
F7C6  D0 03     BNE                             A:FF X:00 Y:5A P:67 SP:F9 PPU: 39, 24
F7C8  50 01     BVC                             A:FF X:00 Y:5A P:67 SP:F9 PPU: 45, 24
F7CA  60        RTS                             A:FF X:00 Y:5A P:67 SP:F9 PPU: 51, 24
D058  C8        INY                             A:FF X:00 Y:5A P:67 SP:FB PPU: 69, 24
D059  20 CE F7  JSR                             A:FF X:00 Y:5B P:65 SP:FB PPU: 75, 24
F7CE  38        SEC                             A:FF X:00 Y:5B P:65 SP:F9 PPU: 93, 24
F7CF  B8        CLV                             A:FF X:00 Y:5B P:65 SP:F9 PPU: 99, 24
F7D0  A9 00     LDA                             A:FF X:00 Y:5B P:25 SP:F9 PPU:105, 24
F7D2  60        RTS                             A:00 X:00 Y:5B P:27 SP:F9 PPU:111, 24
D05C  01 82     ORA                             A:00 X:00 Y:5B P:27 SP:FB PPU:129, 24
D05E  20 D3 F7  JSR                             A:00 X:00 Y:5B P:27 SP:FB PPU:147, 24
F7D3  D0 07     BNE                             A:00 X:00 Y:5B P:27 SP:F9 PPU:165, 24
F7D5  70 05     BVS                             A:00 X:00 Y:5B P:27 SP:F9 PPU:171, 24
F7D7  90 03     BCC                             A:00 X:00 Y:5B P:27 SP:F9 PPU:177, 24
F7D9  30 01     BMI                             A:00 X:00 Y:5B P:27 SP:F9 PPU:183, 24
F7DB  60        RTS                             A:00 X:00 Y:5B P:27 SP:F9 PPU:189, 24
D061  C8        INY                             A:00 X:00 Y:5B P:27 SP:FB PPU:207, 24
D062  20 DF F7  JSR                             A:00 X:00 Y:5C P:25 SP:FB PPU:213, 24
F7DF  18        CLC                             A:00 X:00 Y:5C P:25 SP:F9 PPU:231, 24
F7E0  24 01     BIT                             A:00 X:00 Y:5C P:24 SP:F9 PPU:237, 24
F7E2  A9 55     LDA                             A:00 X:00 Y:5C P:E6 SP:F9 PPU:246, 24
F7E4  60        RTS                             A:55 X:00 Y:5C P:64 SP:F9 PPU:252, 24
D065  21 80     AND                             A:55 X:00 Y:5C P:64 SP:FB PPU:270, 24
D067  20 E5 F7  JSR                             A:00 X:00 Y:5C P:66 SP:FB PPU:288, 24
F7E5  D0 07     BNE                             A:00 X:00 Y:5C P:66 SP:F9 PPU:306, 24
F7E7  50 05     BVC                             A:00 X:00 Y:5C P:66 SP:F9 PPU:312, 24
F7E9  B0 03     BCS                             A:00 X:00 Y:5C P:66 SP:F9 PPU:318, 24
F7EB  30 01     BMI                             A:00 X:00 Y:5C P:66 SP:F9 PPU:324, 24
F7ED  60        RTS                             A:00 X:00 Y:5C P:66 SP:F9 PPU:330, 24
D06A  C8        INY                             A:00 X:00 Y:5C P:66 SP:FB PPU:  7, 25
D06B  A9 EF     LDA                             A:00 X:00 Y:5D P:64 SP:FB PPU: 13, 25
D06D  8D 00 03  STA                             A:EF X:00 Y:5D P:E4 SP:FB PPU: 19, 25
D070  20 F1 F7  JSR                             A:EF X:00 Y:5D P:E4 SP:FB PPU: 31, 25
F7F1  38        SEC                             A:EF X:00 Y:5D P:E4 SP:F9 PPU: 49, 25
F7F2  B8        CLV                             A:EF X:00 Y:5D P:E5 SP:F9 PPU: 55, 25
F7F3  A9 F8     LDA                             A:EF X:00 Y:5D P:A5 SP:F9 PPU: 61, 25
F7F5  60        RTS                             A:F8 X:00 Y:5D P:A5 SP:F9 PPU: 67, 25
D073  21 82     AND                             A:F8 X:00 Y:5D P:A5 SP:FB PPU: 85, 25
D075  20 F6 F7  JSR                             A:E8 X:00 Y:5D P:A5 SP:FB PPU:103, 25
F7F6  90 09     BCC                             A:E8 X:00 Y:5D P:A5 SP:F9 PPU:121, 25
F7F8  10 07     BPL                             A:E8 X:00 Y:5D P:A5 SP:F9 PPU:127, 25
F7FA  C9 E8     CMP                             A:E8 X:00 Y:5D P:A5 SP:F9 PPU:133, 25
F7FC  D0 03     BNE                             A:E8 X:00 Y:5D P:27 SP:F9 PPU:139, 25
F7FE  70 01     BVS                             A:E8 X:00 Y:5D P:27 SP:F9 PPU:145, 25
F800  60        RTS                             A:E8 X:00 Y:5D P:27 SP:F9 PPU:151, 25
D078  C8        INY                             A:E8 X:00 Y:5D P:27 SP:FB PPU:169, 25
D079  20 04 F8  JSR                             A:E8 X:00 Y:5E P:25 SP:FB PPU:175, 25
F804  18        CLC                             A:E8 X:00 Y:5E P:25 SP:F9 PPU:193, 25
F805  24 01     BIT                             A:E8 X:00 Y:5E P:24 SP:F9 PPU:199, 25
F807  A9 5F     LDA                             A:E8 X:00 Y:5E P:E4 SP:F9 PPU:208, 25
F809  60        RTS                             A:5F X:00 Y:5E P:64 SP:F9 PPU:214, 25
D07C  41 80     EOR                             A:5F X:00 Y:5E P:64 SP:FB PPU:232, 25
D07E  20 0A F8  JSR                             A:F5 X:00 Y:5E P:E4 SP:FB PPU:250, 25
F80A  B0 09     BCS                             A:F5 X:00 Y:5E P:E4 SP:F9 PPU:268, 25
F80C  10 07     BPL                             A:F5 X:00 Y:5E P:E4 SP:F9 PPU:274, 25
F80E  C9 F5     CMP                             A:F5 X:00 Y:5E P:E4 SP:F9 PPU:280, 25
F810  D0 03     BNE                             A:F5 X:00 Y:5E P:67 SP:F9 PPU:286, 25
F812  50 01     BVC                             A:F5 X:00 Y:5E P:67 SP:F9 PPU:292, 25
F814  60        RTS                             A:F5 X:00 Y:5E P:67 SP:F9 PPU:298, 25
D081  C8        INY                             A:F5 X:00 Y:5E P:67 SP:FB PPU:316, 25
D082  A9 70     LDA                             A:F5 X:00 Y:5F P:65 SP:FB PPU:322, 25
D084  8D 00 03  STA                             A:70 X:00 Y:5F P:65 SP:FB PPU:328, 25
D087  20 18 F8  JSR                             A:70 X:00 Y:5F P:65 SP:FB PPU:340, 25
F818  38        SEC                             A:70 X:00 Y:5F P:65 SP:F9 PPU: 17, 26
F819  B8        CLV                             A:70 X:00 Y:5F P:65 SP:F9 PPU: 23, 26
F81A  A9 70     LDA                             A:70 X:00 Y:5F P:25 SP:F9 PPU: 29, 26
F81C  60        RTS                             A:70 X:00 Y:5F P:25 SP:F9 PPU: 35, 26
D08A  41 82     EOR                             A:70 X:00 Y:5F P:25 SP:FB PPU: 53, 26
D08C  20 1D F8  JSR                             A:00 X:00 Y:5F P:27 SP:FB PPU: 71, 26
F81D  D0 07     BNE                             A:00 X:00 Y:5F P:27 SP:F9 PPU: 89, 26
F81F  70 05     BVS                             A:00 X:00 Y:5F P:27 SP:F9 PPU: 95, 26
F821  90 03     BCC                             A:00 X:00 Y:5F P:27 SP:F9 PPU:101, 26
F823  30 01     BMI                             A:00 X:00 Y:5F P:27 SP:F9 PPU:107, 26
F825  60        RTS                             A:00 X:00 Y:5F P:27 SP:F9 PPU:113, 26
D08F  C8        INY                             A:00 X:00 Y:5F P:27 SP:FB PPU:131, 26
D090  A9 69     LDA                             A:00 X:00 Y:60 P:25 SP:FB PPU:137, 26
D092  8D 00 02  STA                             A:69 X:00 Y:60 P:25 SP:FB PPU:143, 26
D095  20 29 F8  JSR                             A:69 X:00 Y:60 P:25 SP:FB PPU:155, 26
F829  18        CLC                             A:69 X:00 Y:60 P:25 SP:F9 PPU:173, 26
F82A  24 01     BIT                             A:69 X:00 Y:60 P:24 SP:F9 PPU:179, 26
F82C  A9 00     LDA                             A:69 X:00 Y:60 P:E4 SP:F9 PPU:188, 26
F82E  60        RTS                             A:00 X:00 Y:60 P:66 SP:F9 PPU:194, 26
D098  61 80     ADC                             A:00 X:00 Y:60 P:66 SP:FB PPU:212, 26
D09A  20 2F F8  JSR                             A:69 X:00 Y:60 P:24 SP:FB PPU:230, 26
F82F  30 09     BMI                             A:69 X:00 Y:60 P:24 SP:F9 PPU:248, 26
F831  B0 07     BCS                             A:69 X:00 Y:60 P:24 SP:F9 PPU:254, 26
F833  C9 69     CMP                             A:69 X:00 Y:60 P:24 SP:F9 PPU:260, 26
F835  D0 03     BNE                             A:69 X:00 Y:60 P:27 SP:F9 PPU:266, 26
F837  70 01     BVS                             A:69 X:00 Y:60 P:27 SP:F9 PPU:272, 26
F839  60        RTS                             A:69 X:00 Y:60 P:27 SP:F9 PPU:278, 26
D09D  C8        INY                             A:69 X:00 Y:60 P:27 SP:FB PPU:296, 26
D09E  20 3D F8  JSR                             A:69 X:00 Y:61 P:25 SP:FB PPU:302, 26
F83D  38        SEC                             A:69 X:00 Y:61 P:25 SP:F9 PPU:320, 26
F83E  24 01     BIT                             A:69 X:00 Y:61 P:25 SP:F9 PPU:326, 26
F840  A9 00     LDA                             A:69 X:00 Y:61 P:E5 SP:F9 PPU:335, 26
F842  60        RTS                             A:00 X:00 Y:61 P:67 SP:F9 PPU:  0, 27
D0A1  61 80     ADC                             A:00 X:00 Y:61 P:67 SP:FB PPU: 18, 27
D0A3  20 43 F8  JSR                             A:6A X:00 Y:61 P:24 SP:FB PPU: 36, 27
F843  30 09     BMI                             A:6A X:00 Y:61 P:24 SP:F9 PPU: 54, 27
F845  B0 07     BCS                             A:6A X:00 Y:61 P:24 SP:F9 PPU: 60, 27
F847  C9 6A     CMP                             A:6A X:00 Y:61 P:24 SP:F9 PPU: 66, 27
F849  D0 03     BNE                             A:6A X:00 Y:61 P:27 SP:F9 PPU: 72, 27
F84B  70 01     BVS                             A:6A X:00 Y:61 P:27 SP:F9 PPU: 78, 27
F84D  60        RTS                             A:6A X:00 Y:61 P:27 SP:F9 PPU: 84, 27
D0A6  C8        INY                             A:6A X:00 Y:61 P:27 SP:FB PPU:102, 27
D0A7  A9 7F     LDA                             A:6A X:00 Y:62 P:25 SP:FB PPU:108, 27
D0A9  8D 00 02  STA                             A:7F X:00 Y:62 P:25 SP:FB PPU:114, 27
D0AC  20 51 F8  JSR                             A:7F X:00 Y:62 P:25 SP:FB PPU:126, 27
F851  38        SEC                             A:7F X:00 Y:62 P:25 SP:F9 PPU:144, 27
F852  B8        CLV                             A:7F X:00 Y:62 P:25 SP:F9 PPU:150, 27
F853  A9 7F     LDA                             A:7F X:00 Y:62 P:25 SP:F9 PPU:156, 27
F855  60        RTS                             A:7F X:00 Y:62 P:25 SP:F9 PPU:162, 27
D0AF  61 80     ADC                             A:7F X:00 Y:62 P:25 SP:FB PPU:180, 27
D0B1  20 56 F8  JSR                             A:FF X:00 Y:62 P:E4 SP:FB PPU:198, 27
F856  10 09     BPL                             A:FF X:00 Y:62 P:E4 SP:F9 PPU:216, 27
F858  B0 07     BCS                             A:FF X:00 Y:62 P:E4 SP:F9 PPU:222, 27
F85A  C9 FF     CMP                             A:FF X:00 Y:62 P:E4 SP:F9 PPU:228, 27
F85C  D0 03     BNE                             A:FF X:00 Y:62 P:67 SP:F9 PPU:234, 27
F85E  50 01     BVC                             A:FF X:00 Y:62 P:67 SP:F9 PPU:240, 27
F860  60        RTS                             A:FF X:00 Y:62 P:67 SP:F9 PPU:246, 27
D0B4  C8        INY                             A:FF X:00 Y:62 P:67 SP:FB PPU:264, 27
D0B5  A9 80     LDA                             A:FF X:00 Y:63 P:65 SP:FB PPU:270, 27
D0B7  8D 00 02  STA                             A:80 X:00 Y:63 P:E5 SP:FB PPU:276, 27
D0BA  20 64 F8  JSR                             A:80 X:00 Y:63 P:E5 SP:FB PPU:288, 27
F864  18        CLC                             A:80 X:00 Y:63 P:E5 SP:F9 PPU:306, 27
F865  24 01     BIT                             A:80 X:00 Y:63 P:E4 SP:F9 PPU:312, 27
F867  A9 7F     LDA                             A:80 X:00 Y:63 P:E4 SP:F9 PPU:321, 27
F869  60        RTS                             A:7F X:00 Y:63 P:64 SP:F9 PPU:327, 27
D0BD  61 80     ADC                             A:7F X:00 Y:63 P:64 SP:FB PPU:  4, 28
D0BF  20 6A F8  JSR                             A:FF X:00 Y:63 P:A4 SP:FB PPU: 22, 28
F86A  10 09     BPL                             A:FF X:00 Y:63 P:A4 SP:F9 PPU: 40, 28
F86C  B0 07     BCS                             A:FF X:00 Y:63 P:A4 SP:F9 PPU: 46, 28
F86E  C9 FF     CMP                             A:FF X:00 Y:63 P:A4 SP:F9 PPU: 52, 28
F870  D0 03     BNE                             A:FF X:00 Y:63 P:27 SP:F9 PPU: 58, 28
F872  70 01     BVS                             A:FF X:00 Y:63 P:27 SP:F9 PPU: 64, 28
F874  60        RTS                             A:FF X:00 Y:63 P:27 SP:F9 PPU: 70, 28
D0C2  C8        INY                             A:FF X:00 Y:63 P:27 SP:FB PPU: 88, 28
D0C3  20 78 F8  JSR                             A:FF X:00 Y:64 P:25 SP:FB PPU: 94, 28
F878  38        SEC                             A:FF X:00 Y:64 P:25 SP:F9 PPU:112, 28
F879  B8        CLV                             A:FF X:00 Y:64 P:25 SP:F9 PPU:118, 28
F87A  A9 7F     LDA                             A:FF X:00 Y:64 P:25 SP:F9 PPU:124, 28
F87C  60        RTS                             A:7F X:00 Y:64 P:25 SP:F9 PPU:130, 28
D0C6  61 80     ADC                             A:7F X:00 Y:64 P:25 SP:FB PPU:148, 28
D0C8  20 7D F8  JSR                             A:00 X:00 Y:64 P:27 SP:FB PPU:166, 28
F87D  D0 07     BNE                             A:00 X:00 Y:64 P:27 SP:F9 PPU:184, 28
F87F  30 05     BMI                             A:00 X:00 Y:64 P:27 SP:F9 PPU:190, 28
F881  70 03     BVS                             A:00 X:00 Y:64 P:27 SP:F9 PPU:196, 28
F883  90 01     BCC                             A:00 X:00 Y:64 P:27 SP:F9 PPU:202, 28
F885  60        RTS                             A:00 X:00 Y:64 P:27 SP:F9 PPU:208, 28
D0CB  C8        INY                             A:00 X:00 Y:64 P:27 SP:FB PPU:226, 28
D0CC  A9 40     LDA                             A:00 X:00 Y:65 P:25 SP:FB PPU:232, 28
D0CE  8D 00 02  STA                             A:40 X:00 Y:65 P:25 SP:FB PPU:238, 28
D0D1  20 89 F8  JSR                             A:40 X:00 Y:65 P:25 SP:FB PPU:250, 28
F889  24 01     BIT                             A:40 X:00 Y:65 P:25 SP:F9 PPU:268, 28
F88B  A9 40     LDA                             A:40 X:00 Y:65 P:E5 SP:F9 PPU:277, 28
F88D  60        RTS                             A:40 X:00 Y:65 P:65 SP:F9 PPU:283, 28
D0D4  C1 80     CMP                             A:40 X:00 Y:65 P:65 SP:FB PPU:301, 28
D0D6  20 8E F8  JSR                             A:40 X:00 Y:65 P:67 SP:FB PPU:319, 28
F88E  30 07     BMI                             A:40 X:00 Y:65 P:67 SP:F9 PPU:337, 28
F890  90 05     BCC                             A:40 X:00 Y:65 P:67 SP:F9 PPU:  2, 29
F892  D0 03     BNE                             A:40 X:00 Y:65 P:67 SP:F9 PPU:  8, 29
F894  50 01     BVC                             A:40 X:00 Y:65 P:67 SP:F9 PPU: 14, 29
F896  60        RTS                             A:40 X:00 Y:65 P:67 SP:F9 PPU: 20, 29
D0D9  C8        INY                             A:40 X:00 Y:65 P:67 SP:FB PPU: 38, 29
D0DA  48        PHA                             A:40 X:00 Y:66 P:65 SP:FB PPU: 44, 29
D0DB  A9 3F     LDA                             A:40 X:00 Y:66 P:65 SP:FA PPU: 53, 29
D0DD  8D 00 02  STA                             A:3F X:00 Y:66 P:65 SP:FA PPU: 59, 29
D0E0  68        PLA                             A:3F X:00 Y:66 P:65 SP:FA PPU: 71, 29
D0E1  20 9A F8  JSR                             A:40 X:00 Y:66 P:65 SP:FB PPU: 83, 29
F89A  B8        CLV                             A:40 X:00 Y:66 P:65 SP:F9 PPU:101, 29
F89B  60        RTS                             A:40 X:00 Y:66 P:25 SP:F9 PPU:107, 29
D0E4  C1 80     CMP                             A:40 X:00 Y:66 P:25 SP:FB PPU:125, 29
D0E6  20 9C F8  JSR                             A:40 X:00 Y:66 P:25 SP:FB PPU:143, 29
F89C  F0 07     BEQ                             A:40 X:00 Y:66 P:25 SP:F9 PPU:161, 29
F89E  30 05     BMI                             A:40 X:00 Y:66 P:25 SP:F9 PPU:167, 29
F8A0  90 03     BCC                             A:40 X:00 Y:66 P:25 SP:F9 PPU:173, 29
F8A2  70 01     BVS                             A:40 X:00 Y:66 P:25 SP:F9 PPU:179, 29
F8A4  60        RTS                             A:40 X:00 Y:66 P:25 SP:F9 PPU:185, 29
D0E9  C8        INY                             A:40 X:00 Y:66 P:25 SP:FB PPU:203, 29
D0EA  48        PHA                             A:40 X:00 Y:67 P:25 SP:FB PPU:209, 29
D0EB  A9 41     LDA                             A:40 X:00 Y:67 P:25 SP:FA PPU:218, 29
D0ED  8D 00 02  STA                             A:41 X:00 Y:67 P:25 SP:FA PPU:224, 29
D0F0  68        PLA                             A:41 X:00 Y:67 P:25 SP:FA PPU:236, 29
D0F1  C1 80     CMP                             A:40 X:00 Y:67 P:25 SP:FB PPU:248, 29
D0F3  20 A8 F8  JSR                             A:40 X:00 Y:67 P:A4 SP:FB PPU:266, 29
F8A8  F0 05     BEQ                             A:40 X:00 Y:67 P:A4 SP:F9 PPU:284, 29
F8AA  10 03     BPL                             A:40 X:00 Y:67 P:A4 SP:F9 PPU:290, 29
F8AC  10 01     BPL                             A:40 X:00 Y:67 P:A4 SP:F9 PPU:296, 29
F8AE  60        RTS                             A:40 X:00 Y:67 P:A4 SP:F9 PPU:302, 29
D0F6  C8        INY                             A:40 X:00 Y:67 P:A4 SP:FB PPU:320, 29
D0F7  48        PHA                             A:40 X:00 Y:68 P:24 SP:FB PPU:326, 29
D0F8  A9 00     LDA                             A:40 X:00 Y:68 P:24 SP:FA PPU:335, 29
D0FA  8D 00 02  STA                             A:00 X:00 Y:68 P:26 SP:FA PPU:  0, 30
D0FD  68        PLA                             A:00 X:00 Y:68 P:26 SP:FA PPU: 12, 30
D0FE  20 B2 F8  JSR                             A:40 X:00 Y:68 P:24 SP:FB PPU: 24, 30
F8B2  A9 80     LDA                             A:40 X:00 Y:68 P:24 SP:F9 PPU: 42, 30
F8B4  60        RTS                             A:80 X:00 Y:68 P:A4 SP:F9 PPU: 48, 30
D101  C1 80     CMP                             A:80 X:00 Y:68 P:A4 SP:FB PPU: 66, 30
D103  20 B5 F8  JSR                             A:80 X:00 Y:68 P:A5 SP:FB PPU: 84, 30
F8B5  F0 05     BEQ                             A:80 X:00 Y:68 P:A5 SP:F9 PPU:102, 30
F8B7  10 03     BPL                             A:80 X:00 Y:68 P:A5 SP:F9 PPU:108, 30
F8B9  90 01     BCC                             A:80 X:00 Y:68 P:A5 SP:F9 PPU:114, 30
F8BB  60        RTS                             A:80 X:00 Y:68 P:A5 SP:F9 PPU:120, 30
D106  C8        INY                             A:80 X:00 Y:68 P:A5 SP:FB PPU:138, 30
D107  48        PHA                             A:80 X:00 Y:69 P:25 SP:FB PPU:144, 30
D108  A9 80     LDA                             A:80 X:00 Y:69 P:25 SP:FA PPU:153, 30
D10A  8D 00 02  STA                             A:80 X:00 Y:69 P:A5 SP:FA PPU:159, 30
D10D  68        PLA                             A:80 X:00 Y:69 P:A5 SP:FA PPU:171, 30
D10E  C1 80     CMP                             A:80 X:00 Y:69 P:A5 SP:FB PPU:183, 30
D110  20 BF F8  JSR                             A:80 X:00 Y:69 P:27 SP:FB PPU:201, 30
F8BF  D0 05     BNE                             A:80 X:00 Y:69 P:27 SP:F9 PPU:219, 30
F8C1  30 03     BMI                             A:80 X:00 Y:69 P:27 SP:F9 PPU:225, 30
F8C3  90 01     BCC                             A:80 X:00 Y:69 P:27 SP:F9 PPU:231, 30
F8C5  60        RTS                             A:80 X:00 Y:69 P:27 SP:F9 PPU:237, 30
D113  C8        INY                             A:80 X:00 Y:69 P:27 SP:FB PPU:255, 30
D114  48        PHA                             A:80 X:00 Y:6A P:25 SP:FB PPU:261, 30
D115  A9 81     LDA                             A:80 X:00 Y:6A P:25 SP:FA PPU:270, 30
D117  8D 00 02  STA                             A:81 X:00 Y:6A P:A5 SP:FA PPU:276, 30
D11A  68        PLA                             A:81 X:00 Y:6A P:A5 SP:FA PPU:288, 30
D11B  C1 80     CMP                             A:80 X:00 Y:6A P:A5 SP:FB PPU:300, 30
D11D  20 C9 F8  JSR                             A:80 X:00 Y:6A P:A4 SP:FB PPU:318, 30
F8C9  B0 05     BCS                             A:80 X:00 Y:6A P:A4 SP:F9 PPU:336, 30
F8CB  F0 03     BEQ                             A:80 X:00 Y:6A P:A4 SP:F9 PPU:  1, 31
F8CD  10 01     BPL                             A:80 X:00 Y:6A P:A4 SP:F9 PPU:  7, 31
F8CF  60        RTS                             A:80 X:00 Y:6A P:A4 SP:F9 PPU: 13, 31
D120  C8        INY                             A:80 X:00 Y:6A P:A4 SP:FB PPU: 31, 31
D121  48        PHA                             A:80 X:00 Y:6B P:24 SP:FB PPU: 37, 31
D122  A9 7F     LDA                             A:80 X:00 Y:6B P:24 SP:FA PPU: 46, 31
D124  8D 00 02  STA                             A:7F X:00 Y:6B P:24 SP:FA PPU: 52, 31
D127  68        PLA                             A:7F X:00 Y:6B P:24 SP:FA PPU: 64, 31
D128  C1 80     CMP                             A:80 X:00 Y:6B P:A4 SP:FB PPU: 76, 31
D12A  20 D3 F8  JSR                             A:80 X:00 Y:6B P:25 SP:FB PPU: 94, 31
F8D3  90 05     BCC                             A:80 X:00 Y:6B P:25 SP:F9 PPU:112, 31
F8D5  F0 03     BEQ                             A:80 X:00 Y:6B P:25 SP:F9 PPU:118, 31
F8D7  30 01     BMI                             A:80 X:00 Y:6B P:25 SP:F9 PPU:124, 31
F8D9  60        RTS                             A:80 X:00 Y:6B P:25 SP:F9 PPU:130, 31
D12D  C8        INY                             A:80 X:00 Y:6B P:25 SP:FB PPU:148, 31
D12E  A9 40     LDA                             A:80 X:00 Y:6C P:25 SP:FB PPU:154, 31
D130  8D 00 02  STA                             A:40 X:00 Y:6C P:25 SP:FB PPU:160, 31
D133  20 31 F9  JSR                             A:40 X:00 Y:6C P:25 SP:FB PPU:172, 31
F931  24 01     BIT                             A:40 X:00 Y:6C P:25 SP:F9 PPU:190, 31
F933  A9 40     LDA                             A:40 X:00 Y:6C P:E5 SP:F9 PPU:199, 31
F935  38        SEC                             A:40 X:00 Y:6C P:65 SP:F9 PPU:205, 31
F936  60        RTS                             A:40 X:00 Y:6C P:65 SP:F9 PPU:211, 31
D136  E1 80     SBC                             A:40 X:00 Y:6C P:65 SP:FB PPU:229, 31
D138  20 37 F9  JSR                             A:00 X:00 Y:6C P:27 SP:FB PPU:247, 31
F937  30 0B     BMI                             A:00 X:00 Y:6C P:27 SP:F9 PPU:265, 31
F939  90 09     BCC                             A:00 X:00 Y:6C P:27 SP:F9 PPU:271, 31
F93B  D0 07     BNE                             A:00 X:00 Y:6C P:27 SP:F9 PPU:277, 31
F93D  70 05     BVS                             A:00 X:00 Y:6C P:27 SP:F9 PPU:283, 31
F93F  C9 00     CMP                             A:00 X:00 Y:6C P:27 SP:F9 PPU:289, 31
F941  D0 01     BNE                             A:00 X:00 Y:6C P:27 SP:F9 PPU:295, 31
F943  60        RTS                             A:00 X:00 Y:6C P:27 SP:F9 PPU:301, 31
D13B  C8        INY                             A:00 X:00 Y:6C P:27 SP:FB PPU:319, 31
D13C  A9 3F     LDA                             A:00 X:00 Y:6D P:25 SP:FB PPU:325, 31
D13E  8D 00 02  STA                             A:3F X:00 Y:6D P:25 SP:FB PPU:331, 31
D141  20 47 F9  JSR                             A:3F X:00 Y:6D P:25 SP:FB PPU:  2, 32
F947  B8        CLV                             A:3F X:00 Y:6D P:25 SP:F9 PPU: 20, 32
F948  38        SEC                             A:3F X:00 Y:6D P:25 SP:F9 PPU: 26, 32
F949  A9 40     LDA                             A:3F X:00 Y:6D P:25 SP:F9 PPU: 32, 32
F94B  60        RTS                             A:40 X:00 Y:6D P:25 SP:F9 PPU: 38, 32
D144  E1 80     SBC                             A:40 X:00 Y:6D P:25 SP:FB PPU: 56, 32
D146  20 4C F9  JSR                             A:01 X:00 Y:6D P:25 SP:FB PPU: 74, 32
F94C  F0 0B     BEQ                             A:01 X:00 Y:6D P:25 SP:F9 PPU: 92, 32
F94E  30 09     BMI                             A:01 X:00 Y:6D P:25 SP:F9 PPU: 98, 32
F950  90 07     BCC                             A:01 X:00 Y:6D P:25 SP:F9 PPU:104, 32
F952  70 05     BVS                             A:01 X:00 Y:6D P:25 SP:F9 PPU:110, 32
F954  C9 01     CMP                             A:01 X:00 Y:6D P:25 SP:F9 PPU:116, 32
F956  D0 01     BNE                             A:01 X:00 Y:6D P:27 SP:F9 PPU:122, 32
F958  60        RTS                             A:01 X:00 Y:6D P:27 SP:F9 PPU:128, 32
D149  C8        INY                             A:01 X:00 Y:6D P:27 SP:FB PPU:146, 32
D14A  A9 41     LDA                             A:01 X:00 Y:6E P:25 SP:FB PPU:152, 32
D14C  8D 00 02  STA                             A:41 X:00 Y:6E P:25 SP:FB PPU:158, 32
D14F  20 5C F9  JSR                             A:41 X:00 Y:6E P:25 SP:FB PPU:170, 32
F95C  A9 40     LDA                             A:41 X:00 Y:6E P:25 SP:F9 PPU:188, 32
F95E  38        SEC                             A:40 X:00 Y:6E P:25 SP:F9 PPU:194, 32
F95F  24 01     BIT                             A:40 X:00 Y:6E P:25 SP:F9 PPU:200, 32
F961  60        RTS                             A:40 X:00 Y:6E P:E5 SP:F9 PPU:209, 32
D152  E1 80     SBC                             A:40 X:00 Y:6E P:E5 SP:FB PPU:227, 32
D154  20 62 F9  JSR                             A:FF X:00 Y:6E P:A4 SP:FB PPU:245, 32
F962  B0 0B     BCS                             A:FF X:00 Y:6E P:A4 SP:F9 PPU:263, 32
F964  F0 09     BEQ                             A:FF X:00 Y:6E P:A4 SP:F9 PPU:269, 32
F966  10 07     BPL                             A:FF X:00 Y:6E P:A4 SP:F9 PPU:275, 32
F968  70 05     BVS                             A:FF X:00 Y:6E P:A4 SP:F9 PPU:281, 32
F96A  C9 FF     CMP                             A:FF X:00 Y:6E P:A4 SP:F9 PPU:287, 32
F96C  D0 01     BNE                             A:FF X:00 Y:6E P:27 SP:F9 PPU:293, 32
F96E  60        RTS                             A:FF X:00 Y:6E P:27 SP:F9 PPU:299, 32
D157  C8        INY                             A:FF X:00 Y:6E P:27 SP:FB PPU:317, 32
D158  A9 00     LDA                             A:FF X:00 Y:6F P:25 SP:FB PPU:323, 32
D15A  8D 00 02  STA                             A:00 X:00 Y:6F P:27 SP:FB PPU:329, 32
D15D  20 72 F9  JSR                             A:00 X:00 Y:6F P:27 SP:FB PPU:  0, 33
F972  18        CLC                             A:00 X:00 Y:6F P:27 SP:F9 PPU: 18, 33
F973  A9 80     LDA                             A:00 X:00 Y:6F P:26 SP:F9 PPU: 24, 33
F975  60        RTS                             A:80 X:00 Y:6F P:A4 SP:F9 PPU: 30, 33
D160  E1 80     SBC                             A:80 X:00 Y:6F P:A4 SP:FB PPU: 48, 33
D162  20 76 F9  JSR                             A:7F X:00 Y:6F P:65 SP:FB PPU: 66, 33
F976  90 05     BCC                             A:7F X:00 Y:6F P:65 SP:F9 PPU: 84, 33
F978  C9 7F     CMP                             A:7F X:00 Y:6F P:65 SP:F9 PPU: 90, 33
F97A  D0 01     BNE                             A:7F X:00 Y:6F P:67 SP:F9 PPU: 96, 33
F97C  60        RTS                             A:7F X:00 Y:6F P:67 SP:F9 PPU:102, 33
D165  C8        INY                             A:7F X:00 Y:6F P:67 SP:FB PPU:120, 33
D166  A9 7F     LDA                             A:7F X:00 Y:70 P:65 SP:FB PPU:126, 33
D168  8D 00 02  STA                             A:7F X:00 Y:70 P:65 SP:FB PPU:132, 33
D16B  20 80 F9  JSR                             A:7F X:00 Y:70 P:65 SP:FB PPU:144, 33
F980  38        SEC                             A:7F X:00 Y:70 P:65 SP:F9 PPU:162, 33
F981  A9 81     LDA                             A:7F X:00 Y:70 P:65 SP:F9 PPU:168, 33
F983  60        RTS                             A:81 X:00 Y:70 P:E5 SP:F9 PPU:174, 33
D16E  E1 80     SBC                             A:81 X:00 Y:70 P:E5 SP:FB PPU:192, 33
D170  20 84 F9  JSR                             A:02 X:00 Y:70 P:65 SP:FB PPU:210, 33
F984  50 07     BVC                             A:02 X:00 Y:70 P:65 SP:F9 PPU:228, 33
F986  90 05     BCC                             A:02 X:00 Y:70 P:65 SP:F9 PPU:234, 33
F988  C9 02     CMP                             A:02 X:00 Y:70 P:65 SP:F9 PPU:240, 33
F98A  D0 01     BNE                             A:02 X:00 Y:70 P:67 SP:F9 PPU:246, 33
F98C  60        RTS                             A:02 X:00 Y:70 P:67 SP:F9 PPU:252, 33
D173  60        RTS                             A:02 X:00 Y:70 P:67 SP:FB PPU:270, 33
C612  20 74 D1  JSR                             A:02 X:00 Y:70 P:67 SP:FD PPU:288, 33
D174  A9 55     LDA                             A:02 X:00 Y:70 P:67 SP:FB PPU:306, 33
D176  85 78     STA                             A:55 X:00 Y:70 P:65 SP:FB PPU:312, 33
D178  A9 FF     LDA                             A:55 X:00 Y:70 P:65 SP:FB PPU:321, 33
D17A  85 01     STA                             A:FF X:00 Y:70 P:E5 SP:FB PPU:327, 33
D17C  24 01     BIT                             A:FF X:00 Y:70 P:E5 SP:FB PPU:336, 33
D17E  A0 11     LDY                             A:FF X:00 Y:70 P:E5 SP:FB PPU:  4, 34
D180  A2 23     LDX                             A:FF X:00 Y:11 P:65 SP:FB PPU: 10, 34
D182  A9 00     LDA                             A:FF X:23 Y:11 P:65 SP:FB PPU: 16, 34
D184  A5 78     LDA                             A:00 X:23 Y:11 P:67 SP:FB PPU: 22, 34
D186  F0 10     BEQ                             A:55 X:23 Y:11 P:65 SP:FB PPU: 31, 34
D188  30 0E     BMI                             A:55 X:23 Y:11 P:65 SP:FB PPU: 37, 34
D18A  C9 55     CMP                             A:55 X:23 Y:11 P:65 SP:FB PPU: 43, 34
D18C  D0 0A     BNE                             A:55 X:23 Y:11 P:67 SP:FB PPU: 49, 34
D18E  C0 11     CPY                             A:55 X:23 Y:11 P:67 SP:FB PPU: 55, 34
D190  D0 06     BNE                             A:55 X:23 Y:11 P:67 SP:FB PPU: 61, 34
D192  E0 23     CPX                             A:55 X:23 Y:11 P:67 SP:FB PPU: 67, 34
D194  50 02     BVC                             A:55 X:23 Y:11 P:67 SP:FB PPU: 73, 34
D196  F0 04     BEQ                             A:55 X:23 Y:11 P:67 SP:FB PPU: 79, 34
D19C  A9 46     LDA                             A:55 X:23 Y:11 P:67 SP:FB PPU: 88, 34
D19E  24 01     BIT                             A:46 X:23 Y:11 P:65 SP:FB PPU: 94, 34
D1A0  85 78     STA                             A:46 X:23 Y:11 P:E5 SP:FB PPU:103, 34
D1A2  F0 0A     BEQ                             A:46 X:23 Y:11 P:E5 SP:FB PPU:112, 34
D1A4  10 08     BPL                             A:46 X:23 Y:11 P:E5 SP:FB PPU:118, 34
D1A6  50 06     BVC                             A:46 X:23 Y:11 P:E5 SP:FB PPU:124, 34
D1A8  A5 78     LDA                             A:46 X:23 Y:11 P:E5 SP:FB PPU:130, 34
D1AA  C9 46     CMP                             A:46 X:23 Y:11 P:65 SP:FB PPU:139, 34
D1AC  F0 04     BEQ                             A:46 X:23 Y:11 P:67 SP:FB PPU:145, 34
D1B2  A9 55     LDA                             A:46 X:23 Y:11 P:67 SP:FB PPU:154, 34
D1B4  85 78     STA                             A:55 X:23 Y:11 P:65 SP:FB PPU:160, 34
D1B6  24 01     BIT                             A:55 X:23 Y:11 P:65 SP:FB PPU:169, 34
D1B8  A9 11     LDA                             A:55 X:23 Y:11 P:E5 SP:FB PPU:178, 34
D1BA  A2 23     LDX                             A:11 X:23 Y:11 P:65 SP:FB PPU:184, 34
D1BC  A0 00     LDY                             A:11 X:23 Y:11 P:65 SP:FB PPU:190, 34
D1BE  A4 78     LDY                             A:11 X:23 Y:00 P:67 SP:FB PPU:196, 34
D1C0  F0 10     BEQ                             A:11 X:23 Y:55 P:65 SP:FB PPU:205, 34
D1C2  30 0E     BMI                             A:11 X:23 Y:55 P:65 SP:FB PPU:211, 34
D1C4  C0 55     CPY                             A:11 X:23 Y:55 P:65 SP:FB PPU:217, 34
D1C6  D0 0A     BNE                             A:11 X:23 Y:55 P:67 SP:FB PPU:223, 34
D1C8  C9 11     CMP                             A:11 X:23 Y:55 P:67 SP:FB PPU:229, 34
D1CA  D0 06     BNE                             A:11 X:23 Y:55 P:67 SP:FB PPU:235, 34
D1CC  E0 23     CPX                             A:11 X:23 Y:55 P:67 SP:FB PPU:241, 34
D1CE  50 02     BVC                             A:11 X:23 Y:55 P:67 SP:FB PPU:247, 34
D1D0  F0 04     BEQ                             A:11 X:23 Y:55 P:67 SP:FB PPU:253, 34
D1D6  A0 46     LDY                             A:11 X:23 Y:55 P:67 SP:FB PPU:262, 34
D1D8  24 01     BIT                             A:11 X:23 Y:46 P:65 SP:FB PPU:268, 34
D1DA  84 78     STY                             A:11 X:23 Y:46 P:E5 SP:FB PPU:277, 34
D1DC  F0 0A     BEQ                             A:11 X:23 Y:46 P:E5 SP:FB PPU:286, 34
D1DE  10 08     BPL                             A:11 X:23 Y:46 P:E5 SP:FB PPU:292, 34
D1E0  50 06     BVC                             A:11 X:23 Y:46 P:E5 SP:FB PPU:298, 34
D1E2  A4 78     LDY                             A:11 X:23 Y:46 P:E5 SP:FB PPU:304, 34
D1E4  C0 46     CPY                             A:11 X:23 Y:46 P:65 SP:FB PPU:313, 34
D1E6  F0 04     BEQ                             A:11 X:23 Y:46 P:67 SP:FB PPU:319, 34
D1EC  24 01     BIT                             A:11 X:23 Y:46 P:67 SP:FB PPU:328, 34
D1EE  A9 55     LDA                             A:11 X:23 Y:46 P:E5 SP:FB PPU:337, 34
D1F0  85 78     STA                             A:55 X:23 Y:46 P:65 SP:FB PPU:  2, 35
D1F2  A0 11     LDY                             A:55 X:23 Y:46 P:65 SP:FB PPU: 11, 35
D1F4  A9 23     LDA                             A:55 X:23 Y:11 P:65 SP:FB PPU: 17, 35
D1F6  A2 00     LDX                             A:23 X:23 Y:11 P:65 SP:FB PPU: 23, 35
D1F8  A6 78     LDX                             A:23 X:00 Y:11 P:67 SP:FB PPU: 29, 35
D1FA  F0 10     BEQ                             A:23 X:55 Y:11 P:65 SP:FB PPU: 38, 35
D1FC  30 0E     BMI                             A:23 X:55 Y:11 P:65 SP:FB PPU: 44, 35
D1FE  E0 55     CPX                             A:23 X:55 Y:11 P:65 SP:FB PPU: 50, 35
D200  D0 0A     BNE                             A:23 X:55 Y:11 P:67 SP:FB PPU: 56, 35
D202  C0 11     CPY                             A:23 X:55 Y:11 P:67 SP:FB PPU: 62, 35
D204  D0 06     BNE                             A:23 X:55 Y:11 P:67 SP:FB PPU: 68, 35
D206  C9 23     CMP                             A:23 X:55 Y:11 P:67 SP:FB PPU: 74, 35
D208  50 02     BVC                             A:23 X:55 Y:11 P:67 SP:FB PPU: 80, 35
D20A  F0 04     BEQ                             A:23 X:55 Y:11 P:67 SP:FB PPU: 86, 35
D210  A2 46     LDX                             A:23 X:55 Y:11 P:67 SP:FB PPU: 95, 35
D212  24 01     BIT                             A:23 X:46 Y:11 P:65 SP:FB PPU:101, 35
D214  86 78     STX                             A:23 X:46 Y:11 P:E5 SP:FB PPU:110, 35
D216  F0 0A     BEQ                             A:23 X:46 Y:11 P:E5 SP:FB PPU:119, 35
D218  10 08     BPL                             A:23 X:46 Y:11 P:E5 SP:FB PPU:125, 35
D21A  50 06     BVC                             A:23 X:46 Y:11 P:E5 SP:FB PPU:131, 35
D21C  A6 78     LDX                             A:23 X:46 Y:11 P:E5 SP:FB PPU:137, 35
D21E  E0 46     CPX                             A:23 X:46 Y:11 P:65 SP:FB PPU:146, 35
D220  F0 04     BEQ                             A:23 X:46 Y:11 P:67 SP:FB PPU:152, 35
D226  A9 C0     LDA                             A:23 X:46 Y:11 P:67 SP:FB PPU:161, 35
D228  85 78     STA                             A:C0 X:46 Y:11 P:E5 SP:FB PPU:167, 35
D22A  A2 33     LDX                             A:C0 X:46 Y:11 P:E5 SP:FB PPU:176, 35
D22C  A0 88     LDY                             A:C0 X:33 Y:11 P:65 SP:FB PPU:182, 35
D22E  A9 05     LDA                             A:C0 X:33 Y:88 P:E5 SP:FB PPU:188, 35
D230  24 78     BIT                             A:05 X:33 Y:88 P:65 SP:FB PPU:194, 35
D232  10 10     BPL                             A:05 X:33 Y:88 P:E7 SP:FB PPU:203, 35
D234  50 0E     BVC                             A:05 X:33 Y:88 P:E7 SP:FB PPU:209, 35
D236  D0 0C     BNE                             A:05 X:33 Y:88 P:E7 SP:FB PPU:215, 35
D238  C9 05     CMP                             A:05 X:33 Y:88 P:E7 SP:FB PPU:221, 35
D23A  D0 08     BNE                             A:05 X:33 Y:88 P:67 SP:FB PPU:227, 35
D23C  E0 33     CPX                             A:05 X:33 Y:88 P:67 SP:FB PPU:233, 35
D23E  D0 04     BNE                             A:05 X:33 Y:88 P:67 SP:FB PPU:239, 35
D240  C0 88     CPY                             A:05 X:33 Y:88 P:67 SP:FB PPU:245, 35
D242  F0 04     BEQ                             A:05 X:33 Y:88 P:67 SP:FB PPU:251, 35
D248  A9 03     LDA                             A:05 X:33 Y:88 P:67 SP:FB PPU:260, 35
D24A  85 78     STA                             A:03 X:33 Y:88 P:65 SP:FB PPU:266, 35
D24C  A9 01     LDA                             A:03 X:33 Y:88 P:65 SP:FB PPU:275, 35
D24E  24 78     BIT                             A:01 X:33 Y:88 P:65 SP:FB PPU:281, 35
D250  30 08     BMI                             A:01 X:33 Y:88 P:25 SP:FB PPU:290, 35
D252  70 06     BVS                             A:01 X:33 Y:88 P:25 SP:FB PPU:296, 35
D254  F0 04     BEQ                             A:01 X:33 Y:88 P:25 SP:FB PPU:302, 35
D256  C9 01     CMP                             A:01 X:33 Y:88 P:25 SP:FB PPU:308, 35
D258  F0 04     BEQ                             A:01 X:33 Y:88 P:27 SP:FB PPU:314, 35
D25E  A0 7E     LDY                             A:01 X:33 Y:88 P:27 SP:FB PPU:323, 35
D260  A9 AA     LDA                             A:01 X:33 Y:7E P:25 SP:FB PPU:329, 35
D262  85 78     STA                             A:AA X:33 Y:7E P:A5 SP:FB PPU:335, 35
D264  20 B6 F7  JSR                             A:AA X:33 Y:7E P:A5 SP:FB PPU:  3, 36
F7B6  18        CLC                             A:AA X:33 Y:7E P:A5 SP:F9 PPU: 21, 36
F7B7  A9 FF     LDA                             A:AA X:33 Y:7E P:A4 SP:F9 PPU: 27, 36
F7B9  85 01     STA                             A:FF X:33 Y:7E P:A4 SP:F9 PPU: 33, 36
F7BB  24 01     BIT                             A:FF X:33 Y:7E P:A4 SP:F9 PPU: 42, 36
F7BD  A9 55     LDA                             A:FF X:33 Y:7E P:E4 SP:F9 PPU: 51, 36
F7BF  60        RTS                             A:55 X:33 Y:7E P:64 SP:F9 PPU: 57, 36
D267  05 78     ORA                             A:55 X:33 Y:7E P:64 SP:FB PPU: 75, 36
D269  20 C0 F7  JSR                             A:FF X:33 Y:7E P:E4 SP:FB PPU: 84, 36
F7C0  B0 09     BCS                             A:FF X:33 Y:7E P:E4 SP:F9 PPU:102, 36
F7C2  10 07     BPL                             A:FF X:33 Y:7E P:E4 SP:F9 PPU:108, 36
F7C4  C9 FF     CMP                             A:FF X:33 Y:7E P:E4 SP:F9 PPU:114, 36
F7C6  D0 03     BNE                             A:FF X:33 Y:7E P:67 SP:F9 PPU:120, 36
F7C8  50 01     BVC                             A:FF X:33 Y:7E P:67 SP:F9 PPU:126, 36
F7CA  60        RTS                             A:FF X:33 Y:7E P:67 SP:F9 PPU:132, 36
D26C  C8        INY                             A:FF X:33 Y:7E P:67 SP:FB PPU:150, 36
D26D  A9 00     LDA                             A:FF X:33 Y:7F P:65 SP:FB PPU:156, 36
D26F  85 78     STA                             A:00 X:33 Y:7F P:67 SP:FB PPU:162, 36
D271  20 CE F7  JSR                             A:00 X:33 Y:7F P:67 SP:FB PPU:171, 36
F7CE  38        SEC                             A:00 X:33 Y:7F P:67 SP:F9 PPU:189, 36
F7CF  B8        CLV                             A:00 X:33 Y:7F P:67 SP:F9 PPU:195, 36
F7D0  A9 00     LDA                             A:00 X:33 Y:7F P:27 SP:F9 PPU:201, 36
F7D2  60        RTS                             A:00 X:33 Y:7F P:27 SP:F9 PPU:207, 36
D274  05 78     ORA                             A:00 X:33 Y:7F P:27 SP:FB PPU:225, 36
D276  20 D3 F7  JSR                             A:00 X:33 Y:7F P:27 SP:FB PPU:234, 36
F7D3  D0 07     BNE                             A:00 X:33 Y:7F P:27 SP:F9 PPU:252, 36
F7D5  70 05     BVS                             A:00 X:33 Y:7F P:27 SP:F9 PPU:258, 36
F7D7  90 03     BCC                             A:00 X:33 Y:7F P:27 SP:F9 PPU:264, 36
F7D9  30 01     BMI                             A:00 X:33 Y:7F P:27 SP:F9 PPU:270, 36
F7DB  60        RTS                             A:00 X:33 Y:7F P:27 SP:F9 PPU:276, 36
D279  C8        INY                             A:00 X:33 Y:7F P:27 SP:FB PPU:294, 36
D27A  A9 AA     LDA                             A:00 X:33 Y:80 P:A5 SP:FB PPU:300, 36
D27C  85 78     STA                             A:AA X:33 Y:80 P:A5 SP:FB PPU:306, 36
D27E  20 DF F7  JSR                             A:AA X:33 Y:80 P:A5 SP:FB PPU:315, 36
F7DF  18        CLC                             A:AA X:33 Y:80 P:A5 SP:F9 PPU:333, 36
F7E0  24 01     BIT                             A:AA X:33 Y:80 P:A4 SP:F9 PPU:339, 36
F7E2  A9 55     LDA                             A:AA X:33 Y:80 P:E4 SP:F9 PPU:  7, 37
F7E4  60        RTS                             A:55 X:33 Y:80 P:64 SP:F9 PPU: 13, 37
D281  25 78     AND                             A:55 X:33 Y:80 P:64 SP:FB PPU: 31, 37
D283  20 E5 F7  JSR                             A:00 X:33 Y:80 P:66 SP:FB PPU: 40, 37
F7E5  D0 07     BNE                             A:00 X:33 Y:80 P:66 SP:F9 PPU: 58, 37
F7E7  50 05     BVC                             A:00 X:33 Y:80 P:66 SP:F9 PPU: 64, 37
F7E9  B0 03     BCS                             A:00 X:33 Y:80 P:66 SP:F9 PPU: 70, 37
F7EB  30 01     BMI                             A:00 X:33 Y:80 P:66 SP:F9 PPU: 76, 37
F7ED  60        RTS                             A:00 X:33 Y:80 P:66 SP:F9 PPU: 82, 37
D286  C8        INY                             A:00 X:33 Y:80 P:66 SP:FB PPU:100, 37
D287  A9 EF     LDA                             A:00 X:33 Y:81 P:E4 SP:FB PPU:106, 37
D289  85 78     STA                             A:EF X:33 Y:81 P:E4 SP:FB PPU:112, 37
D28B  20 F1 F7  JSR                             A:EF X:33 Y:81 P:E4 SP:FB PPU:121, 37
F7F1  38        SEC                             A:EF X:33 Y:81 P:E4 SP:F9 PPU:139, 37
F7F2  B8        CLV                             A:EF X:33 Y:81 P:E5 SP:F9 PPU:145, 37
F7F3  A9 F8     LDA                             A:EF X:33 Y:81 P:A5 SP:F9 PPU:151, 37
F7F5  60        RTS                             A:F8 X:33 Y:81 P:A5 SP:F9 PPU:157, 37
D28E  25 78     AND                             A:F8 X:33 Y:81 P:A5 SP:FB PPU:175, 37
D290  20 F6 F7  JSR                             A:E8 X:33 Y:81 P:A5 SP:FB PPU:184, 37
F7F6  90 09     BCC                             A:E8 X:33 Y:81 P:A5 SP:F9 PPU:202, 37
F7F8  10 07     BPL                             A:E8 X:33 Y:81 P:A5 SP:F9 PPU:208, 37
F7FA  C9 E8     CMP                             A:E8 X:33 Y:81 P:A5 SP:F9 PPU:214, 37
F7FC  D0 03     BNE                             A:E8 X:33 Y:81 P:27 SP:F9 PPU:220, 37
F7FE  70 01     BVS                             A:E8 X:33 Y:81 P:27 SP:F9 PPU:226, 37
F800  60        RTS                             A:E8 X:33 Y:81 P:27 SP:F9 PPU:232, 37
D293  C8        INY                             A:E8 X:33 Y:81 P:27 SP:FB PPU:250, 37
D294  A9 AA     LDA                             A:E8 X:33 Y:82 P:A5 SP:FB PPU:256, 37
D296  85 78     STA                             A:AA X:33 Y:82 P:A5 SP:FB PPU:262, 37
D298  20 04 F8  JSR                             A:AA X:33 Y:82 P:A5 SP:FB PPU:271, 37
F804  18        CLC                             A:AA X:33 Y:82 P:A5 SP:F9 PPU:289, 37
F805  24 01     BIT                             A:AA X:33 Y:82 P:A4 SP:F9 PPU:295, 37
F807  A9 5F     LDA                             A:AA X:33 Y:82 P:E4 SP:F9 PPU:304, 37
F809  60        RTS                             A:5F X:33 Y:82 P:64 SP:F9 PPU:310, 37
D29B  45 78     EOR                             A:5F X:33 Y:82 P:64 SP:FB PPU:328, 37
D29D  20 0A F8  JSR                             A:F5 X:33 Y:82 P:E4 SP:FB PPU:337, 37
F80A  B0 09     BCS                             A:F5 X:33 Y:82 P:E4 SP:F9 PPU: 14, 38
F80C  10 07     BPL                             A:F5 X:33 Y:82 P:E4 SP:F9 PPU: 20, 38
F80E  C9 F5     CMP                             A:F5 X:33 Y:82 P:E4 SP:F9 PPU: 26, 38
F810  D0 03     BNE                             A:F5 X:33 Y:82 P:67 SP:F9 PPU: 32, 38
F812  50 01     BVC                             A:F5 X:33 Y:82 P:67 SP:F9 PPU: 38, 38
F814  60        RTS                             A:F5 X:33 Y:82 P:67 SP:F9 PPU: 44, 38
D2A0  C8        INY                             A:F5 X:33 Y:82 P:67 SP:FB PPU: 62, 38
D2A1  A9 70     LDA                             A:F5 X:33 Y:83 P:E5 SP:FB PPU: 68, 38
D2A3  85 78     STA                             A:70 X:33 Y:83 P:65 SP:FB PPU: 74, 38
D2A5  20 18 F8  JSR                             A:70 X:33 Y:83 P:65 SP:FB PPU: 83, 38
F818  38        SEC                             A:70 X:33 Y:83 P:65 SP:F9 PPU:101, 38
F819  B8        CLV                             A:70 X:33 Y:83 P:65 SP:F9 PPU:107, 38
F81A  A9 70     LDA                             A:70 X:33 Y:83 P:25 SP:F9 PPU:113, 38
F81C  60        RTS                             A:70 X:33 Y:83 P:25 SP:F9 PPU:119, 38
D2A8  45 78     EOR                             A:70 X:33 Y:83 P:25 SP:FB PPU:137, 38
D2AA  20 1D F8  JSR                             A:00 X:33 Y:83 P:27 SP:FB PPU:146, 38
F81D  D0 07     BNE                             A:00 X:33 Y:83 P:27 SP:F9 PPU:164, 38
F81F  70 05     BVS                             A:00 X:33 Y:83 P:27 SP:F9 PPU:170, 38
F821  90 03     BCC                             A:00 X:33 Y:83 P:27 SP:F9 PPU:176, 38
F823  30 01     BMI                             A:00 X:33 Y:83 P:27 SP:F9 PPU:182, 38
F825  60        RTS                             A:00 X:33 Y:83 P:27 SP:F9 PPU:188, 38
D2AD  C8        INY                             A:00 X:33 Y:83 P:27 SP:FB PPU:206, 38
D2AE  A9 69     LDA                             A:00 X:33 Y:84 P:A5 SP:FB PPU:212, 38
D2B0  85 78     STA                             A:69 X:33 Y:84 P:25 SP:FB PPU:218, 38
D2B2  20 29 F8  JSR                             A:69 X:33 Y:84 P:25 SP:FB PPU:227, 38
F829  18        CLC                             A:69 X:33 Y:84 P:25 SP:F9 PPU:245, 38
F82A  24 01     BIT                             A:69 X:33 Y:84 P:24 SP:F9 PPU:251, 38
F82C  A9 00     LDA                             A:69 X:33 Y:84 P:E4 SP:F9 PPU:260, 38
F82E  60        RTS                             A:00 X:33 Y:84 P:66 SP:F9 PPU:266, 38
D2B5  65 78     ADC                             A:00 X:33 Y:84 P:66 SP:FB PPU:284, 38
D2B7  20 2F F8  JSR                             A:69 X:33 Y:84 P:24 SP:FB PPU:293, 38
F82F  30 09     BMI                             A:69 X:33 Y:84 P:24 SP:F9 PPU:311, 38
F831  B0 07     BCS                             A:69 X:33 Y:84 P:24 SP:F9 PPU:317, 38
F833  C9 69     CMP                             A:69 X:33 Y:84 P:24 SP:F9 PPU:323, 38
F835  D0 03     BNE                             A:69 X:33 Y:84 P:27 SP:F9 PPU:329, 38
F837  70 01     BVS                             A:69 X:33 Y:84 P:27 SP:F9 PPU:335, 38
F839  60        RTS                             A:69 X:33 Y:84 P:27 SP:F9 PPU:  0, 39
D2BA  C8        INY                             A:69 X:33 Y:84 P:27 SP:FB PPU: 18, 39
D2BB  20 3D F8  JSR                             A:69 X:33 Y:85 P:A5 SP:FB PPU: 24, 39
F83D  38        SEC                             A:69 X:33 Y:85 P:A5 SP:F9 PPU: 42, 39
F83E  24 01     BIT                             A:69 X:33 Y:85 P:A5 SP:F9 PPU: 48, 39
F840  A9 00     LDA                             A:69 X:33 Y:85 P:E5 SP:F9 PPU: 57, 39
F842  60        RTS                             A:00 X:33 Y:85 P:67 SP:F9 PPU: 63, 39
D2BE  65 78     ADC                             A:00 X:33 Y:85 P:67 SP:FB PPU: 81, 39
D2C0  20 43 F8  JSR                             A:6A X:33 Y:85 P:24 SP:FB PPU: 90, 39
F843  30 09     BMI                             A:6A X:33 Y:85 P:24 SP:F9 PPU:108, 39
F845  B0 07     BCS                             A:6A X:33 Y:85 P:24 SP:F9 PPU:114, 39
F847  C9 6A     CMP                             A:6A X:33 Y:85 P:24 SP:F9 PPU:120, 39
F849  D0 03     BNE                             A:6A X:33 Y:85 P:27 SP:F9 PPU:126, 39
F84B  70 01     BVS                             A:6A X:33 Y:85 P:27 SP:F9 PPU:132, 39
F84D  60        RTS                             A:6A X:33 Y:85 P:27 SP:F9 PPU:138, 39
D2C3  C8        INY                             A:6A X:33 Y:85 P:27 SP:FB PPU:156, 39
D2C4  A9 7F     LDA                             A:6A X:33 Y:86 P:A5 SP:FB PPU:162, 39
D2C6  85 78     STA                             A:7F X:33 Y:86 P:25 SP:FB PPU:168, 39
D2C8  20 51 F8  JSR                             A:7F X:33 Y:86 P:25 SP:FB PPU:177, 39
F851  38        SEC                             A:7F X:33 Y:86 P:25 SP:F9 PPU:195, 39
F852  B8        CLV                             A:7F X:33 Y:86 P:25 SP:F9 PPU:201, 39
F853  A9 7F     LDA                             A:7F X:33 Y:86 P:25 SP:F9 PPU:207, 39
F855  60        RTS                             A:7F X:33 Y:86 P:25 SP:F9 PPU:213, 39
D2CB  65 78     ADC                             A:7F X:33 Y:86 P:25 SP:FB PPU:231, 39
D2CD  20 56 F8  JSR                             A:FF X:33 Y:86 P:E4 SP:FB PPU:240, 39
F856  10 09     BPL                             A:FF X:33 Y:86 P:E4 SP:F9 PPU:258, 39
F858  B0 07     BCS                             A:FF X:33 Y:86 P:E4 SP:F9 PPU:264, 39
F85A  C9 FF     CMP                             A:FF X:33 Y:86 P:E4 SP:F9 PPU:270, 39
F85C  D0 03     BNE                             A:FF X:33 Y:86 P:67 SP:F9 PPU:276, 39
F85E  50 01     BVC                             A:FF X:33 Y:86 P:67 SP:F9 PPU:282, 39
F860  60        RTS                             A:FF X:33 Y:86 P:67 SP:F9 PPU:288, 39
D2D0  C8        INY                             A:FF X:33 Y:86 P:67 SP:FB PPU:306, 39
D2D1  A9 80     LDA                             A:FF X:33 Y:87 P:E5 SP:FB PPU:312, 39
D2D3  85 78     STA                             A:80 X:33 Y:87 P:E5 SP:FB PPU:318, 39
D2D5  20 64 F8  JSR                             A:80 X:33 Y:87 P:E5 SP:FB PPU:327, 39
F864  18        CLC                             A:80 X:33 Y:87 P:E5 SP:F9 PPU:  4, 40
F865  24 01     BIT                             A:80 X:33 Y:87 P:E4 SP:F9 PPU: 10, 40
F867  A9 7F     LDA                             A:80 X:33 Y:87 P:E4 SP:F9 PPU: 19, 40
F869  60        RTS                             A:7F X:33 Y:87 P:64 SP:F9 PPU: 25, 40
D2D8  65 78     ADC                             A:7F X:33 Y:87 P:64 SP:FB PPU: 43, 40
D2DA  20 6A F8  JSR                             A:FF X:33 Y:87 P:A4 SP:FB PPU: 52, 40
F86A  10 09     BPL                             A:FF X:33 Y:87 P:A4 SP:F9 PPU: 70, 40
F86C  B0 07     BCS                             A:FF X:33 Y:87 P:A4 SP:F9 PPU: 76, 40
F86E  C9 FF     CMP                             A:FF X:33 Y:87 P:A4 SP:F9 PPU: 82, 40
F870  D0 03     BNE                             A:FF X:33 Y:87 P:27 SP:F9 PPU: 88, 40
F872  70 01     BVS                             A:FF X:33 Y:87 P:27 SP:F9 PPU: 94, 40
F874  60        RTS                             A:FF X:33 Y:87 P:27 SP:F9 PPU:100, 40
D2DD  C8        INY                             A:FF X:33 Y:87 P:27 SP:FB PPU:118, 40
D2DE  20 78 F8  JSR                             A:FF X:33 Y:88 P:A5 SP:FB PPU:124, 40
F878  38        SEC                             A:FF X:33 Y:88 P:A5 SP:F9 PPU:142, 40
F879  B8        CLV                             A:FF X:33 Y:88 P:A5 SP:F9 PPU:148, 40
F87A  A9 7F     LDA                             A:FF X:33 Y:88 P:A5 SP:F9 PPU:154, 40
F87C  60        RTS                             A:7F X:33 Y:88 P:25 SP:F9 PPU:160, 40
D2E1  65 78     ADC                             A:7F X:33 Y:88 P:25 SP:FB PPU:178, 40
D2E3  20 7D F8  JSR                             A:00 X:33 Y:88 P:27 SP:FB PPU:187, 40
F87D  D0 07     BNE                             A:00 X:33 Y:88 P:27 SP:F9 PPU:205, 40
F87F  30 05     BMI                             A:00 X:33 Y:88 P:27 SP:F9 PPU:211, 40
F881  70 03     BVS                             A:00 X:33 Y:88 P:27 SP:F9 PPU:217, 40
F883  90 01     BCC                             A:00 X:33 Y:88 P:27 SP:F9 PPU:223, 40
F885  60        RTS                             A:00 X:33 Y:88 P:27 SP:F9 PPU:229, 40
D2E6  C8        INY                             A:00 X:33 Y:88 P:27 SP:FB PPU:247, 40
D2E7  A9 40     LDA                             A:00 X:33 Y:89 P:A5 SP:FB PPU:253, 40
D2E9  85 78     STA                             A:40 X:33 Y:89 P:25 SP:FB PPU:259, 40
D2EB  20 89 F8  JSR                             A:40 X:33 Y:89 P:25 SP:FB PPU:268, 40
F889  24 01     BIT                             A:40 X:33 Y:89 P:25 SP:F9 PPU:286, 40
F88B  A9 40     LDA                             A:40 X:33 Y:89 P:E5 SP:F9 PPU:295, 40
F88D  60        RTS                             A:40 X:33 Y:89 P:65 SP:F9 PPU:301, 40
D2EE  C5 78     CMP                             A:40 X:33 Y:89 P:65 SP:FB PPU:319, 40
D2F0  20 8E F8  JSR                             A:40 X:33 Y:89 P:67 SP:FB PPU:328, 40
F88E  30 07     BMI                             A:40 X:33 Y:89 P:67 SP:F9 PPU:  5, 41
F890  90 05     BCC                             A:40 X:33 Y:89 P:67 SP:F9 PPU: 11, 41
F892  D0 03     BNE                             A:40 X:33 Y:89 P:67 SP:F9 PPU: 17, 41
F894  50 01     BVC                             A:40 X:33 Y:89 P:67 SP:F9 PPU: 23, 41
F896  60        RTS                             A:40 X:33 Y:89 P:67 SP:F9 PPU: 29, 41
D2F3  C8        INY                             A:40 X:33 Y:89 P:67 SP:FB PPU: 47, 41
D2F4  48        PHA                             A:40 X:33 Y:8A P:E5 SP:FB PPU: 53, 41
D2F5  A9 3F     LDA                             A:40 X:33 Y:8A P:E5 SP:FA PPU: 62, 41
D2F7  85 78     STA                             A:3F X:33 Y:8A P:65 SP:FA PPU: 68, 41
D2F9  68        PLA                             A:3F X:33 Y:8A P:65 SP:FA PPU: 77, 41
D2FA  20 9A F8  JSR                             A:40 X:33 Y:8A P:65 SP:FB PPU: 89, 41
F89A  B8        CLV                             A:40 X:33 Y:8A P:65 SP:F9 PPU:107, 41
F89B  60        RTS                             A:40 X:33 Y:8A P:25 SP:F9 PPU:113, 41
D2FD  C5 78     CMP                             A:40 X:33 Y:8A P:25 SP:FB PPU:131, 41
D2FF  20 9C F8  JSR                             A:40 X:33 Y:8A P:25 SP:FB PPU:140, 41
F89C  F0 07     BEQ                             A:40 X:33 Y:8A P:25 SP:F9 PPU:158, 41
F89E  30 05     BMI                             A:40 X:33 Y:8A P:25 SP:F9 PPU:164, 41
F8A0  90 03     BCC                             A:40 X:33 Y:8A P:25 SP:F9 PPU:170, 41
F8A2  70 01     BVS                             A:40 X:33 Y:8A P:25 SP:F9 PPU:176, 41
F8A4  60        RTS                             A:40 X:33 Y:8A P:25 SP:F9 PPU:182, 41
D302  C8        INY                             A:40 X:33 Y:8A P:25 SP:FB PPU:200, 41
D303  48        PHA                             A:40 X:33 Y:8B P:A5 SP:FB PPU:206, 41
D304  A9 41     LDA                             A:40 X:33 Y:8B P:A5 SP:FA PPU:215, 41
D306  85 78     STA                             A:41 X:33 Y:8B P:25 SP:FA PPU:221, 41
D308  68        PLA                             A:41 X:33 Y:8B P:25 SP:FA PPU:230, 41
D309  C5 78     CMP                             A:40 X:33 Y:8B P:25 SP:FB PPU:242, 41
D30B  20 A8 F8  JSR                             A:40 X:33 Y:8B P:A4 SP:FB PPU:251, 41
F8A8  F0 05     BEQ                             A:40 X:33 Y:8B P:A4 SP:F9 PPU:269, 41
F8AA  10 03     BPL                             A:40 X:33 Y:8B P:A4 SP:F9 PPU:275, 41
F8AC  10 01     BPL                             A:40 X:33 Y:8B P:A4 SP:F9 PPU:281, 41
F8AE  60        RTS                             A:40 X:33 Y:8B P:A4 SP:F9 PPU:287, 41
D30E  C8        INY                             A:40 X:33 Y:8B P:A4 SP:FB PPU:305, 41
D30F  48        PHA                             A:40 X:33 Y:8C P:A4 SP:FB PPU:311, 41
D310  A9 00     LDA                             A:40 X:33 Y:8C P:A4 SP:FA PPU:320, 41
D312  85 78     STA                             A:00 X:33 Y:8C P:26 SP:FA PPU:326, 41
D314  68        PLA                             A:00 X:33 Y:8C P:26 SP:FA PPU:335, 41
D315  20 B2 F8  JSR                             A:40 X:33 Y:8C P:24 SP:FB PPU:  6, 42
F8B2  A9 80     LDA                             A:40 X:33 Y:8C P:24 SP:F9 PPU: 24, 42
F8B4  60        RTS                             A:80 X:33 Y:8C P:A4 SP:F9 PPU: 30, 42
D318  C5 78     CMP                             A:80 X:33 Y:8C P:A4 SP:FB PPU: 48, 42
D31A  20 B5 F8  JSR                             A:80 X:33 Y:8C P:A5 SP:FB PPU: 57, 42
F8B5  F0 05     BEQ                             A:80 X:33 Y:8C P:A5 SP:F9 PPU: 75, 42
F8B7  10 03     BPL                             A:80 X:33 Y:8C P:A5 SP:F9 PPU: 81, 42
F8B9  90 01     BCC                             A:80 X:33 Y:8C P:A5 SP:F9 PPU: 87, 42
F8BB  60        RTS                             A:80 X:33 Y:8C P:A5 SP:F9 PPU: 93, 42
D31D  C8        INY                             A:80 X:33 Y:8C P:A5 SP:FB PPU:111, 42
D31E  48        PHA                             A:80 X:33 Y:8D P:A5 SP:FB PPU:117, 42
D31F  A9 80     LDA                             A:80 X:33 Y:8D P:A5 SP:FA PPU:126, 42
D321  85 78     STA                             A:80 X:33 Y:8D P:A5 SP:FA PPU:132, 42
D323  68        PLA                             A:80 X:33 Y:8D P:A5 SP:FA PPU:141, 42
D324  C5 78     CMP                             A:80 X:33 Y:8D P:A5 SP:FB PPU:153, 42
D326  20 BF F8  JSR                             A:80 X:33 Y:8D P:27 SP:FB PPU:162, 42
F8BF  D0 05     BNE                             A:80 X:33 Y:8D P:27 SP:F9 PPU:180, 42
F8C1  30 03     BMI                             A:80 X:33 Y:8D P:27 SP:F9 PPU:186, 42
F8C3  90 01     BCC                             A:80 X:33 Y:8D P:27 SP:F9 PPU:192, 42
F8C5  60        RTS                             A:80 X:33 Y:8D P:27 SP:F9 PPU:198, 42
D329  C8        INY                             A:80 X:33 Y:8D P:27 SP:FB PPU:216, 42
D32A  48        PHA                             A:80 X:33 Y:8E P:A5 SP:FB PPU:222, 42
D32B  A9 81     LDA                             A:80 X:33 Y:8E P:A5 SP:FA PPU:231, 42
D32D  85 78     STA                             A:81 X:33 Y:8E P:A5 SP:FA PPU:237, 42
D32F  68        PLA                             A:81 X:33 Y:8E P:A5 SP:FA PPU:246, 42
D330  C5 78     CMP                             A:80 X:33 Y:8E P:A5 SP:FB PPU:258, 42
D332  20 C9 F8  JSR                             A:80 X:33 Y:8E P:A4 SP:FB PPU:267, 42
F8C9  B0 05     BCS                             A:80 X:33 Y:8E P:A4 SP:F9 PPU:285, 42
F8CB  F0 03     BEQ                             A:80 X:33 Y:8E P:A4 SP:F9 PPU:291, 42
F8CD  10 01     BPL                             A:80 X:33 Y:8E P:A4 SP:F9 PPU:297, 42
F8CF  60        RTS                             A:80 X:33 Y:8E P:A4 SP:F9 PPU:303, 42
D335  C8        INY                             A:80 X:33 Y:8E P:A4 SP:FB PPU:321, 42
D336  48        PHA                             A:80 X:33 Y:8F P:A4 SP:FB PPU:327, 42
D337  A9 7F     LDA                             A:80 X:33 Y:8F P:A4 SP:FA PPU:336, 42
D339  85 78     STA                             A:7F X:33 Y:8F P:24 SP:FA PPU:  1, 43
D33B  68        PLA                             A:7F X:33 Y:8F P:24 SP:FA PPU: 10, 43
D33C  C5 78     CMP                             A:80 X:33 Y:8F P:A4 SP:FB PPU: 22, 43
D33E  20 D3 F8  JSR                             A:80 X:33 Y:8F P:25 SP:FB PPU: 31, 43
F8D3  90 05     BCC                             A:80 X:33 Y:8F P:25 SP:F9 PPU: 49, 43
F8D5  F0 03     BEQ                             A:80 X:33 Y:8F P:25 SP:F9 PPU: 55, 43
F8D7  30 01     BMI                             A:80 X:33 Y:8F P:25 SP:F9 PPU: 61, 43
F8D9  60        RTS                             A:80 X:33 Y:8F P:25 SP:F9 PPU: 67, 43
D341  C8        INY                             A:80 X:33 Y:8F P:25 SP:FB PPU: 85, 43
D342  A9 40     LDA                             A:80 X:33 Y:90 P:A5 SP:FB PPU: 91, 43
D344  85 78     STA                             A:40 X:33 Y:90 P:25 SP:FB PPU: 97, 43
D346  20 31 F9  JSR                             A:40 X:33 Y:90 P:25 SP:FB PPU:106, 43
F931  24 01     BIT                             A:40 X:33 Y:90 P:25 SP:F9 PPU:124, 43
F933  A9 40     LDA                             A:40 X:33 Y:90 P:E5 SP:F9 PPU:133, 43
F935  38        SEC                             A:40 X:33 Y:90 P:65 SP:F9 PPU:139, 43
F936  60        RTS                             A:40 X:33 Y:90 P:65 SP:F9 PPU:145, 43
D349  E5 78     SBC                             A:40 X:33 Y:90 P:65 SP:FB PPU:163, 43
D34B  20 37 F9  JSR                             A:00 X:33 Y:90 P:27 SP:FB PPU:172, 43
F937  30 0B     BMI                             A:00 X:33 Y:90 P:27 SP:F9 PPU:190, 43
F939  90 09     BCC                             A:00 X:33 Y:90 P:27 SP:F9 PPU:196, 43
F93B  D0 07     BNE                             A:00 X:33 Y:90 P:27 SP:F9 PPU:202, 43
F93D  70 05     BVS                             A:00 X:33 Y:90 P:27 SP:F9 PPU:208, 43
F93F  C9 00     CMP                             A:00 X:33 Y:90 P:27 SP:F9 PPU:214, 43
F941  D0 01     BNE                             A:00 X:33 Y:90 P:27 SP:F9 PPU:220, 43
F943  60        RTS                             A:00 X:33 Y:90 P:27 SP:F9 PPU:226, 43
D34E  C8        INY                             A:00 X:33 Y:90 P:27 SP:FB PPU:244, 43
D34F  A9 3F     LDA                             A:00 X:33 Y:91 P:A5 SP:FB PPU:250, 43
D351  85 78     STA                             A:3F X:33 Y:91 P:25 SP:FB PPU:256, 43
D353  20 47 F9  JSR                             A:3F X:33 Y:91 P:25 SP:FB PPU:265, 43
F947  B8        CLV                             A:3F X:33 Y:91 P:25 SP:F9 PPU:283, 43
F948  38        SEC                             A:3F X:33 Y:91 P:25 SP:F9 PPU:289, 43
F949  A9 40     LDA                             A:3F X:33 Y:91 P:25 SP:F9 PPU:295, 43
F94B  60        RTS                             A:40 X:33 Y:91 P:25 SP:F9 PPU:301, 43
D356  E5 78     SBC                             A:40 X:33 Y:91 P:25 SP:FB PPU:319, 43
D358  20 4C F9  JSR                             A:01 X:33 Y:91 P:25 SP:FB PPU:328, 43
F94C  F0 0B     BEQ                             A:01 X:33 Y:91 P:25 SP:F9 PPU:  5, 44
F94E  30 09     BMI                             A:01 X:33 Y:91 P:25 SP:F9 PPU: 11, 44
F950  90 07     BCC                             A:01 X:33 Y:91 P:25 SP:F9 PPU: 17, 44
F952  70 05     BVS                             A:01 X:33 Y:91 P:25 SP:F9 PPU: 23, 44
F954  C9 01     CMP                             A:01 X:33 Y:91 P:25 SP:F9 PPU: 29, 44
F956  D0 01     BNE                             A:01 X:33 Y:91 P:27 SP:F9 PPU: 35, 44
F958  60        RTS                             A:01 X:33 Y:91 P:27 SP:F9 PPU: 41, 44
D35B  C8        INY                             A:01 X:33 Y:91 P:27 SP:FB PPU: 59, 44
D35C  A9 41     LDA                             A:01 X:33 Y:92 P:A5 SP:FB PPU: 65, 44
D35E  85 78     STA                             A:41 X:33 Y:92 P:25 SP:FB PPU: 71, 44
D360  20 5C F9  JSR                             A:41 X:33 Y:92 P:25 SP:FB PPU: 80, 44
F95C  A9 40     LDA                             A:41 X:33 Y:92 P:25 SP:F9 PPU: 98, 44
F95E  38        SEC                             A:40 X:33 Y:92 P:25 SP:F9 PPU:104, 44
F95F  24 01     BIT                             A:40 X:33 Y:92 P:25 SP:F9 PPU:110, 44
F961  60        RTS                             A:40 X:33 Y:92 P:E5 SP:F9 PPU:119, 44
D363  E5 78     SBC                             A:40 X:33 Y:92 P:E5 SP:FB PPU:137, 44
D365  20 62 F9  JSR                             A:FF X:33 Y:92 P:A4 SP:FB PPU:146, 44
F962  B0 0B     BCS                             A:FF X:33 Y:92 P:A4 SP:F9 PPU:164, 44
F964  F0 09     BEQ                             A:FF X:33 Y:92 P:A4 SP:F9 PPU:170, 44
F966  10 07     BPL                             A:FF X:33 Y:92 P:A4 SP:F9 PPU:176, 44
F968  70 05     BVS                             A:FF X:33 Y:92 P:A4 SP:F9 PPU:182, 44
F96A  C9 FF     CMP                             A:FF X:33 Y:92 P:A4 SP:F9 PPU:188, 44
F96C  D0 01     BNE                             A:FF X:33 Y:92 P:27 SP:F9 PPU:194, 44
F96E  60        RTS                             A:FF X:33 Y:92 P:27 SP:F9 PPU:200, 44
D368  C8        INY                             A:FF X:33 Y:92 P:27 SP:FB PPU:218, 44
D369  A9 00     LDA                             A:FF X:33 Y:93 P:A5 SP:FB PPU:224, 44
D36B  85 78     STA                             A:00 X:33 Y:93 P:27 SP:FB PPU:230, 44
D36D  20 72 F9  JSR                             A:00 X:33 Y:93 P:27 SP:FB PPU:239, 44
F972  18        CLC                             A:00 X:33 Y:93 P:27 SP:F9 PPU:257, 44
F973  A9 80     LDA                             A:00 X:33 Y:93 P:26 SP:F9 PPU:263, 44
F975  60        RTS                             A:80 X:33 Y:93 P:A4 SP:F9 PPU:269, 44
D370  E5 78     SBC                             A:80 X:33 Y:93 P:A4 SP:FB PPU:287, 44
D372  20 76 F9  JSR                             A:7F X:33 Y:93 P:65 SP:FB PPU:296, 44
F976  90 05     BCC                             A:7F X:33 Y:93 P:65 SP:F9 PPU:314, 44
F978  C9 7F     CMP                             A:7F X:33 Y:93 P:65 SP:F9 PPU:320, 44
F97A  D0 01     BNE                             A:7F X:33 Y:93 P:67 SP:F9 PPU:326, 44
F97C  60        RTS                             A:7F X:33 Y:93 P:67 SP:F9 PPU:332, 44
D375  C8        INY                             A:7F X:33 Y:93 P:67 SP:FB PPU:  9, 45
D376  A9 7F     LDA                             A:7F X:33 Y:94 P:E5 SP:FB PPU: 15, 45
D378  85 78     STA                             A:7F X:33 Y:94 P:65 SP:FB PPU: 21, 45
D37A  20 80 F9  JSR                             A:7F X:33 Y:94 P:65 SP:FB PPU: 30, 45
F980  38        SEC                             A:7F X:33 Y:94 P:65 SP:F9 PPU: 48, 45
F981  A9 81     LDA                             A:7F X:33 Y:94 P:65 SP:F9 PPU: 54, 45
F983  60        RTS                             A:81 X:33 Y:94 P:E5 SP:F9 PPU: 60, 45
D37D  E5 78     SBC                             A:81 X:33 Y:94 P:E5 SP:FB PPU: 78, 45
D37F  20 84 F9  JSR                             A:02 X:33 Y:94 P:65 SP:FB PPU: 87, 45
F984  50 07     BVC                             A:02 X:33 Y:94 P:65 SP:F9 PPU:105, 45
F986  90 05     BCC                             A:02 X:33 Y:94 P:65 SP:F9 PPU:111, 45
F988  C9 02     CMP                             A:02 X:33 Y:94 P:65 SP:F9 PPU:117, 45
F98A  D0 01     BNE                             A:02 X:33 Y:94 P:67 SP:F9 PPU:123, 45
F98C  60        RTS                             A:02 X:33 Y:94 P:67 SP:F9 PPU:129, 45
D382  C8        INY                             A:02 X:33 Y:94 P:67 SP:FB PPU:147, 45
D383  A9 40     LDA                             A:02 X:33 Y:95 P:E5 SP:FB PPU:153, 45
D385  85 78     STA                             A:40 X:33 Y:95 P:65 SP:FB PPU:159, 45
D387  20 89 F8  JSR                             A:40 X:33 Y:95 P:65 SP:FB PPU:168, 45
F889  24 01     BIT                             A:40 X:33 Y:95 P:65 SP:F9 PPU:186, 45
F88B  A9 40     LDA                             A:40 X:33 Y:95 P:E5 SP:F9 PPU:195, 45
F88D  60        RTS                             A:40 X:33 Y:95 P:65 SP:F9 PPU:201, 45
D38A  AA        TAX                             A:40 X:33 Y:95 P:65 SP:FB PPU:219, 45
D38B  E4 78     CPX                             A:40 X:40 Y:95 P:65 SP:FB PPU:225, 45
D38D  20 8E F8  JSR                             A:40 X:40 Y:95 P:67 SP:FB PPU:234, 45
F88E  30 07     BMI                             A:40 X:40 Y:95 P:67 SP:F9 PPU:252, 45
F890  90 05     BCC                             A:40 X:40 Y:95 P:67 SP:F9 PPU:258, 45
F892  D0 03     BNE                             A:40 X:40 Y:95 P:67 SP:F9 PPU:264, 45
F894  50 01     BVC                             A:40 X:40 Y:95 P:67 SP:F9 PPU:270, 45
F896  60        RTS                             A:40 X:40 Y:95 P:67 SP:F9 PPU:276, 45
D390  C8        INY                             A:40 X:40 Y:95 P:67 SP:FB PPU:294, 45
D391  A9 3F     LDA                             A:40 X:40 Y:96 P:E5 SP:FB PPU:300, 45
D393  85 78     STA                             A:3F X:40 Y:96 P:65 SP:FB PPU:306, 45
D395  20 9A F8  JSR                             A:3F X:40 Y:96 P:65 SP:FB PPU:315, 45
F89A  B8        CLV                             A:3F X:40 Y:96 P:65 SP:F9 PPU:333, 45
F89B  60        RTS                             A:3F X:40 Y:96 P:25 SP:F9 PPU:339, 45
D398  E4 78     CPX                             A:3F X:40 Y:96 P:25 SP:FB PPU: 16, 46
D39A  20 9C F8  JSR                             A:3F X:40 Y:96 P:25 SP:FB PPU: 25, 46
F89C  F0 07     BEQ                             A:3F X:40 Y:96 P:25 SP:F9 PPU: 43, 46
F89E  30 05     BMI                             A:3F X:40 Y:96 P:25 SP:F9 PPU: 49, 46
F8A0  90 03     BCC                             A:3F X:40 Y:96 P:25 SP:F9 PPU: 55, 46
F8A2  70 01     BVS                             A:3F X:40 Y:96 P:25 SP:F9 PPU: 61, 46
F8A4  60        RTS                             A:3F X:40 Y:96 P:25 SP:F9 PPU: 67, 46
D39D  C8        INY                             A:3F X:40 Y:96 P:25 SP:FB PPU: 85, 46
D39E  A9 41     LDA                             A:3F X:40 Y:97 P:A5 SP:FB PPU: 91, 46
D3A0  85 78     STA                             A:41 X:40 Y:97 P:25 SP:FB PPU: 97, 46
D3A2  E4 78     CPX                             A:41 X:40 Y:97 P:25 SP:FB PPU:106, 46
D3A4  20 A8 F8  JSR                             A:41 X:40 Y:97 P:A4 SP:FB PPU:115, 46
F8A8  F0 05     BEQ                             A:41 X:40 Y:97 P:A4 SP:F9 PPU:133, 46
F8AA  10 03     BPL                             A:41 X:40 Y:97 P:A4 SP:F9 PPU:139, 46
F8AC  10 01     BPL                             A:41 X:40 Y:97 P:A4 SP:F9 PPU:145, 46
F8AE  60        RTS                             A:41 X:40 Y:97 P:A4 SP:F9 PPU:151, 46
D3A7  C8        INY                             A:41 X:40 Y:97 P:A4 SP:FB PPU:169, 46
D3A8  A9 00     LDA                             A:41 X:40 Y:98 P:A4 SP:FB PPU:175, 46
D3AA  85 78     STA                             A:00 X:40 Y:98 P:26 SP:FB PPU:181, 46
D3AC  20 B2 F8  JSR                             A:00 X:40 Y:98 P:26 SP:FB PPU:190, 46
F8B2  A9 80     LDA                             A:00 X:40 Y:98 P:26 SP:F9 PPU:208, 46
F8B4  60        RTS                             A:80 X:40 Y:98 P:A4 SP:F9 PPU:214, 46
D3AF  AA        TAX                             A:80 X:40 Y:98 P:A4 SP:FB PPU:232, 46
D3B0  E4 78     CPX                             A:80 X:80 Y:98 P:A4 SP:FB PPU:238, 46
D3B2  20 B5 F8  JSR                             A:80 X:80 Y:98 P:A5 SP:FB PPU:247, 46
F8B5  F0 05     BEQ                             A:80 X:80 Y:98 P:A5 SP:F9 PPU:265, 46
F8B7  10 03     BPL                             A:80 X:80 Y:98 P:A5 SP:F9 PPU:271, 46
F8B9  90 01     BCC                             A:80 X:80 Y:98 P:A5 SP:F9 PPU:277, 46
F8BB  60        RTS                             A:80 X:80 Y:98 P:A5 SP:F9 PPU:283, 46
D3B5  C8        INY                             A:80 X:80 Y:98 P:A5 SP:FB PPU:301, 46
D3B6  A9 80     LDA                             A:80 X:80 Y:99 P:A5 SP:FB PPU:307, 46
D3B8  85 78     STA                             A:80 X:80 Y:99 P:A5 SP:FB PPU:313, 46
D3BA  E4 78     CPX                             A:80 X:80 Y:99 P:A5 SP:FB PPU:322, 46
D3BC  20 BF F8  JSR                             A:80 X:80 Y:99 P:27 SP:FB PPU:331, 46
F8BF  D0 05     BNE                             A:80 X:80 Y:99 P:27 SP:F9 PPU:  8, 47
F8C1  30 03     BMI                             A:80 X:80 Y:99 P:27 SP:F9 PPU: 14, 47
F8C3  90 01     BCC                             A:80 X:80 Y:99 P:27 SP:F9 PPU: 20, 47
F8C5  60        RTS                             A:80 X:80 Y:99 P:27 SP:F9 PPU: 26, 47
D3BF  C8        INY                             A:80 X:80 Y:99 P:27 SP:FB PPU: 44, 47
D3C0  A9 81     LDA                             A:80 X:80 Y:9A P:A5 SP:FB PPU: 50, 47
D3C2  85 78     STA                             A:81 X:80 Y:9A P:A5 SP:FB PPU: 56, 47
D3C4  E4 78     CPX                             A:81 X:80 Y:9A P:A5 SP:FB PPU: 65, 47
D3C6  20 C9 F8  JSR                             A:81 X:80 Y:9A P:A4 SP:FB PPU: 74, 47
F8C9  B0 05     BCS                             A:81 X:80 Y:9A P:A4 SP:F9 PPU: 92, 47
F8CB  F0 03     BEQ                             A:81 X:80 Y:9A P:A4 SP:F9 PPU: 98, 47
F8CD  10 01     BPL                             A:81 X:80 Y:9A P:A4 SP:F9 PPU:104, 47
F8CF  60        RTS                             A:81 X:80 Y:9A P:A4 SP:F9 PPU:110, 47
D3C9  C8        INY                             A:81 X:80 Y:9A P:A4 SP:FB PPU:128, 47
D3CA  A9 7F     LDA                             A:81 X:80 Y:9B P:A4 SP:FB PPU:134, 47
D3CC  85 78     STA                             A:7F X:80 Y:9B P:24 SP:FB PPU:140, 47
D3CE  E4 78     CPX                             A:7F X:80 Y:9B P:24 SP:FB PPU:149, 47
D3D0  20 D3 F8  JSR                             A:7F X:80 Y:9B P:25 SP:FB PPU:158, 47
F8D3  90 05     BCC                             A:7F X:80 Y:9B P:25 SP:F9 PPU:176, 47
F8D5  F0 03     BEQ                             A:7F X:80 Y:9B P:25 SP:F9 PPU:182, 47
F8D7  30 01     BMI                             A:7F X:80 Y:9B P:25 SP:F9 PPU:188, 47
F8D9  60        RTS                             A:7F X:80 Y:9B P:25 SP:F9 PPU:194, 47
D3D3  C8        INY                             A:7F X:80 Y:9B P:25 SP:FB PPU:212, 47
D3D4  98        TYA                             A:7F X:80 Y:9C P:A5 SP:FB PPU:218, 47
D3D5  AA        TAX                             A:9C X:80 Y:9C P:A5 SP:FB PPU:224, 47
D3D6  A9 40     LDA                             A:9C X:9C Y:9C P:A5 SP:FB PPU:230, 47
D3D8  85 78     STA                             A:40 X:9C Y:9C P:25 SP:FB PPU:236, 47
D3DA  20 DD F8  JSR                             A:40 X:9C Y:9C P:25 SP:FB PPU:245, 47
F8DD  24 01     BIT                             A:40 X:9C Y:9C P:25 SP:F9 PPU:263, 47
F8DF  A0 40     LDY                             A:40 X:9C Y:9C P:E5 SP:F9 PPU:272, 47
F8E1  60        RTS                             A:40 X:9C Y:40 P:65 SP:F9 PPU:278, 47
D3DD  C4 78     CPY                             A:40 X:9C Y:40 P:65 SP:FB PPU:296, 47
D3DF  20 E2 F8  JSR                             A:40 X:9C Y:40 P:67 SP:FB PPU:305, 47
F8E2  30 07     BMI                             A:40 X:9C Y:40 P:67 SP:F9 PPU:323, 47
F8E4  90 05     BCC                             A:40 X:9C Y:40 P:67 SP:F9 PPU:329, 47
F8E6  D0 03     BNE                             A:40 X:9C Y:40 P:67 SP:F9 PPU:335, 47
F8E8  50 01     BVC                             A:40 X:9C Y:40 P:67 SP:F9 PPU:  0, 48
F8EA  60        RTS                             A:40 X:9C Y:40 P:67 SP:F9 PPU:  6, 48
D3E2  E8        INX                             A:40 X:9C Y:40 P:67 SP:FB PPU: 24, 48
D3E3  A9 3F     LDA                             A:40 X:9D Y:40 P:E5 SP:FB PPU: 30, 48
D3E5  85 78     STA                             A:3F X:9D Y:40 P:65 SP:FB PPU: 36, 48
D3E7  20 EE F8  JSR                             A:3F X:9D Y:40 P:65 SP:FB PPU: 45, 48
F8EE  B8        CLV                             A:3F X:9D Y:40 P:65 SP:F9 PPU: 63, 48
F8EF  60        RTS                             A:3F X:9D Y:40 P:25 SP:F9 PPU: 69, 48
D3EA  C4 78     CPY                             A:3F X:9D Y:40 P:25 SP:FB PPU: 87, 48
D3EC  20 F0 F8  JSR                             A:3F X:9D Y:40 P:25 SP:FB PPU: 96, 48
F8F0  F0 07     BEQ                             A:3F X:9D Y:40 P:25 SP:F9 PPU:114, 48
F8F2  30 05     BMI                             A:3F X:9D Y:40 P:25 SP:F9 PPU:120, 48
F8F4  90 03     BCC                             A:3F X:9D Y:40 P:25 SP:F9 PPU:126, 48
F8F6  70 01     BVS                             A:3F X:9D Y:40 P:25 SP:F9 PPU:132, 48
F8F8  60        RTS                             A:3F X:9D Y:40 P:25 SP:F9 PPU:138, 48
D3EF  E8        INX                             A:3F X:9D Y:40 P:25 SP:FB PPU:156, 48
D3F0  A9 41     LDA                             A:3F X:9E Y:40 P:A5 SP:FB PPU:162, 48
D3F2  85 78     STA                             A:41 X:9E Y:40 P:25 SP:FB PPU:168, 48
D3F4  C4 78     CPY                             A:41 X:9E Y:40 P:25 SP:FB PPU:177, 48
D3F6  20 FC F8  JSR                             A:41 X:9E Y:40 P:A4 SP:FB PPU:186, 48
F8FC  F0 05     BEQ                             A:41 X:9E Y:40 P:A4 SP:F9 PPU:204, 48
F8FE  10 03     BPL                             A:41 X:9E Y:40 P:A4 SP:F9 PPU:210, 48
F900  10 01     BPL                             A:41 X:9E Y:40 P:A4 SP:F9 PPU:216, 48
F902  60        RTS                             A:41 X:9E Y:40 P:A4 SP:F9 PPU:222, 48
D3F9  E8        INX                             A:41 X:9E Y:40 P:A4 SP:FB PPU:240, 48
D3FA  A9 00     LDA                             A:41 X:9F Y:40 P:A4 SP:FB PPU:246, 48
D3FC  85 78     STA                             A:00 X:9F Y:40 P:26 SP:FB PPU:252, 48
D3FE  20 06 F9  JSR                             A:00 X:9F Y:40 P:26 SP:FB PPU:261, 48
F906  A0 80     LDY                             A:00 X:9F Y:40 P:26 SP:F9 PPU:279, 48
F908  60        RTS                             A:00 X:9F Y:80 P:A4 SP:F9 PPU:285, 48
D401  C4 78     CPY                             A:00 X:9F Y:80 P:A4 SP:FB PPU:303, 48
D403  20 09 F9  JSR                             A:00 X:9F Y:80 P:A5 SP:FB PPU:312, 48
F909  F0 05     BEQ                             A:00 X:9F Y:80 P:A5 SP:F9 PPU:330, 48
F90B  10 03     BPL                             A:00 X:9F Y:80 P:A5 SP:F9 PPU:336, 48
F90D  90 01     BCC                             A:00 X:9F Y:80 P:A5 SP:F9 PPU:  1, 49
F90F  60        RTS                             A:00 X:9F Y:80 P:A5 SP:F9 PPU:  7, 49
D406  E8        INX                             A:00 X:9F Y:80 P:A5 SP:FB PPU: 25, 49
D407  A9 80     LDA                             A:00 X:A0 Y:80 P:A5 SP:FB PPU: 31, 49
D409  85 78     STA                             A:80 X:A0 Y:80 P:A5 SP:FB PPU: 37, 49
D40B  C4 78     CPY                             A:80 X:A0 Y:80 P:A5 SP:FB PPU: 46, 49
D40D  20 13 F9  JSR                             A:80 X:A0 Y:80 P:27 SP:FB PPU: 55, 49
F913  D0 05     BNE                             A:80 X:A0 Y:80 P:27 SP:F9 PPU: 73, 49
F915  30 03     BMI                             A:80 X:A0 Y:80 P:27 SP:F9 PPU: 79, 49
F917  90 01     BCC                             A:80 X:A0 Y:80 P:27 SP:F9 PPU: 85, 49
F919  60        RTS                             A:80 X:A0 Y:80 P:27 SP:F9 PPU: 91, 49
D410  E8        INX                             A:80 X:A0 Y:80 P:27 SP:FB PPU:109, 49
D411  A9 81     LDA                             A:80 X:A1 Y:80 P:A5 SP:FB PPU:115, 49
D413  85 78     STA                             A:81 X:A1 Y:80 P:A5 SP:FB PPU:121, 49
D415  C4 78     CPY                             A:81 X:A1 Y:80 P:A5 SP:FB PPU:130, 49
D417  20 1D F9  JSR                             A:81 X:A1 Y:80 P:A4 SP:FB PPU:139, 49
F91D  B0 05     BCS                             A:81 X:A1 Y:80 P:A4 SP:F9 PPU:157, 49
F91F  F0 03     BEQ                             A:81 X:A1 Y:80 P:A4 SP:F9 PPU:163, 49
F921  10 01     BPL                             A:81 X:A1 Y:80 P:A4 SP:F9 PPU:169, 49
F923  60        RTS                             A:81 X:A1 Y:80 P:A4 SP:F9 PPU:175, 49
D41A  E8        INX                             A:81 X:A1 Y:80 P:A4 SP:FB PPU:193, 49
D41B  A9 7F     LDA                             A:81 X:A2 Y:80 P:A4 SP:FB PPU:199, 49
D41D  85 78     STA                             A:7F X:A2 Y:80 P:24 SP:FB PPU:205, 49
D41F  C4 78     CPY                             A:7F X:A2 Y:80 P:24 SP:FB PPU:214, 49
D421  20 27 F9  JSR                             A:7F X:A2 Y:80 P:25 SP:FB PPU:223, 49
F927  90 05     BCC                             A:7F X:A2 Y:80 P:25 SP:F9 PPU:241, 49
F929  F0 03     BEQ                             A:7F X:A2 Y:80 P:25 SP:F9 PPU:247, 49
F92B  30 01     BMI                             A:7F X:A2 Y:80 P:25 SP:F9 PPU:253, 49
F92D  60        RTS                             A:7F X:A2 Y:80 P:25 SP:F9 PPU:259, 49
D424  E8        INX                             A:7F X:A2 Y:80 P:25 SP:FB PPU:277, 49
D425  8A        TXA                             A:7F X:A3 Y:80 P:A5 SP:FB PPU:283, 49
D426  A8        TAY                             A:A3 X:A3 Y:80 P:A5 SP:FB PPU:289, 49
D427  20 90 F9  JSR                             A:A3 X:A3 Y:A3 P:A5 SP:FB PPU:295, 49
F990  A2 55     LDX                             A:A3 X:A3 Y:A3 P:A5 SP:F9 PPU:313, 49
F992  A9 FF     LDA                             A:A3 X:55 Y:A3 P:25 SP:F9 PPU:319, 49
F994  85 01     STA                             A:FF X:55 Y:A3 P:A5 SP:F9 PPU:325, 49
F996  EA        NOP                             A:FF X:55 Y:A3 P:A5 SP:F9 PPU:334, 49
F997  24 01     BIT                             A:FF X:55 Y:A3 P:A5 SP:F9 PPU:340, 49
F999  38        SEC                             A:FF X:55 Y:A3 P:E5 SP:F9 PPU:  8, 50
F99A  A9 01     LDA                             A:FF X:55 Y:A3 P:E5 SP:F9 PPU: 14, 50
F99C  60        RTS                             A:01 X:55 Y:A3 P:65 SP:F9 PPU: 20, 50
D42A  85 78     STA                             A:01 X:55 Y:A3 P:65 SP:FB PPU: 38, 50
D42C  46 78     LSR                             A:01 X:55 Y:A3 P:65 SP:FB PPU: 47, 50
D42E  A5 78     LDA                             A:01 X:55 Y:A3 P:67 SP:FB PPU: 62, 50
D430  20 9D F9  JSR                             A:00 X:55 Y:A3 P:67 SP:FB PPU: 71, 50
F99D  90 1B     BCC                             A:00 X:55 Y:A3 P:67 SP:F9 PPU: 89, 50
F99F  D0 19     BNE                             A:00 X:55 Y:A3 P:67 SP:F9 PPU: 95, 50
F9A1  30 17     BMI                             A:00 X:55 Y:A3 P:67 SP:F9 PPU:101, 50
F9A3  50 15     BVC                             A:00 X:55 Y:A3 P:67 SP:F9 PPU:107, 50
F9A5  C9 00     CMP                             A:00 X:55 Y:A3 P:67 SP:F9 PPU:113, 50
F9A7  D0 11     BNE                             A:00 X:55 Y:A3 P:67 SP:F9 PPU:119, 50
F9A9  B8        CLV                             A:00 X:55 Y:A3 P:67 SP:F9 PPU:125, 50
F9AA  A9 AA     LDA                             A:00 X:55 Y:A3 P:27 SP:F9 PPU:131, 50
F9AC  60        RTS                             A:AA X:55 Y:A3 P:A5 SP:F9 PPU:137, 50
D433  C8        INY                             A:AA X:55 Y:A3 P:A5 SP:FB PPU:155, 50
D434  85 78     STA                             A:AA X:55 Y:A4 P:A5 SP:FB PPU:161, 50
D436  46 78     LSR                             A:AA X:55 Y:A4 P:A5 SP:FB PPU:170, 50
D438  A5 78     LDA                             A:AA X:55 Y:A4 P:24 SP:FB PPU:185, 50
D43A  20 AD F9  JSR                             A:55 X:55 Y:A4 P:24 SP:FB PPU:194, 50
F9AD  B0 0B     BCS                             A:55 X:55 Y:A4 P:24 SP:F9 PPU:212, 50
F9AF  F0 09     BEQ                             A:55 X:55 Y:A4 P:24 SP:F9 PPU:218, 50
F9B1  30 07     BMI                             A:55 X:55 Y:A4 P:24 SP:F9 PPU:224, 50
F9B3  70 05     BVS                             A:55 X:55 Y:A4 P:24 SP:F9 PPU:230, 50
F9B5  C9 55     CMP                             A:55 X:55 Y:A4 P:24 SP:F9 PPU:236, 50
F9B7  D0 01     BNE                             A:55 X:55 Y:A4 P:27 SP:F9 PPU:242, 50
F9B9  60        RTS                             A:55 X:55 Y:A4 P:27 SP:F9 PPU:248, 50
D43D  C8        INY                             A:55 X:55 Y:A4 P:27 SP:FB PPU:266, 50
D43E  20 BD F9  JSR                             A:55 X:55 Y:A5 P:A5 SP:FB PPU:272, 50
F9BD  24 01     BIT                             A:55 X:55 Y:A5 P:A5 SP:F9 PPU:290, 50
F9BF  38        SEC                             A:55 X:55 Y:A5 P:E5 SP:F9 PPU:299, 50
F9C0  A9 80     LDA                             A:55 X:55 Y:A5 P:E5 SP:F9 PPU:305, 50
F9C2  60        RTS                             A:80 X:55 Y:A5 P:E5 SP:F9 PPU:311, 50
D441  85 78     STA                             A:80 X:55 Y:A5 P:E5 SP:FB PPU:329, 50
D443  06 78     ASL                             A:80 X:55 Y:A5 P:E5 SP:FB PPU:338, 50
D445  A5 78     LDA                             A:80 X:55 Y:A5 P:67 SP:FB PPU: 12, 51
D447  20 C3 F9  JSR                             A:00 X:55 Y:A5 P:67 SP:FB PPU: 21, 51
F9C3  90 1C     BCC                             A:00 X:55 Y:A5 P:67 SP:F9 PPU: 39, 51
F9C5  D0 1A     BNE                             A:00 X:55 Y:A5 P:67 SP:F9 PPU: 45, 51
F9C7  30 18     BMI                             A:00 X:55 Y:A5 P:67 SP:F9 PPU: 51, 51
F9C9  50 16     BVC                             A:00 X:55 Y:A5 P:67 SP:F9 PPU: 57, 51
F9CB  C9 00     CMP                             A:00 X:55 Y:A5 P:67 SP:F9 PPU: 63, 51
F9CD  D0 12     BNE                             A:00 X:55 Y:A5 P:67 SP:F9 PPU: 69, 51
F9CF  B8        CLV                             A:00 X:55 Y:A5 P:67 SP:F9 PPU: 75, 51
F9D0  A9 55     LDA                             A:00 X:55 Y:A5 P:27 SP:F9 PPU: 81, 51
F9D2  38        SEC                             A:55 X:55 Y:A5 P:25 SP:F9 PPU: 87, 51
F9D3  60        RTS                             A:55 X:55 Y:A5 P:25 SP:F9 PPU: 93, 51
D44A  C8        INY                             A:55 X:55 Y:A5 P:25 SP:FB PPU:111, 51
D44B  85 78     STA                             A:55 X:55 Y:A6 P:A5 SP:FB PPU:117, 51
D44D  06 78     ASL                             A:55 X:55 Y:A6 P:A5 SP:FB PPU:126, 51
D44F  A5 78     LDA                             A:55 X:55 Y:A6 P:A4 SP:FB PPU:141, 51
D451  20 D4 F9  JSR                             A:AA X:55 Y:A6 P:A4 SP:FB PPU:150, 51
F9D4  B0 0B     BCS                             A:AA X:55 Y:A6 P:A4 SP:F9 PPU:168, 51
F9D6  F0 09     BEQ                             A:AA X:55 Y:A6 P:A4 SP:F9 PPU:174, 51
F9D8  10 07     BPL                             A:AA X:55 Y:A6 P:A4 SP:F9 PPU:180, 51
F9DA  70 05     BVS                             A:AA X:55 Y:A6 P:A4 SP:F9 PPU:186, 51
F9DC  C9 AA     CMP                             A:AA X:55 Y:A6 P:A4 SP:F9 PPU:192, 51
F9DE  D0 01     BNE                             A:AA X:55 Y:A6 P:27 SP:F9 PPU:198, 51
F9E0  60        RTS                             A:AA X:55 Y:A6 P:27 SP:F9 PPU:204, 51
D454  C8        INY                             A:AA X:55 Y:A6 P:27 SP:FB PPU:222, 51
D455  20 E4 F9  JSR                             A:AA X:55 Y:A7 P:A5 SP:FB PPU:228, 51
F9E4  24 01     BIT                             A:AA X:55 Y:A7 P:A5 SP:F9 PPU:246, 51
F9E6  38        SEC                             A:AA X:55 Y:A7 P:E5 SP:F9 PPU:255, 51
F9E7  A9 01     LDA                             A:AA X:55 Y:A7 P:E5 SP:F9 PPU:261, 51
F9E9  60        RTS                             A:01 X:55 Y:A7 P:65 SP:F9 PPU:267, 51
D458  85 78     STA                             A:01 X:55 Y:A7 P:65 SP:FB PPU:285, 51
D45A  66 78     ROR                             A:01 X:55 Y:A7 P:65 SP:FB PPU:294, 51
D45C  A5 78     LDA                             A:01 X:55 Y:A7 P:E5 SP:FB PPU:309, 51
D45E  20 EA F9  JSR                             A:80 X:55 Y:A7 P:E5 SP:FB PPU:318, 51
F9EA  90 1C     BCC                             A:80 X:55 Y:A7 P:E5 SP:F9 PPU:336, 51
F9EC  F0 1A     BEQ                             A:80 X:55 Y:A7 P:E5 SP:F9 PPU:  1, 52
F9EE  10 18     BPL                             A:80 X:55 Y:A7 P:E5 SP:F9 PPU:  7, 52
F9F0  50 16     BVC                             A:80 X:55 Y:A7 P:E5 SP:F9 PPU: 13, 52
F9F2  C9 80     CMP                             A:80 X:55 Y:A7 P:E5 SP:F9 PPU: 19, 52
F9F4  D0 12     BNE                             A:80 X:55 Y:A7 P:67 SP:F9 PPU: 25, 52
F9F6  B8        CLV                             A:80 X:55 Y:A7 P:67 SP:F9 PPU: 31, 52
F9F7  18        CLC                             A:80 X:55 Y:A7 P:27 SP:F9 PPU: 37, 52
F9F8  A9 55     LDA                             A:80 X:55 Y:A7 P:26 SP:F9 PPU: 43, 52
F9FA  60        RTS                             A:55 X:55 Y:A7 P:24 SP:F9 PPU: 49, 52
D461  C8        INY                             A:55 X:55 Y:A7 P:24 SP:FB PPU: 67, 52
D462  85 78     STA                             A:55 X:55 Y:A8 P:A4 SP:FB PPU: 73, 52
D464  66 78     ROR                             A:55 X:55 Y:A8 P:A4 SP:FB PPU: 82, 52
D466  A5 78     LDA                             A:55 X:55 Y:A8 P:25 SP:FB PPU: 97, 52
D468  20 FB F9  JSR                             A:2A X:55 Y:A8 P:25 SP:FB PPU:106, 52
F9FB  90 0B     BCC                             A:2A X:55 Y:A8 P:25 SP:F9 PPU:124, 52
F9FD  F0 09     BEQ                             A:2A X:55 Y:A8 P:25 SP:F9 PPU:130, 52
F9FF  30 07     BMI                             A:2A X:55 Y:A8 P:25 SP:F9 PPU:136, 52
FA01  70 05     BVS                             A:2A X:55 Y:A8 P:25 SP:F9 PPU:142, 52
FA03  C9 2A     CMP                             A:2A X:55 Y:A8 P:25 SP:F9 PPU:148, 52
FA05  D0 01     BNE                             A:2A X:55 Y:A8 P:27 SP:F9 PPU:154, 52
FA07  60        RTS                             A:2A X:55 Y:A8 P:27 SP:F9 PPU:160, 52
D46B  C8        INY                             A:2A X:55 Y:A8 P:27 SP:FB PPU:178, 52
D46C  20 0A FA  JSR                             A:2A X:55 Y:A9 P:A5 SP:FB PPU:184, 52
FA0A  24 01     BIT                             A:2A X:55 Y:A9 P:A5 SP:F9 PPU:202, 52
FA0C  38        SEC                             A:2A X:55 Y:A9 P:E5 SP:F9 PPU:211, 52
FA0D  A9 80     LDA                             A:2A X:55 Y:A9 P:E5 SP:F9 PPU:217, 52
FA0F  60        RTS                             A:80 X:55 Y:A9 P:E5 SP:F9 PPU:223, 52
D46F  85 78     STA                             A:80 X:55 Y:A9 P:E5 SP:FB PPU:241, 52
D471  26 78     ROL                             A:80 X:55 Y:A9 P:E5 SP:FB PPU:250, 52
D473  A5 78     LDA                             A:80 X:55 Y:A9 P:65 SP:FB PPU:265, 52
D475  20 10 FA  JSR                             A:01 X:55 Y:A9 P:65 SP:FB PPU:274, 52
FA10  90 1C     BCC                             A:01 X:55 Y:A9 P:65 SP:F9 PPU:292, 52
FA12  F0 1A     BEQ                             A:01 X:55 Y:A9 P:65 SP:F9 PPU:298, 52
FA14  30 18     BMI                             A:01 X:55 Y:A9 P:65 SP:F9 PPU:304, 52
FA16  50 16     BVC                             A:01 X:55 Y:A9 P:65 SP:F9 PPU:310, 52
FA18  C9 01     CMP                             A:01 X:55 Y:A9 P:65 SP:F9 PPU:316, 52
FA1A  D0 12     BNE                             A:01 X:55 Y:A9 P:67 SP:F9 PPU:322, 52
FA1C  B8        CLV                             A:01 X:55 Y:A9 P:67 SP:F9 PPU:328, 52
FA1D  18        CLC                             A:01 X:55 Y:A9 P:27 SP:F9 PPU:334, 52
FA1E  A9 55     LDA                             A:01 X:55 Y:A9 P:26 SP:F9 PPU:340, 52
FA20  60        RTS                             A:55 X:55 Y:A9 P:24 SP:F9 PPU:  5, 53
D478  C8        INY                             A:55 X:55 Y:A9 P:24 SP:FB PPU: 23, 53
D479  85 78     STA                             A:55 X:55 Y:AA P:A4 SP:FB PPU: 29, 53
D47B  26 78     ROL                             A:55 X:55 Y:AA P:A4 SP:FB PPU: 38, 53
D47D  A5 78     LDA                             A:55 X:55 Y:AA P:A4 SP:FB PPU: 53, 53
D47F  20 21 FA  JSR                             A:AA X:55 Y:AA P:A4 SP:FB PPU: 62, 53
FA21  B0 0B     BCS                             A:AA X:55 Y:AA P:A4 SP:F9 PPU: 80, 53
FA23  F0 09     BEQ                             A:AA X:55 Y:AA P:A4 SP:F9 PPU: 86, 53
FA25  10 07     BPL                             A:AA X:55 Y:AA P:A4 SP:F9 PPU: 92, 53
FA27  70 05     BVS                             A:AA X:55 Y:AA P:A4 SP:F9 PPU: 98, 53
FA29  C9 AA     CMP                             A:AA X:55 Y:AA P:A4 SP:F9 PPU:104, 53
FA2B  D0 01     BNE                             A:AA X:55 Y:AA P:27 SP:F9 PPU:110, 53
FA2D  60        RTS                             A:AA X:55 Y:AA P:27 SP:F9 PPU:116, 53
D482  A9 FF     LDA                             A:AA X:55 Y:AA P:27 SP:FB PPU:134, 53
D484  85 78     STA                             A:FF X:55 Y:AA P:A5 SP:FB PPU:140, 53
D486  85 01     STA                             A:FF X:55 Y:AA P:A5 SP:FB PPU:149, 53
D488  24 01     BIT                             A:FF X:55 Y:AA P:A5 SP:FB PPU:158, 53
D48A  38        SEC                             A:FF X:55 Y:AA P:E5 SP:FB PPU:167, 53
D48B  E6 78     INC                             A:FF X:55 Y:AA P:E5 SP:FB PPU:173, 53
D48D  D0 0C     BNE                             A:FF X:55 Y:AA P:67 SP:FB PPU:188, 53
D48F  30 0A     BMI                             A:FF X:55 Y:AA P:67 SP:FB PPU:194, 53
D491  50 08     BVC                             A:FF X:55 Y:AA P:67 SP:FB PPU:200, 53
D493  90 06     BCC                             A:FF X:55 Y:AA P:67 SP:FB PPU:206, 53
D495  A5 78     LDA                             A:FF X:55 Y:AA P:67 SP:FB PPU:212, 53
D497  C9 00     CMP                             A:00 X:55 Y:AA P:67 SP:FB PPU:221, 53
D499  F0 04     BEQ                             A:00 X:55 Y:AA P:67 SP:FB PPU:227, 53
D49F  A9 7F     LDA                             A:00 X:55 Y:AA P:67 SP:FB PPU:236, 53
D4A1  85 78     STA                             A:7F X:55 Y:AA P:65 SP:FB PPU:242, 53
D4A3  B8        CLV                             A:7F X:55 Y:AA P:65 SP:FB PPU:251, 53
D4A4  18        CLC                             A:7F X:55 Y:AA P:25 SP:FB PPU:257, 53
D4A5  E6 78     INC                             A:7F X:55 Y:AA P:24 SP:FB PPU:263, 53
D4A7  F0 0C     BEQ                             A:7F X:55 Y:AA P:A4 SP:FB PPU:278, 53
D4A9  10 0A     BPL                             A:7F X:55 Y:AA P:A4 SP:FB PPU:284, 53
D4AB  70 08     BVS                             A:7F X:55 Y:AA P:A4 SP:FB PPU:290, 53
D4AD  B0 06     BCS                             A:7F X:55 Y:AA P:A4 SP:FB PPU:296, 53
D4AF  A5 78     LDA                             A:7F X:55 Y:AA P:A4 SP:FB PPU:302, 53
D4B1  C9 80     CMP                             A:80 X:55 Y:AA P:A4 SP:FB PPU:311, 53
D4B3  F0 04     BEQ                             A:80 X:55 Y:AA P:27 SP:FB PPU:317, 53
D4B9  A9 00     LDA                             A:80 X:55 Y:AA P:27 SP:FB PPU:326, 53
D4BB  85 78     STA                             A:00 X:55 Y:AA P:27 SP:FB PPU:332, 53
D4BD  24 01     BIT                             A:00 X:55 Y:AA P:27 SP:FB PPU:  0, 54
D4BF  38        SEC                             A:00 X:55 Y:AA P:E7 SP:FB PPU:  9, 54
D4C0  C6 78     DEC                             A:00 X:55 Y:AA P:E7 SP:FB PPU: 15, 54
D4C2  F0 0C     BEQ                             A:00 X:55 Y:AA P:E5 SP:FB PPU: 30, 54
D4C4  10 0A     BPL                             A:00 X:55 Y:AA P:E5 SP:FB PPU: 36, 54
D4C6  50 08     BVC                             A:00 X:55 Y:AA P:E5 SP:FB PPU: 42, 54
D4C8  90 06     BCC                             A:00 X:55 Y:AA P:E5 SP:FB PPU: 48, 54
D4CA  A5 78     LDA                             A:00 X:55 Y:AA P:E5 SP:FB PPU: 54, 54
D4CC  C9 FF     CMP                             A:FF X:55 Y:AA P:E5 SP:FB PPU: 63, 54
D4CE  F0 04     BEQ                             A:FF X:55 Y:AA P:67 SP:FB PPU: 69, 54
D4D4  A9 80     LDA                             A:FF X:55 Y:AA P:67 SP:FB PPU: 78, 54
D4D6  85 78     STA                             A:80 X:55 Y:AA P:E5 SP:FB PPU: 84, 54
D4D8  B8        CLV                             A:80 X:55 Y:AA P:E5 SP:FB PPU: 93, 54
D4D9  18        CLC                             A:80 X:55 Y:AA P:A5 SP:FB PPU: 99, 54
D4DA  C6 78     DEC                             A:80 X:55 Y:AA P:A4 SP:FB PPU:105, 54
D4DC  F0 0C     BEQ                             A:80 X:55 Y:AA P:24 SP:FB PPU:120, 54
D4DE  30 0A     BMI                             A:80 X:55 Y:AA P:24 SP:FB PPU:126, 54
D4E0  70 08     BVS                             A:80 X:55 Y:AA P:24 SP:FB PPU:132, 54
D4E2  B0 06     BCS                             A:80 X:55 Y:AA P:24 SP:FB PPU:138, 54
D4E4  A5 78     LDA                             A:80 X:55 Y:AA P:24 SP:FB PPU:144, 54
D4E6  C9 7F     CMP                             A:7F X:55 Y:AA P:24 SP:FB PPU:153, 54
D4E8  F0 04     BEQ                             A:7F X:55 Y:AA P:27 SP:FB PPU:159, 54
D4EE  A9 01     LDA                             A:7F X:55 Y:AA P:27 SP:FB PPU:168, 54
D4F0  85 78     STA                             A:01 X:55 Y:AA P:25 SP:FB PPU:174, 54
D4F2  C6 78     DEC                             A:01 X:55 Y:AA P:25 SP:FB PPU:183, 54
D4F4  F0 04     BEQ                             A:01 X:55 Y:AA P:27 SP:FB PPU:198, 54
D4FA  60        RTS                             A:01 X:55 Y:AA P:27 SP:FB PPU:207, 54
C615  20 FB D4  JSR                             A:01 X:55 Y:AA P:27 SP:FD PPU:225, 54
D4FB  A9 55     LDA                             A:01 X:55 Y:AA P:27 SP:FB PPU:243, 54
D4FD  8D 78 06  STA                             A:55 X:55 Y:AA P:25 SP:FB PPU:249, 54
D500  A9 FF     LDA                             A:55 X:55 Y:AA P:25 SP:FB PPU:261, 54
D502  85 01     STA                             A:FF X:55 Y:AA P:A5 SP:FB PPU:267, 54
D504  24 01     BIT                             A:FF X:55 Y:AA P:A5 SP:FB PPU:276, 54
D506  A0 11     LDY                             A:FF X:55 Y:AA P:E5 SP:FB PPU:285, 54
D508  A2 23     LDX                             A:FF X:55 Y:11 P:65 SP:FB PPU:291, 54
D50A  A9 00     LDA                             A:FF X:23 Y:11 P:65 SP:FB PPU:297, 54
D50C  AD 78 06  LDA                             A:00 X:23 Y:11 P:67 SP:FB PPU:303, 54
D50F  F0 10     BEQ                             A:55 X:23 Y:11 P:65 SP:FB PPU:315, 54
D511  30 0E     BMI                             A:55 X:23 Y:11 P:65 SP:FB PPU:321, 54
D513  C9 55     CMP                             A:55 X:23 Y:11 P:65 SP:FB PPU:327, 54
D515  D0 0A     BNE                             A:55 X:23 Y:11 P:67 SP:FB PPU:333, 54
D517  C0 11     CPY                             A:55 X:23 Y:11 P:67 SP:FB PPU:339, 54
D519  D0 06     BNE                             A:55 X:23 Y:11 P:67 SP:FB PPU:  4, 55
D51B  E0 23     CPX                             A:55 X:23 Y:11 P:67 SP:FB PPU: 10, 55
D51D  50 02     BVC                             A:55 X:23 Y:11 P:67 SP:FB PPU: 16, 55
D51F  F0 04     BEQ                             A:55 X:23 Y:11 P:67 SP:FB PPU: 22, 55
D525  A9 46     LDA                             A:55 X:23 Y:11 P:67 SP:FB PPU: 31, 55
D527  24 01     BIT                             A:46 X:23 Y:11 P:65 SP:FB PPU: 37, 55
D529  8D 78 06  STA                             A:46 X:23 Y:11 P:E5 SP:FB PPU: 46, 55
D52C  F0 0B     BEQ                             A:46 X:23 Y:11 P:E5 SP:FB PPU: 58, 55
D52E  10 09     BPL                             A:46 X:23 Y:11 P:E5 SP:FB PPU: 64, 55
D530  50 07     BVC                             A:46 X:23 Y:11 P:E5 SP:FB PPU: 70, 55
D532  AD 78 06  LDA                             A:46 X:23 Y:11 P:E5 SP:FB PPU: 76, 55
D535  C9 46     CMP                             A:46 X:23 Y:11 P:65 SP:FB PPU: 88, 55
D537  F0 04     BEQ                             A:46 X:23 Y:11 P:67 SP:FB PPU: 94, 55
D53D  A9 55     LDA                             A:46 X:23 Y:11 P:67 SP:FB PPU:103, 55
D53F  8D 78 06  STA                             A:55 X:23 Y:11 P:65 SP:FB PPU:109, 55
D542  24 01     BIT                             A:55 X:23 Y:11 P:65 SP:FB PPU:121, 55
D544  A9 11     LDA                             A:55 X:23 Y:11 P:E5 SP:FB PPU:130, 55
D546  A2 23     LDX                             A:11 X:23 Y:11 P:65 SP:FB PPU:136, 55
D548  A0 00     LDY                             A:11 X:23 Y:11 P:65 SP:FB PPU:142, 55
D54A  AC 78 06  LDY                             A:11 X:23 Y:00 P:67 SP:FB PPU:148, 55
D54D  F0 10     BEQ                             A:11 X:23 Y:55 P:65 SP:FB PPU:160, 55
D54F  30 0E     BMI                             A:11 X:23 Y:55 P:65 SP:FB PPU:166, 55
D551  C0 55     CPY                             A:11 X:23 Y:55 P:65 SP:FB PPU:172, 55
D553  D0 0A     BNE                             A:11 X:23 Y:55 P:67 SP:FB PPU:178, 55
D555  C9 11     CMP                             A:11 X:23 Y:55 P:67 SP:FB PPU:184, 55
D557  D0 06     BNE                             A:11 X:23 Y:55 P:67 SP:FB PPU:190, 55
D559  E0 23     CPX                             A:11 X:23 Y:55 P:67 SP:FB PPU:196, 55
D55B  50 02     BVC                             A:11 X:23 Y:55 P:67 SP:FB PPU:202, 55
D55D  F0 04     BEQ                             A:11 X:23 Y:55 P:67 SP:FB PPU:208, 55
D563  A0 46     LDY                             A:11 X:23 Y:55 P:67 SP:FB PPU:217, 55
D565  24 01     BIT                             A:11 X:23 Y:46 P:65 SP:FB PPU:223, 55
D567  8C 78 06  STY                             A:11 X:23 Y:46 P:E5 SP:FB PPU:232, 55
D56A  F0 0B     BEQ                             A:11 X:23 Y:46 P:E5 SP:FB PPU:244, 55
D56C  10 09     BPL                             A:11 X:23 Y:46 P:E5 SP:FB PPU:250, 55
D56E  50 07     BVC                             A:11 X:23 Y:46 P:E5 SP:FB PPU:256, 55
D570  AC 78 06  LDY                             A:11 X:23 Y:46 P:E5 SP:FB PPU:262, 55
D573  C0 46     CPY                             A:11 X:23 Y:46 P:65 SP:FB PPU:274, 55
D575  F0 04     BEQ                             A:11 X:23 Y:46 P:67 SP:FB PPU:280, 55
D57B  24 01     BIT                             A:11 X:23 Y:46 P:67 SP:FB PPU:289, 55
D57D  A9 55     LDA                             A:11 X:23 Y:46 P:E5 SP:FB PPU:298, 55
D57F  8D 78 06  STA                             A:55 X:23 Y:46 P:65 SP:FB PPU:304, 55
D582  A0 11     LDY                             A:55 X:23 Y:46 P:65 SP:FB PPU:316, 55
D584  A9 23     LDA                             A:55 X:23 Y:11 P:65 SP:FB PPU:322, 55
D586  A2 00     LDX                             A:23 X:23 Y:11 P:65 SP:FB PPU:328, 55
D588  AE 78 06  LDX                             A:23 X:00 Y:11 P:67 SP:FB PPU:334, 55
D58B  F0 10     BEQ                             A:23 X:55 Y:11 P:65 SP:FB PPU:  5, 56
D58D  30 0E     BMI                             A:23 X:55 Y:11 P:65 SP:FB PPU: 11, 56
D58F  E0 55     CPX                             A:23 X:55 Y:11 P:65 SP:FB PPU: 17, 56
D591  D0 0A     BNE                             A:23 X:55 Y:11 P:67 SP:FB PPU: 23, 56
D593  C0 11     CPY                             A:23 X:55 Y:11 P:67 SP:FB PPU: 29, 56
D595  D0 06     BNE                             A:23 X:55 Y:11 P:67 SP:FB PPU: 35, 56
D597  C9 23     CMP                             A:23 X:55 Y:11 P:67 SP:FB PPU: 41, 56
D599  50 02     BVC                             A:23 X:55 Y:11 P:67 SP:FB PPU: 47, 56
D59B  F0 04     BEQ                             A:23 X:55 Y:11 P:67 SP:FB PPU: 53, 56
D5A1  A2 46     LDX                             A:23 X:55 Y:11 P:67 SP:FB PPU: 62, 56
D5A3  24 01     BIT                             A:23 X:46 Y:11 P:65 SP:FB PPU: 68, 56
D5A5  8E 78 06  STX                             A:23 X:46 Y:11 P:E5 SP:FB PPU: 77, 56
D5A8  F0 0B     BEQ                             A:23 X:46 Y:11 P:E5 SP:FB PPU: 89, 56
D5AA  10 09     BPL                             A:23 X:46 Y:11 P:E5 SP:FB PPU: 95, 56
D5AC  50 07     BVC                             A:23 X:46 Y:11 P:E5 SP:FB PPU:101, 56
D5AE  AE 78 06  LDX                             A:23 X:46 Y:11 P:E5 SP:FB PPU:107, 56
D5B1  E0 46     CPX                             A:23 X:46 Y:11 P:65 SP:FB PPU:119, 56
D5B3  F0 04     BEQ                             A:23 X:46 Y:11 P:67 SP:FB PPU:125, 56
D5B9  A9 C0     LDA                             A:23 X:46 Y:11 P:67 SP:FB PPU:134, 56
D5BB  8D 78 06  STA                             A:C0 X:46 Y:11 P:E5 SP:FB PPU:140, 56
D5BE  A2 33     LDX                             A:C0 X:46 Y:11 P:E5 SP:FB PPU:152, 56
D5C0  A0 88     LDY                             A:C0 X:33 Y:11 P:65 SP:FB PPU:158, 56
D5C2  A9 05     LDA                             A:C0 X:33 Y:88 P:E5 SP:FB PPU:164, 56
D5C4  2C 78 06  BIT                             A:05 X:33 Y:88 P:65 SP:FB PPU:170, 56
D5C7  10 10     BPL                             A:05 X:33 Y:88 P:E7 SP:FB PPU:182, 56
D5C9  50 0E     BVC                             A:05 X:33 Y:88 P:E7 SP:FB PPU:188, 56
D5CB  D0 0C     BNE                             A:05 X:33 Y:88 P:E7 SP:FB PPU:194, 56
D5CD  C9 05     CMP                             A:05 X:33 Y:88 P:E7 SP:FB PPU:200, 56
D5CF  D0 08     BNE                             A:05 X:33 Y:88 P:67 SP:FB PPU:206, 56
D5D1  E0 33     CPX                             A:05 X:33 Y:88 P:67 SP:FB PPU:212, 56
D5D3  D0 04     BNE                             A:05 X:33 Y:88 P:67 SP:FB PPU:218, 56
D5D5  C0 88     CPY                             A:05 X:33 Y:88 P:67 SP:FB PPU:224, 56
D5D7  F0 04     BEQ                             A:05 X:33 Y:88 P:67 SP:FB PPU:230, 56
D5DD  A9 03     LDA                             A:05 X:33 Y:88 P:67 SP:FB PPU:239, 56
D5DF  8D 78 06  STA                             A:03 X:33 Y:88 P:65 SP:FB PPU:245, 56
D5E2  A9 01     LDA                             A:03 X:33 Y:88 P:65 SP:FB PPU:257, 56
D5E4  2C 78 06  BIT                             A:01 X:33 Y:88 P:65 SP:FB PPU:263, 56
D5E7  30 08     BMI                             A:01 X:33 Y:88 P:25 SP:FB PPU:275, 56
D5E9  70 06     BVS                             A:01 X:33 Y:88 P:25 SP:FB PPU:281, 56
D5EB  F0 04     BEQ                             A:01 X:33 Y:88 P:25 SP:FB PPU:287, 56
D5ED  C9 01     CMP                             A:01 X:33 Y:88 P:25 SP:FB PPU:293, 56
D5EF  F0 04     BEQ                             A:01 X:33 Y:88 P:27 SP:FB PPU:299, 56
D5F5  A0 B8     LDY                             A:01 X:33 Y:88 P:27 SP:FB PPU:308, 56
D5F7  A9 AA     LDA                             A:01 X:33 Y:B8 P:A5 SP:FB PPU:314, 56
D5F9  8D 78 06  STA                             A:AA X:33 Y:B8 P:A5 SP:FB PPU:320, 56
D5FC  20 B6 F7  JSR                             A:AA X:33 Y:B8 P:A5 SP:FB PPU:332, 56
F7B6  18        CLC                             A:AA X:33 Y:B8 P:A5 SP:F9 PPU:  9, 57
F7B7  A9 FF     LDA                             A:AA X:33 Y:B8 P:A4 SP:F9 PPU: 15, 57
F7B9  85 01     STA                             A:FF X:33 Y:B8 P:A4 SP:F9 PPU: 21, 57
F7BB  24 01     BIT                             A:FF X:33 Y:B8 P:A4 SP:F9 PPU: 30, 57
F7BD  A9 55     LDA                             A:FF X:33 Y:B8 P:E4 SP:F9 PPU: 39, 57
F7BF  60        RTS                             A:55 X:33 Y:B8 P:64 SP:F9 PPU: 45, 57
D5FF  0D 78 06  ORA                             A:55 X:33 Y:B8 P:64 SP:FB PPU: 63, 57
D602  20 C0 F7  JSR                             A:FF X:33 Y:B8 P:E4 SP:FB PPU: 75, 57
F7C0  B0 09     BCS                             A:FF X:33 Y:B8 P:E4 SP:F9 PPU: 93, 57
F7C2  10 07     BPL                             A:FF X:33 Y:B8 P:E4 SP:F9 PPU: 99, 57
F7C4  C9 FF     CMP                             A:FF X:33 Y:B8 P:E4 SP:F9 PPU:105, 57
F7C6  D0 03     BNE                             A:FF X:33 Y:B8 P:67 SP:F9 PPU:111, 57
F7C8  50 01     BVC                             A:FF X:33 Y:B8 P:67 SP:F9 PPU:117, 57
F7CA  60        RTS                             A:FF X:33 Y:B8 P:67 SP:F9 PPU:123, 57
D605  C8        INY                             A:FF X:33 Y:B8 P:67 SP:FB PPU:141, 57
D606  A9 00     LDA                             A:FF X:33 Y:B9 P:E5 SP:FB PPU:147, 57
D608  8D 78 06  STA                             A:00 X:33 Y:B9 P:67 SP:FB PPU:153, 57
D60B  20 CE F7  JSR                             A:00 X:33 Y:B9 P:67 SP:FB PPU:165, 57
F7CE  38        SEC                             A:00 X:33 Y:B9 P:67 SP:F9 PPU:183, 57
F7CF  B8        CLV                             A:00 X:33 Y:B9 P:67 SP:F9 PPU:189, 57
F7D0  A9 00     LDA                             A:00 X:33 Y:B9 P:27 SP:F9 PPU:195, 57
F7D2  60        RTS                             A:00 X:33 Y:B9 P:27 SP:F9 PPU:201, 57
D60E  0D 78 06  ORA                             A:00 X:33 Y:B9 P:27 SP:FB PPU:219, 57
D611  20 D3 F7  JSR                             A:00 X:33 Y:B9 P:27 SP:FB PPU:231, 57
F7D3  D0 07     BNE                             A:00 X:33 Y:B9 P:27 SP:F9 PPU:249, 57
F7D5  70 05     BVS                             A:00 X:33 Y:B9 P:27 SP:F9 PPU:255, 57
F7D7  90 03     BCC                             A:00 X:33 Y:B9 P:27 SP:F9 PPU:261, 57
F7D9  30 01     BMI                             A:00 X:33 Y:B9 P:27 SP:F9 PPU:267, 57
F7DB  60        RTS                             A:00 X:33 Y:B9 P:27 SP:F9 PPU:273, 57
D614  C8        INY                             A:00 X:33 Y:B9 P:27 SP:FB PPU:291, 57
D615  A9 AA     LDA                             A:00 X:33 Y:BA P:A5 SP:FB PPU:297, 57
D617  8D 78 06  STA                             A:AA X:33 Y:BA P:A5 SP:FB PPU:303, 57
D61A  20 DF F7  JSR                             A:AA X:33 Y:BA P:A5 SP:FB PPU:315, 57
F7DF  18        CLC                             A:AA X:33 Y:BA P:A5 SP:F9 PPU:333, 57
F7E0  24 01     BIT                             A:AA X:33 Y:BA P:A4 SP:F9 PPU:339, 57
F7E2  A9 55     LDA                             A:AA X:33 Y:BA P:E4 SP:F9 PPU:  7, 58
F7E4  60        RTS                             A:55 X:33 Y:BA P:64 SP:F9 PPU: 13, 58
D61D  2D 78 06  AND                             A:55 X:33 Y:BA P:64 SP:FB PPU: 31, 58
D620  20 E5 F7  JSR                             A:00 X:33 Y:BA P:66 SP:FB PPU: 43, 58
F7E5  D0 07     BNE                             A:00 X:33 Y:BA P:66 SP:F9 PPU: 61, 58
F7E7  50 05     BVC                             A:00 X:33 Y:BA P:66 SP:F9 PPU: 67, 58
F7E9  B0 03     BCS                             A:00 X:33 Y:BA P:66 SP:F9 PPU: 73, 58
F7EB  30 01     BMI                             A:00 X:33 Y:BA P:66 SP:F9 PPU: 79, 58
F7ED  60        RTS                             A:00 X:33 Y:BA P:66 SP:F9 PPU: 85, 58
D623  C8        INY                             A:00 X:33 Y:BA P:66 SP:FB PPU:103, 58
D624  A9 EF     LDA                             A:00 X:33 Y:BB P:E4 SP:FB PPU:109, 58
D626  8D 78 06  STA                             A:EF X:33 Y:BB P:E4 SP:FB PPU:115, 58
D629  20 F1 F7  JSR                             A:EF X:33 Y:BB P:E4 SP:FB PPU:127, 58
F7F1  38        SEC                             A:EF X:33 Y:BB P:E4 SP:F9 PPU:145, 58
F7F2  B8        CLV                             A:EF X:33 Y:BB P:E5 SP:F9 PPU:151, 58
F7F3  A9 F8     LDA                             A:EF X:33 Y:BB P:A5 SP:F9 PPU:157, 58
F7F5  60        RTS                             A:F8 X:33 Y:BB P:A5 SP:F9 PPU:163, 58
D62C  2D 78 06  AND                             A:F8 X:33 Y:BB P:A5 SP:FB PPU:181, 58
D62F  20 F6 F7  JSR                             A:E8 X:33 Y:BB P:A5 SP:FB PPU:193, 58
F7F6  90 09     BCC                             A:E8 X:33 Y:BB P:A5 SP:F9 PPU:211, 58
F7F8  10 07     BPL                             A:E8 X:33 Y:BB P:A5 SP:F9 PPU:217, 58
F7FA  C9 E8     CMP                             A:E8 X:33 Y:BB P:A5 SP:F9 PPU:223, 58
F7FC  D0 03     BNE                             A:E8 X:33 Y:BB P:27 SP:F9 PPU:229, 58
F7FE  70 01     BVS                             A:E8 X:33 Y:BB P:27 SP:F9 PPU:235, 58
F800  60        RTS                             A:E8 X:33 Y:BB P:27 SP:F9 PPU:241, 58
D632  C8        INY                             A:E8 X:33 Y:BB P:27 SP:FB PPU:259, 58
D633  A9 AA     LDA                             A:E8 X:33 Y:BC P:A5 SP:FB PPU:265, 58
D635  8D 78 06  STA                             A:AA X:33 Y:BC P:A5 SP:FB PPU:271, 58
D638  20 04 F8  JSR                             A:AA X:33 Y:BC P:A5 SP:FB PPU:283, 58
F804  18        CLC                             A:AA X:33 Y:BC P:A5 SP:F9 PPU:301, 58
F805  24 01     BIT                             A:AA X:33 Y:BC P:A4 SP:F9 PPU:307, 58
F807  A9 5F     LDA                             A:AA X:33 Y:BC P:E4 SP:F9 PPU:316, 58
F809  60        RTS                             A:5F X:33 Y:BC P:64 SP:F9 PPU:322, 58
D63B  4D 78 06  EOR                             A:5F X:33 Y:BC P:64 SP:FB PPU:340, 58
D63E  20 0A F8  JSR                             A:F5 X:33 Y:BC P:E4 SP:FB PPU: 11, 59
F80A  B0 09     BCS                             A:F5 X:33 Y:BC P:E4 SP:F9 PPU: 29, 59
F80C  10 07     BPL                             A:F5 X:33 Y:BC P:E4 SP:F9 PPU: 35, 59
F80E  C9 F5     CMP                             A:F5 X:33 Y:BC P:E4 SP:F9 PPU: 41, 59
F810  D0 03     BNE                             A:F5 X:33 Y:BC P:67 SP:F9 PPU: 47, 59
F812  50 01     BVC                             A:F5 X:33 Y:BC P:67 SP:F9 PPU: 53, 59
F814  60        RTS                             A:F5 X:33 Y:BC P:67 SP:F9 PPU: 59, 59
D641  C8        INY                             A:F5 X:33 Y:BC P:67 SP:FB PPU: 77, 59
D642  A9 70     LDA                             A:F5 X:33 Y:BD P:E5 SP:FB PPU: 83, 59
D644  8D 78 06  STA                             A:70 X:33 Y:BD P:65 SP:FB PPU: 89, 59
D647  20 18 F8  JSR                             A:70 X:33 Y:BD P:65 SP:FB PPU:101, 59
F818  38        SEC                             A:70 X:33 Y:BD P:65 SP:F9 PPU:119, 59
F819  B8        CLV                             A:70 X:33 Y:BD P:65 SP:F9 PPU:125, 59
F81A  A9 70     LDA                             A:70 X:33 Y:BD P:25 SP:F9 PPU:131, 59
F81C  60        RTS                             A:70 X:33 Y:BD P:25 SP:F9 PPU:137, 59
D64A  4D 78 06  EOR                             A:70 X:33 Y:BD P:25 SP:FB PPU:155, 59
D64D  20 1D F8  JSR                             A:00 X:33 Y:BD P:27 SP:FB PPU:167, 59
F81D  D0 07     BNE                             A:00 X:33 Y:BD P:27 SP:F9 PPU:185, 59
F81F  70 05     BVS                             A:00 X:33 Y:BD P:27 SP:F9 PPU:191, 59
F821  90 03     BCC                             A:00 X:33 Y:BD P:27 SP:F9 PPU:197, 59
F823  30 01     BMI                             A:00 X:33 Y:BD P:27 SP:F9 PPU:203, 59
F825  60        RTS                             A:00 X:33 Y:BD P:27 SP:F9 PPU:209, 59
D650  C8        INY                             A:00 X:33 Y:BD P:27 SP:FB PPU:227, 59
D651  A9 69     LDA                             A:00 X:33 Y:BE P:A5 SP:FB PPU:233, 59
D653  8D 78 06  STA                             A:69 X:33 Y:BE P:25 SP:FB PPU:239, 59
D656  20 29 F8  JSR                             A:69 X:33 Y:BE P:25 SP:FB PPU:251, 59
F829  18        CLC                             A:69 X:33 Y:BE P:25 SP:F9 PPU:269, 59
F82A  24 01     BIT                             A:69 X:33 Y:BE P:24 SP:F9 PPU:275, 59
F82C  A9 00     LDA                             A:69 X:33 Y:BE P:E4 SP:F9 PPU:284, 59
F82E  60        RTS                             A:00 X:33 Y:BE P:66 SP:F9 PPU:290, 59
D659  6D 78 06  ADC                             A:00 X:33 Y:BE P:66 SP:FB PPU:308, 59
D65C  20 2F F8  JSR                             A:69 X:33 Y:BE P:24 SP:FB PPU:320, 59
F82F  30 09     BMI                             A:69 X:33 Y:BE P:24 SP:F9 PPU:338, 59
F831  B0 07     BCS                             A:69 X:33 Y:BE P:24 SP:F9 PPU:  3, 60
F833  C9 69     CMP                             A:69 X:33 Y:BE P:24 SP:F9 PPU:  9, 60
F835  D0 03     BNE                             A:69 X:33 Y:BE P:27 SP:F9 PPU: 15, 60
F837  70 01     BVS                             A:69 X:33 Y:BE P:27 SP:F9 PPU: 21, 60
F839  60        RTS                             A:69 X:33 Y:BE P:27 SP:F9 PPU: 27, 60
D65F  C8        INY                             A:69 X:33 Y:BE P:27 SP:FB PPU: 45, 60
D660  20 3D F8  JSR                             A:69 X:33 Y:BF P:A5 SP:FB PPU: 51, 60
F83D  38        SEC                             A:69 X:33 Y:BF P:A5 SP:F9 PPU: 69, 60
F83E  24 01     BIT                             A:69 X:33 Y:BF P:A5 SP:F9 PPU: 75, 60
F840  A9 00     LDA                             A:69 X:33 Y:BF P:E5 SP:F9 PPU: 84, 60
F842  60        RTS                             A:00 X:33 Y:BF P:67 SP:F9 PPU: 90, 60
D663  6D 78 06  ADC                             A:00 X:33 Y:BF P:67 SP:FB PPU:108, 60
D666  20 43 F8  JSR                             A:6A X:33 Y:BF P:24 SP:FB PPU:120, 60
F843  30 09     BMI                             A:6A X:33 Y:BF P:24 SP:F9 PPU:138, 60
F845  B0 07     BCS                             A:6A X:33 Y:BF P:24 SP:F9 PPU:144, 60
F847  C9 6A     CMP                             A:6A X:33 Y:BF P:24 SP:F9 PPU:150, 60
F849  D0 03     BNE                             A:6A X:33 Y:BF P:27 SP:F9 PPU:156, 60
F84B  70 01     BVS                             A:6A X:33 Y:BF P:27 SP:F9 PPU:162, 60
F84D  60        RTS                             A:6A X:33 Y:BF P:27 SP:F9 PPU:168, 60
D669  C8        INY                             A:6A X:33 Y:BF P:27 SP:FB PPU:186, 60
D66A  A9 7F     LDA                             A:6A X:33 Y:C0 P:A5 SP:FB PPU:192, 60
D66C  8D 78 06  STA                             A:7F X:33 Y:C0 P:25 SP:FB PPU:198, 60
D66F  20 51 F8  JSR                             A:7F X:33 Y:C0 P:25 SP:FB PPU:210, 60
F851  38        SEC                             A:7F X:33 Y:C0 P:25 SP:F9 PPU:228, 60
F852  B8        CLV                             A:7F X:33 Y:C0 P:25 SP:F9 PPU:234, 60
F853  A9 7F     LDA                             A:7F X:33 Y:C0 P:25 SP:F9 PPU:240, 60
F855  60        RTS                             A:7F X:33 Y:C0 P:25 SP:F9 PPU:246, 60
D672  6D 78 06  ADC                             A:7F X:33 Y:C0 P:25 SP:FB PPU:264, 60
D675  20 56 F8  JSR                             A:FF X:33 Y:C0 P:E4 SP:FB PPU:276, 60
F856  10 09     BPL                             A:FF X:33 Y:C0 P:E4 SP:F9 PPU:294, 60
F858  B0 07     BCS                             A:FF X:33 Y:C0 P:E4 SP:F9 PPU:300, 60
F85A  C9 FF     CMP                             A:FF X:33 Y:C0 P:E4 SP:F9 PPU:306, 60
F85C  D0 03     BNE                             A:FF X:33 Y:C0 P:67 SP:F9 PPU:312, 60
F85E  50 01     BVC                             A:FF X:33 Y:C0 P:67 SP:F9 PPU:318, 60
F860  60        RTS                             A:FF X:33 Y:C0 P:67 SP:F9 PPU:324, 60
D678  C8        INY                             A:FF X:33 Y:C0 P:67 SP:FB PPU:  1, 61
D679  A9 80     LDA                             A:FF X:33 Y:C1 P:E5 SP:FB PPU:  7, 61
D67B  8D 78 06  STA                             A:80 X:33 Y:C1 P:E5 SP:FB PPU: 13, 61
D67E  20 64 F8  JSR                             A:80 X:33 Y:C1 P:E5 SP:FB PPU: 25, 61
F864  18        CLC                             A:80 X:33 Y:C1 P:E5 SP:F9 PPU: 43, 61
F865  24 01     BIT                             A:80 X:33 Y:C1 P:E4 SP:F9 PPU: 49, 61
F867  A9 7F     LDA                             A:80 X:33 Y:C1 P:E4 SP:F9 PPU: 58, 61
F869  60        RTS                             A:7F X:33 Y:C1 P:64 SP:F9 PPU: 64, 61
D681  6D 78 06  ADC                             A:7F X:33 Y:C1 P:64 SP:FB PPU: 82, 61
D684  20 6A F8  JSR                             A:FF X:33 Y:C1 P:A4 SP:FB PPU: 94, 61
F86A  10 09     BPL                             A:FF X:33 Y:C1 P:A4 SP:F9 PPU:112, 61
F86C  B0 07     BCS                             A:FF X:33 Y:C1 P:A4 SP:F9 PPU:118, 61
F86E  C9 FF     CMP                             A:FF X:33 Y:C1 P:A4 SP:F9 PPU:124, 61
F870  D0 03     BNE                             A:FF X:33 Y:C1 P:27 SP:F9 PPU:130, 61
F872  70 01     BVS                             A:FF X:33 Y:C1 P:27 SP:F9 PPU:136, 61
F874  60        RTS                             A:FF X:33 Y:C1 P:27 SP:F9 PPU:142, 61
D687  C8        INY                             A:FF X:33 Y:C1 P:27 SP:FB PPU:160, 61
D688  20 78 F8  JSR                             A:FF X:33 Y:C2 P:A5 SP:FB PPU:166, 61
F878  38        SEC                             A:FF X:33 Y:C2 P:A5 SP:F9 PPU:184, 61
F879  B8        CLV                             A:FF X:33 Y:C2 P:A5 SP:F9 PPU:190, 61
F87A  A9 7F     LDA                             A:FF X:33 Y:C2 P:A5 SP:F9 PPU:196, 61
F87C  60        RTS                             A:7F X:33 Y:C2 P:25 SP:F9 PPU:202, 61
D68B  6D 78 06  ADC                             A:7F X:33 Y:C2 P:25 SP:FB PPU:220, 61
D68E  20 7D F8  JSR                             A:00 X:33 Y:C2 P:27 SP:FB PPU:232, 61
F87D  D0 07     BNE                             A:00 X:33 Y:C2 P:27 SP:F9 PPU:250, 61
F87F  30 05     BMI                             A:00 X:33 Y:C2 P:27 SP:F9 PPU:256, 61
F881  70 03     BVS                             A:00 X:33 Y:C2 P:27 SP:F9 PPU:262, 61
F883  90 01     BCC                             A:00 X:33 Y:C2 P:27 SP:F9 PPU:268, 61
F885  60        RTS                             A:00 X:33 Y:C2 P:27 SP:F9 PPU:274, 61
D691  C8        INY                             A:00 X:33 Y:C2 P:27 SP:FB PPU:292, 61
D692  A9 40     LDA                             A:00 X:33 Y:C3 P:A5 SP:FB PPU:298, 61
D694  8D 78 06  STA                             A:40 X:33 Y:C3 P:25 SP:FB PPU:304, 61
D697  20 89 F8  JSR                             A:40 X:33 Y:C3 P:25 SP:FB PPU:316, 61
F889  24 01     BIT                             A:40 X:33 Y:C3 P:25 SP:F9 PPU:334, 61
F88B  A9 40     LDA                             A:40 X:33 Y:C3 P:E5 SP:F9 PPU:  2, 62
F88D  60        RTS                             A:40 X:33 Y:C3 P:65 SP:F9 PPU:  8, 62
D69A  CD 78 06  CMP                             A:40 X:33 Y:C3 P:65 SP:FB PPU: 26, 62
D69D  20 8E F8  JSR                             A:40 X:33 Y:C3 P:67 SP:FB PPU: 38, 62
F88E  30 07     BMI                             A:40 X:33 Y:C3 P:67 SP:F9 PPU: 56, 62
F890  90 05     BCC                             A:40 X:33 Y:C3 P:67 SP:F9 PPU: 62, 62
F892  D0 03     BNE                             A:40 X:33 Y:C3 P:67 SP:F9 PPU: 68, 62
F894  50 01     BVC                             A:40 X:33 Y:C3 P:67 SP:F9 PPU: 74, 62
F896  60        RTS                             A:40 X:33 Y:C3 P:67 SP:F9 PPU: 80, 62
D6A0  C8        INY                             A:40 X:33 Y:C3 P:67 SP:FB PPU: 98, 62
D6A1  48        PHA                             A:40 X:33 Y:C4 P:E5 SP:FB PPU:104, 62
D6A2  A9 3F     LDA                             A:40 X:33 Y:C4 P:E5 SP:FA PPU:113, 62
D6A4  8D 78 06  STA                             A:3F X:33 Y:C4 P:65 SP:FA PPU:119, 62
D6A7  68        PLA                             A:3F X:33 Y:C4 P:65 SP:FA PPU:131, 62
D6A8  20 9A F8  JSR                             A:40 X:33 Y:C4 P:65 SP:FB PPU:143, 62
F89A  B8        CLV                             A:40 X:33 Y:C4 P:65 SP:F9 PPU:161, 62
F89B  60        RTS                             A:40 X:33 Y:C4 P:25 SP:F9 PPU:167, 62
D6AB  CD 78 06  CMP                             A:40 X:33 Y:C4 P:25 SP:FB PPU:185, 62
D6AE  20 9C F8  JSR                             A:40 X:33 Y:C4 P:25 SP:FB PPU:197, 62
F89C  F0 07     BEQ                             A:40 X:33 Y:C4 P:25 SP:F9 PPU:215, 62
F89E  30 05     BMI                             A:40 X:33 Y:C4 P:25 SP:F9 PPU:221, 62
F8A0  90 03     BCC                             A:40 X:33 Y:C4 P:25 SP:F9 PPU:227, 62
F8A2  70 01     BVS                             A:40 X:33 Y:C4 P:25 SP:F9 PPU:233, 62
F8A4  60        RTS                             A:40 X:33 Y:C4 P:25 SP:F9 PPU:239, 62
D6B1  C8        INY                             A:40 X:33 Y:C4 P:25 SP:FB PPU:257, 62
D6B2  48        PHA                             A:40 X:33 Y:C5 P:A5 SP:FB PPU:263, 62
D6B3  A9 41     LDA                             A:40 X:33 Y:C5 P:A5 SP:FA PPU:272, 62
D6B5  8D 78 06  STA                             A:41 X:33 Y:C5 P:25 SP:FA PPU:278, 62
D6B8  68        PLA                             A:41 X:33 Y:C5 P:25 SP:FA PPU:290, 62
D6B9  CD 78 06  CMP                             A:40 X:33 Y:C5 P:25 SP:FB PPU:302, 62
D6BC  20 A8 F8  JSR                             A:40 X:33 Y:C5 P:A4 SP:FB PPU:314, 62
F8A8  F0 05     BEQ                             A:40 X:33 Y:C5 P:A4 SP:F9 PPU:332, 62
F8AA  10 03     BPL                             A:40 X:33 Y:C5 P:A4 SP:F9 PPU:338, 62
F8AC  10 01     BPL                             A:40 X:33 Y:C5 P:A4 SP:F9 PPU:  3, 63
F8AE  60        RTS                             A:40 X:33 Y:C5 P:A4 SP:F9 PPU:  9, 63
D6BF  C8        INY                             A:40 X:33 Y:C5 P:A4 SP:FB PPU: 27, 63
D6C0  48        PHA                             A:40 X:33 Y:C6 P:A4 SP:FB PPU: 33, 63
D6C1  A9 00     LDA                             A:40 X:33 Y:C6 P:A4 SP:FA PPU: 42, 63
D6C3  8D 78 06  STA                             A:00 X:33 Y:C6 P:26 SP:FA PPU: 48, 63
D6C6  68        PLA                             A:00 X:33 Y:C6 P:26 SP:FA PPU: 60, 63
D6C7  20 B2 F8  JSR                             A:40 X:33 Y:C6 P:24 SP:FB PPU: 72, 63
F8B2  A9 80     LDA                             A:40 X:33 Y:C6 P:24 SP:F9 PPU: 90, 63
F8B4  60        RTS                             A:80 X:33 Y:C6 P:A4 SP:F9 PPU: 96, 63
D6CA  CD 78 06  CMP                             A:80 X:33 Y:C6 P:A4 SP:FB PPU:114, 63
D6CD  20 B5 F8  JSR                             A:80 X:33 Y:C6 P:A5 SP:FB PPU:126, 63
F8B5  F0 05     BEQ                             A:80 X:33 Y:C6 P:A5 SP:F9 PPU:144, 63
F8B7  10 03     BPL                             A:80 X:33 Y:C6 P:A5 SP:F9 PPU:150, 63
F8B9  90 01     BCC                             A:80 X:33 Y:C6 P:A5 SP:F9 PPU:156, 63
F8BB  60        RTS                             A:80 X:33 Y:C6 P:A5 SP:F9 PPU:162, 63
D6D0  C8        INY                             A:80 X:33 Y:C6 P:A5 SP:FB PPU:180, 63
D6D1  48        PHA                             A:80 X:33 Y:C7 P:A5 SP:FB PPU:186, 63
D6D2  A9 80     LDA                             A:80 X:33 Y:C7 P:A5 SP:FA PPU:195, 63
D6D4  8D 78 06  STA                             A:80 X:33 Y:C7 P:A5 SP:FA PPU:201, 63
D6D7  68        PLA                             A:80 X:33 Y:C7 P:A5 SP:FA PPU:213, 63
D6D8  CD 78 06  CMP                             A:80 X:33 Y:C7 P:A5 SP:FB PPU:225, 63
D6DB  20 BF F8  JSR                             A:80 X:33 Y:C7 P:27 SP:FB PPU:237, 63
F8BF  D0 05     BNE                             A:80 X:33 Y:C7 P:27 SP:F9 PPU:255, 63
F8C1  30 03     BMI                             A:80 X:33 Y:C7 P:27 SP:F9 PPU:261, 63
F8C3  90 01     BCC                             A:80 X:33 Y:C7 P:27 SP:F9 PPU:267, 63
F8C5  60        RTS                             A:80 X:33 Y:C7 P:27 SP:F9 PPU:273, 63
D6DE  C8        INY                             A:80 X:33 Y:C7 P:27 SP:FB PPU:291, 63
D6DF  48        PHA                             A:80 X:33 Y:C8 P:A5 SP:FB PPU:297, 63
D6E0  A9 81     LDA                             A:80 X:33 Y:C8 P:A5 SP:FA PPU:306, 63
D6E2  8D 78 06  STA                             A:81 X:33 Y:C8 P:A5 SP:FA PPU:312, 63
D6E5  68        PLA                             A:81 X:33 Y:C8 P:A5 SP:FA PPU:324, 63
D6E6  CD 78 06  CMP                             A:80 X:33 Y:C8 P:A5 SP:FB PPU:336, 63
D6E9  20 C9 F8  JSR                             A:80 X:33 Y:C8 P:A4 SP:FB PPU:  7, 64
F8C9  B0 05     BCS                             A:80 X:33 Y:C8 P:A4 SP:F9 PPU: 25, 64
F8CB  F0 03     BEQ                             A:80 X:33 Y:C8 P:A4 SP:F9 PPU: 31, 64
F8CD  10 01     BPL                             A:80 X:33 Y:C8 P:A4 SP:F9 PPU: 37, 64
F8CF  60        RTS                             A:80 X:33 Y:C8 P:A4 SP:F9 PPU: 43, 64
D6EC  C8        INY                             A:80 X:33 Y:C8 P:A4 SP:FB PPU: 61, 64
D6ED  48        PHA                             A:80 X:33 Y:C9 P:A4 SP:FB PPU: 67, 64
D6EE  A9 7F     LDA                             A:80 X:33 Y:C9 P:A4 SP:FA PPU: 76, 64
D6F0  8D 78 06  STA                             A:7F X:33 Y:C9 P:24 SP:FA PPU: 82, 64
D6F3  68        PLA                             A:7F X:33 Y:C9 P:24 SP:FA PPU: 94, 64
D6F4  CD 78 06  CMP                             A:80 X:33 Y:C9 P:A4 SP:FB PPU:106, 64
D6F7  20 D3 F8  JSR                             A:80 X:33 Y:C9 P:25 SP:FB PPU:118, 64
F8D3  90 05     BCC                             A:80 X:33 Y:C9 P:25 SP:F9 PPU:136, 64
F8D5  F0 03     BEQ                             A:80 X:33 Y:C9 P:25 SP:F9 PPU:142, 64
F8D7  30 01     BMI                             A:80 X:33 Y:C9 P:25 SP:F9 PPU:148, 64
F8D9  60        RTS                             A:80 X:33 Y:C9 P:25 SP:F9 PPU:154, 64
D6FA  C8        INY                             A:80 X:33 Y:C9 P:25 SP:FB PPU:172, 64
D6FB  A9 40     LDA                             A:80 X:33 Y:CA P:A5 SP:FB PPU:178, 64
D6FD  8D 78 06  STA                             A:40 X:33 Y:CA P:25 SP:FB PPU:184, 64
D700  20 31 F9  JSR                             A:40 X:33 Y:CA P:25 SP:FB PPU:196, 64
F931  24 01     BIT                             A:40 X:33 Y:CA P:25 SP:F9 PPU:214, 64
F933  A9 40     LDA                             A:40 X:33 Y:CA P:E5 SP:F9 PPU:223, 64
F935  38        SEC                             A:40 X:33 Y:CA P:65 SP:F9 PPU:229, 64
F936  60        RTS                             A:40 X:33 Y:CA P:65 SP:F9 PPU:235, 64
D703  ED 78 06  SBC                             A:40 X:33 Y:CA P:65 SP:FB PPU:253, 64
D706  20 37 F9  JSR                             A:00 X:33 Y:CA P:27 SP:FB PPU:265, 64
F937  30 0B     BMI                             A:00 X:33 Y:CA P:27 SP:F9 PPU:283, 64
F939  90 09     BCC                             A:00 X:33 Y:CA P:27 SP:F9 PPU:289, 64
F93B  D0 07     BNE                             A:00 X:33 Y:CA P:27 SP:F9 PPU:295, 64
F93D  70 05     BVS                             A:00 X:33 Y:CA P:27 SP:F9 PPU:301, 64
F93F  C9 00     CMP                             A:00 X:33 Y:CA P:27 SP:F9 PPU:307, 64
F941  D0 01     BNE                             A:00 X:33 Y:CA P:27 SP:F9 PPU:313, 64
F943  60        RTS                             A:00 X:33 Y:CA P:27 SP:F9 PPU:319, 64
D709  C8        INY                             A:00 X:33 Y:CA P:27 SP:FB PPU:337, 64
D70A  A9 3F     LDA                             A:00 X:33 Y:CB P:A5 SP:FB PPU:  2, 65
D70C  8D 78 06  STA                             A:3F X:33 Y:CB P:25 SP:FB PPU:  8, 65
D70F  20 47 F9  JSR                             A:3F X:33 Y:CB P:25 SP:FB PPU: 20, 65
F947  B8        CLV                             A:3F X:33 Y:CB P:25 SP:F9 PPU: 38, 65
F948  38        SEC                             A:3F X:33 Y:CB P:25 SP:F9 PPU: 44, 65
F949  A9 40     LDA                             A:3F X:33 Y:CB P:25 SP:F9 PPU: 50, 65
F94B  60        RTS                             A:40 X:33 Y:CB P:25 SP:F9 PPU: 56, 65
D712  ED 78 06  SBC                             A:40 X:33 Y:CB P:25 SP:FB PPU: 74, 65
D715  20 4C F9  JSR                             A:01 X:33 Y:CB P:25 SP:FB PPU: 86, 65
F94C  F0 0B     BEQ                             A:01 X:33 Y:CB P:25 SP:F9 PPU:104, 65
F94E  30 09     BMI                             A:01 X:33 Y:CB P:25 SP:F9 PPU:110, 65
F950  90 07     BCC                             A:01 X:33 Y:CB P:25 SP:F9 PPU:116, 65
F952  70 05     BVS                             A:01 X:33 Y:CB P:25 SP:F9 PPU:122, 65
F954  C9 01     CMP                             A:01 X:33 Y:CB P:25 SP:F9 PPU:128, 65
F956  D0 01     BNE                             A:01 X:33 Y:CB P:27 SP:F9 PPU:134, 65
F958  60        RTS                             A:01 X:33 Y:CB P:27 SP:F9 PPU:140, 65
D718  C8        INY                             A:01 X:33 Y:CB P:27 SP:FB PPU:158, 65
D719  A9 41     LDA                             A:01 X:33 Y:CC P:A5 SP:FB PPU:164, 65
D71B  8D 78 06  STA                             A:41 X:33 Y:CC P:25 SP:FB PPU:170, 65
D71E  20 5C F9  JSR                             A:41 X:33 Y:CC P:25 SP:FB PPU:182, 65
F95C  A9 40     LDA                             A:41 X:33 Y:CC P:25 SP:F9 PPU:200, 65
F95E  38        SEC                             A:40 X:33 Y:CC P:25 SP:F9 PPU:206, 65
F95F  24 01     BIT                             A:40 X:33 Y:CC P:25 SP:F9 PPU:212, 65
F961  60        RTS                             A:40 X:33 Y:CC P:E5 SP:F9 PPU:221, 65
D721  ED 78 06  SBC                             A:40 X:33 Y:CC P:E5 SP:FB PPU:239, 65
D724  20 62 F9  JSR                             A:FF X:33 Y:CC P:A4 SP:FB PPU:251, 65
F962  B0 0B     BCS                             A:FF X:33 Y:CC P:A4 SP:F9 PPU:269, 65
F964  F0 09     BEQ                             A:FF X:33 Y:CC P:A4 SP:F9 PPU:275, 65
F966  10 07     BPL                             A:FF X:33 Y:CC P:A4 SP:F9 PPU:281, 65
F968  70 05     BVS                             A:FF X:33 Y:CC P:A4 SP:F9 PPU:287, 65
F96A  C9 FF     CMP                             A:FF X:33 Y:CC P:A4 SP:F9 PPU:293, 65
F96C  D0 01     BNE                             A:FF X:33 Y:CC P:27 SP:F9 PPU:299, 65
F96E  60        RTS                             A:FF X:33 Y:CC P:27 SP:F9 PPU:305, 65
D727  C8        INY                             A:FF X:33 Y:CC P:27 SP:FB PPU:323, 65
D728  A9 00     LDA                             A:FF X:33 Y:CD P:A5 SP:FB PPU:329, 65
D72A  8D 78 06  STA                             A:00 X:33 Y:CD P:27 SP:FB PPU:335, 65
D72D  20 72 F9  JSR                             A:00 X:33 Y:CD P:27 SP:FB PPU:  6, 66
F972  18        CLC                             A:00 X:33 Y:CD P:27 SP:F9 PPU: 24, 66
F973  A9 80     LDA                             A:00 X:33 Y:CD P:26 SP:F9 PPU: 30, 66
F975  60        RTS                             A:80 X:33 Y:CD P:A4 SP:F9 PPU: 36, 66
D730  ED 78 06  SBC                             A:80 X:33 Y:CD P:A4 SP:FB PPU: 54, 66
D733  20 76 F9  JSR                             A:7F X:33 Y:CD P:65 SP:FB PPU: 66, 66
F976  90 05     BCC                             A:7F X:33 Y:CD P:65 SP:F9 PPU: 84, 66
F978  C9 7F     CMP                             A:7F X:33 Y:CD P:65 SP:F9 PPU: 90, 66
F97A  D0 01     BNE                             A:7F X:33 Y:CD P:67 SP:F9 PPU: 96, 66
F97C  60        RTS                             A:7F X:33 Y:CD P:67 SP:F9 PPU:102, 66
D736  C8        INY                             A:7F X:33 Y:CD P:67 SP:FB PPU:120, 66
D737  A9 7F     LDA                             A:7F X:33 Y:CE P:E5 SP:FB PPU:126, 66
D739  8D 78 06  STA                             A:7F X:33 Y:CE P:65 SP:FB PPU:132, 66
D73C  20 80 F9  JSR                             A:7F X:33 Y:CE P:65 SP:FB PPU:144, 66
F980  38        SEC                             A:7F X:33 Y:CE P:65 SP:F9 PPU:162, 66
F981  A9 81     LDA                             A:7F X:33 Y:CE P:65 SP:F9 PPU:168, 66
F983  60        RTS                             A:81 X:33 Y:CE P:E5 SP:F9 PPU:174, 66
D73F  ED 78 06  SBC                             A:81 X:33 Y:CE P:E5 SP:FB PPU:192, 66
D742  20 84 F9  JSR                             A:02 X:33 Y:CE P:65 SP:FB PPU:204, 66
F984  50 07     BVC                             A:02 X:33 Y:CE P:65 SP:F9 PPU:222, 66
F986  90 05     BCC                             A:02 X:33 Y:CE P:65 SP:F9 PPU:228, 66
F988  C9 02     CMP                             A:02 X:33 Y:CE P:65 SP:F9 PPU:234, 66
F98A  D0 01     BNE                             A:02 X:33 Y:CE P:67 SP:F9 PPU:240, 66
F98C  60        RTS                             A:02 X:33 Y:CE P:67 SP:F9 PPU:246, 66
D745  C8        INY                             A:02 X:33 Y:CE P:67 SP:FB PPU:264, 66
D746  A9 40     LDA                             A:02 X:33 Y:CF P:E5 SP:FB PPU:270, 66
D748  8D 78 06  STA                             A:40 X:33 Y:CF P:65 SP:FB PPU:276, 66
D74B  20 89 F8  JSR                             A:40 X:33 Y:CF P:65 SP:FB PPU:288, 66
F889  24 01     BIT                             A:40 X:33 Y:CF P:65 SP:F9 PPU:306, 66
F88B  A9 40     LDA                             A:40 X:33 Y:CF P:E5 SP:F9 PPU:315, 66
F88D  60        RTS                             A:40 X:33 Y:CF P:65 SP:F9 PPU:321, 66
D74E  AA        TAX                             A:40 X:33 Y:CF P:65 SP:FB PPU:339, 66
D74F  EC 78 06  CPX                             A:40 X:40 Y:CF P:65 SP:FB PPU:  4, 67
D752  20 8E F8  JSR                             A:40 X:40 Y:CF P:67 SP:FB PPU: 16, 67
F88E  30 07     BMI                             A:40 X:40 Y:CF P:67 SP:F9 PPU: 34, 67
F890  90 05     BCC                             A:40 X:40 Y:CF P:67 SP:F9 PPU: 40, 67
F892  D0 03     BNE                             A:40 X:40 Y:CF P:67 SP:F9 PPU: 46, 67
F894  50 01     BVC                             A:40 X:40 Y:CF P:67 SP:F9 PPU: 52, 67
F896  60        RTS                             A:40 X:40 Y:CF P:67 SP:F9 PPU: 58, 67
D755  C8        INY                             A:40 X:40 Y:CF P:67 SP:FB PPU: 76, 67
D756  A9 3F     LDA                             A:40 X:40 Y:D0 P:E5 SP:FB PPU: 82, 67
D758  8D 78 06  STA                             A:3F X:40 Y:D0 P:65 SP:FB PPU: 88, 67
D75B  20 9A F8  JSR                             A:3F X:40 Y:D0 P:65 SP:FB PPU:100, 67
F89A  B8        CLV                             A:3F X:40 Y:D0 P:65 SP:F9 PPU:118, 67
F89B  60        RTS                             A:3F X:40 Y:D0 P:25 SP:F9 PPU:124, 67
D75E  EC 78 06  CPX                             A:3F X:40 Y:D0 P:25 SP:FB PPU:142, 67
D761  20 9C F8  JSR                             A:3F X:40 Y:D0 P:25 SP:FB PPU:154, 67
F89C  F0 07     BEQ                             A:3F X:40 Y:D0 P:25 SP:F9 PPU:172, 67
F89E  30 05     BMI                             A:3F X:40 Y:D0 P:25 SP:F9 PPU:178, 67
F8A0  90 03     BCC                             A:3F X:40 Y:D0 P:25 SP:F9 PPU:184, 67
F8A2  70 01     BVS                             A:3F X:40 Y:D0 P:25 SP:F9 PPU:190, 67
F8A4  60        RTS                             A:3F X:40 Y:D0 P:25 SP:F9 PPU:196, 67
D764  C8        INY                             A:3F X:40 Y:D0 P:25 SP:FB PPU:214, 67
D765  A9 41     LDA                             A:3F X:40 Y:D1 P:A5 SP:FB PPU:220, 67
D767  8D 78 06  STA                             A:41 X:40 Y:D1 P:25 SP:FB PPU:226, 67
D76A  EC 78 06  CPX                             A:41 X:40 Y:D1 P:25 SP:FB PPU:238, 67
D76D  20 A8 F8  JSR                             A:41 X:40 Y:D1 P:A4 SP:FB PPU:250, 67
F8A8  F0 05     BEQ                             A:41 X:40 Y:D1 P:A4 SP:F9 PPU:268, 67
F8AA  10 03     BPL                             A:41 X:40 Y:D1 P:A4 SP:F9 PPU:274, 67
F8AC  10 01     BPL                             A:41 X:40 Y:D1 P:A4 SP:F9 PPU:280, 67
F8AE  60        RTS                             A:41 X:40 Y:D1 P:A4 SP:F9 PPU:286, 67
D770  C8        INY                             A:41 X:40 Y:D1 P:A4 SP:FB PPU:304, 67
D771  A9 00     LDA                             A:41 X:40 Y:D2 P:A4 SP:FB PPU:310, 67
D773  8D 78 06  STA                             A:00 X:40 Y:D2 P:26 SP:FB PPU:316, 67
D776  20 B2 F8  JSR                             A:00 X:40 Y:D2 P:26 SP:FB PPU:328, 67
F8B2  A9 80     LDA                             A:00 X:40 Y:D2 P:26 SP:F9 PPU:  5, 68
F8B4  60        RTS                             A:80 X:40 Y:D2 P:A4 SP:F9 PPU: 11, 68
D779  AA        TAX                             A:80 X:40 Y:D2 P:A4 SP:FB PPU: 29, 68
D77A  EC 78 06  CPX                             A:80 X:80 Y:D2 P:A4 SP:FB PPU: 35, 68
D77D  20 B5 F8  JSR                             A:80 X:80 Y:D2 P:A5 SP:FB PPU: 47, 68
F8B5  F0 05     BEQ                             A:80 X:80 Y:D2 P:A5 SP:F9 PPU: 65, 68
F8B7  10 03     BPL                             A:80 X:80 Y:D2 P:A5 SP:F9 PPU: 71, 68
F8B9  90 01     BCC                             A:80 X:80 Y:D2 P:A5 SP:F9 PPU: 77, 68
F8BB  60        RTS                             A:80 X:80 Y:D2 P:A5 SP:F9 PPU: 83, 68
D780  C8        INY                             A:80 X:80 Y:D2 P:A5 SP:FB PPU:101, 68
D781  A9 80     LDA                             A:80 X:80 Y:D3 P:A5 SP:FB PPU:107, 68
D783  8D 78 06  STA                             A:80 X:80 Y:D3 P:A5 SP:FB PPU:113, 68
D786  EC 78 06  CPX                             A:80 X:80 Y:D3 P:A5 SP:FB PPU:125, 68
D789  20 BF F8  JSR                             A:80 X:80 Y:D3 P:27 SP:FB PPU:137, 68
F8BF  D0 05     BNE                             A:80 X:80 Y:D3 P:27 SP:F9 PPU:155, 68
F8C1  30 03     BMI                             A:80 X:80 Y:D3 P:27 SP:F9 PPU:161, 68
F8C3  90 01     BCC                             A:80 X:80 Y:D3 P:27 SP:F9 PPU:167, 68
F8C5  60        RTS                             A:80 X:80 Y:D3 P:27 SP:F9 PPU:173, 68
D78C  C8        INY                             A:80 X:80 Y:D3 P:27 SP:FB PPU:191, 68
D78D  A9 81     LDA                             A:80 X:80 Y:D4 P:A5 SP:FB PPU:197, 68
D78F  8D 78 06  STA                             A:81 X:80 Y:D4 P:A5 SP:FB PPU:203, 68
D792  EC 78 06  CPX                             A:81 X:80 Y:D4 P:A5 SP:FB PPU:215, 68
D795  20 C9 F8  JSR                             A:81 X:80 Y:D4 P:A4 SP:FB PPU:227, 68
F8C9  B0 05     BCS                             A:81 X:80 Y:D4 P:A4 SP:F9 PPU:245, 68
F8CB  F0 03     BEQ                             A:81 X:80 Y:D4 P:A4 SP:F9 PPU:251, 68
F8CD  10 01     BPL                             A:81 X:80 Y:D4 P:A4 SP:F9 PPU:257, 68
F8CF  60        RTS                             A:81 X:80 Y:D4 P:A4 SP:F9 PPU:263, 68
D798  C8        INY                             A:81 X:80 Y:D4 P:A4 SP:FB PPU:281, 68
D799  A9 7F     LDA                             A:81 X:80 Y:D5 P:A4 SP:FB PPU:287, 68
D79B  8D 78 06  STA                             A:7F X:80 Y:D5 P:24 SP:FB PPU:293, 68
D79E  EC 78 06  CPX                             A:7F X:80 Y:D5 P:24 SP:FB PPU:305, 68
D7A1  20 D3 F8  JSR                             A:7F X:80 Y:D5 P:25 SP:FB PPU:317, 68
F8D3  90 05     BCC                             A:7F X:80 Y:D5 P:25 SP:F9 PPU:335, 68
F8D5  F0 03     BEQ                             A:7F X:80 Y:D5 P:25 SP:F9 PPU:  0, 69
F8D7  30 01     BMI                             A:7F X:80 Y:D5 P:25 SP:F9 PPU:  6, 69
F8D9  60        RTS                             A:7F X:80 Y:D5 P:25 SP:F9 PPU: 12, 69
D7A4  C8        INY                             A:7F X:80 Y:D5 P:25 SP:FB PPU: 30, 69
D7A5  98        TYA                             A:7F X:80 Y:D6 P:A5 SP:FB PPU: 36, 69
D7A6  AA        TAX                             A:D6 X:80 Y:D6 P:A5 SP:FB PPU: 42, 69
D7A7  A9 40     LDA                             A:D6 X:D6 Y:D6 P:A5 SP:FB PPU: 48, 69
D7A9  8D 78 06  STA                             A:40 X:D6 Y:D6 P:25 SP:FB PPU: 54, 69
D7AC  20 DD F8  JSR                             A:40 X:D6 Y:D6 P:25 SP:FB PPU: 66, 69
F8DD  24 01     BIT                             A:40 X:D6 Y:D6 P:25 SP:F9 PPU: 84, 69
F8DF  A0 40     LDY                             A:40 X:D6 Y:D6 P:E5 SP:F9 PPU: 93, 69
F8E1  60        RTS                             A:40 X:D6 Y:40 P:65 SP:F9 PPU: 99, 69
D7AF  CC 78 06  CPY                             A:40 X:D6 Y:40 P:65 SP:FB PPU:117, 69
D7B2  20 E2 F8  JSR                             A:40 X:D6 Y:40 P:67 SP:FB PPU:129, 69
F8E2  30 07     BMI                             A:40 X:D6 Y:40 P:67 SP:F9 PPU:147, 69
F8E4  90 05     BCC                             A:40 X:D6 Y:40 P:67 SP:F9 PPU:153, 69
F8E6  D0 03     BNE                             A:40 X:D6 Y:40 P:67 SP:F9 PPU:159, 69
F8E8  50 01     BVC                             A:40 X:D6 Y:40 P:67 SP:F9 PPU:165, 69
F8EA  60        RTS                             A:40 X:D6 Y:40 P:67 SP:F9 PPU:171, 69
D7B5  E8        INX                             A:40 X:D6 Y:40 P:67 SP:FB PPU:189, 69
D7B6  A9 3F     LDA                             A:40 X:D7 Y:40 P:E5 SP:FB PPU:195, 69
D7B8  8D 78 06  STA                             A:3F X:D7 Y:40 P:65 SP:FB PPU:201, 69
D7BB  20 EE F8  JSR                             A:3F X:D7 Y:40 P:65 SP:FB PPU:213, 69
F8EE  B8        CLV                             A:3F X:D7 Y:40 P:65 SP:F9 PPU:231, 69
F8EF  60        RTS                             A:3F X:D7 Y:40 P:25 SP:F9 PPU:237, 69
D7BE  CC 78 06  CPY                             A:3F X:D7 Y:40 P:25 SP:FB PPU:255, 69
D7C1  20 F0 F8  JSR                             A:3F X:D7 Y:40 P:25 SP:FB PPU:267, 69
F8F0  F0 07     BEQ                             A:3F X:D7 Y:40 P:25 SP:F9 PPU:285, 69
F8F2  30 05     BMI                             A:3F X:D7 Y:40 P:25 SP:F9 PPU:291, 69
F8F4  90 03     BCC                             A:3F X:D7 Y:40 P:25 SP:F9 PPU:297, 69
F8F6  70 01     BVS                             A:3F X:D7 Y:40 P:25 SP:F9 PPU:303, 69
F8F8  60        RTS                             A:3F X:D7 Y:40 P:25 SP:F9 PPU:309, 69
D7C4  E8        INX                             A:3F X:D7 Y:40 P:25 SP:FB PPU:327, 69
D7C5  A9 41     LDA                             A:3F X:D8 Y:40 P:A5 SP:FB PPU:333, 69
D7C7  8D 78 06  STA                             A:41 X:D8 Y:40 P:25 SP:FB PPU:339, 69
D7CA  CC 78 06  CPY                             A:41 X:D8 Y:40 P:25 SP:FB PPU: 10, 70
D7CD  20 FC F8  JSR                             A:41 X:D8 Y:40 P:A4 SP:FB PPU: 22, 70
F8FC  F0 05     BEQ                             A:41 X:D8 Y:40 P:A4 SP:F9 PPU: 40, 70
F8FE  10 03     BPL                             A:41 X:D8 Y:40 P:A4 SP:F9 PPU: 46, 70
F900  10 01     BPL                             A:41 X:D8 Y:40 P:A4 SP:F9 PPU: 52, 70
F902  60        RTS                             A:41 X:D8 Y:40 P:A4 SP:F9 PPU: 58, 70
D7D0  E8        INX                             A:41 X:D8 Y:40 P:A4 SP:FB PPU: 76, 70
D7D1  A9 00     LDA                             A:41 X:D9 Y:40 P:A4 SP:FB PPU: 82, 70
D7D3  8D 78 06  STA                             A:00 X:D9 Y:40 P:26 SP:FB PPU: 88, 70
D7D6  20 06 F9  JSR                             A:00 X:D9 Y:40 P:26 SP:FB PPU:100, 70
F906  A0 80     LDY                             A:00 X:D9 Y:40 P:26 SP:F9 PPU:118, 70
F908  60        RTS                             A:00 X:D9 Y:80 P:A4 SP:F9 PPU:124, 70
D7D9  CC 78 06  CPY                             A:00 X:D9 Y:80 P:A4 SP:FB PPU:142, 70
D7DC  20 09 F9  JSR                             A:00 X:D9 Y:80 P:A5 SP:FB PPU:154, 70
F909  F0 05     BEQ                             A:00 X:D9 Y:80 P:A5 SP:F9 PPU:172, 70
F90B  10 03     BPL                             A:00 X:D9 Y:80 P:A5 SP:F9 PPU:178, 70
F90D  90 01     BCC                             A:00 X:D9 Y:80 P:A5 SP:F9 PPU:184, 70
F90F  60        RTS                             A:00 X:D9 Y:80 P:A5 SP:F9 PPU:190, 70
D7DF  E8        INX                             A:00 X:D9 Y:80 P:A5 SP:FB PPU:208, 70
D7E0  A9 80     LDA                             A:00 X:DA Y:80 P:A5 SP:FB PPU:214, 70
D7E2  8D 78 06  STA                             A:80 X:DA Y:80 P:A5 SP:FB PPU:220, 70
D7E5  CC 78 06  CPY                             A:80 X:DA Y:80 P:A5 SP:FB PPU:232, 70
D7E8  20 13 F9  JSR                             A:80 X:DA Y:80 P:27 SP:FB PPU:244, 70
F913  D0 05     BNE                             A:80 X:DA Y:80 P:27 SP:F9 PPU:262, 70
F915  30 03     BMI                             A:80 X:DA Y:80 P:27 SP:F9 PPU:268, 70
F917  90 01     BCC                             A:80 X:DA Y:80 P:27 SP:F9 PPU:274, 70
F919  60        RTS                             A:80 X:DA Y:80 P:27 SP:F9 PPU:280, 70
D7EB  E8        INX                             A:80 X:DA Y:80 P:27 SP:FB PPU:298, 70
D7EC  A9 81     LDA                             A:80 X:DB Y:80 P:A5 SP:FB PPU:304, 70
D7EE  8D 78 06  STA                             A:81 X:DB Y:80 P:A5 SP:FB PPU:310, 70
D7F1  CC 78 06  CPY                             A:81 X:DB Y:80 P:A5 SP:FB PPU:322, 70
D7F4  20 1D F9  JSR                             A:81 X:DB Y:80 P:A4 SP:FB PPU:334, 70
F91D  B0 05     BCS                             A:81 X:DB Y:80 P:A4 SP:F9 PPU: 11, 71
F91F  F0 03     BEQ                             A:81 X:DB Y:80 P:A4 SP:F9 PPU: 17, 71
F921  10 01     BPL                             A:81 X:DB Y:80 P:A4 SP:F9 PPU: 23, 71
F923  60        RTS                             A:81 X:DB Y:80 P:A4 SP:F9 PPU: 29, 71
D7F7  E8        INX                             A:81 X:DB Y:80 P:A4 SP:FB PPU: 47, 71
D7F8  A9 7F     LDA                             A:81 X:DC Y:80 P:A4 SP:FB PPU: 53, 71
D7FA  8D 78 06  STA                             A:7F X:DC Y:80 P:24 SP:FB PPU: 59, 71
D7FD  CC 78 06  CPY                             A:7F X:DC Y:80 P:24 SP:FB PPU: 71, 71
D800  20 27 F9  JSR                             A:7F X:DC Y:80 P:25 SP:FB PPU: 83, 71
F927  90 05     BCC                             A:7F X:DC Y:80 P:25 SP:F9 PPU:101, 71
F929  F0 03     BEQ                             A:7F X:DC Y:80 P:25 SP:F9 PPU:107, 71
F92B  30 01     BMI                             A:7F X:DC Y:80 P:25 SP:F9 PPU:113, 71
F92D  60        RTS                             A:7F X:DC Y:80 P:25 SP:F9 PPU:119, 71
D803  E8        INX                             A:7F X:DC Y:80 P:25 SP:FB PPU:137, 71
D804  8A        TXA                             A:7F X:DD Y:80 P:A5 SP:FB PPU:143, 71
D805  A8        TAY                             A:DD X:DD Y:80 P:A5 SP:FB PPU:149, 71
D806  20 90 F9  JSR                             A:DD X:DD Y:DD P:A5 SP:FB PPU:155, 71
F990  A2 55     LDX                             A:DD X:DD Y:DD P:A5 SP:F9 PPU:173, 71
F992  A9 FF     LDA                             A:DD X:55 Y:DD P:25 SP:F9 PPU:179, 71
F994  85 01     STA                             A:FF X:55 Y:DD P:A5 SP:F9 PPU:185, 71
F996  EA        NOP                             A:FF X:55 Y:DD P:A5 SP:F9 PPU:194, 71
F997  24 01     BIT                             A:FF X:55 Y:DD P:A5 SP:F9 PPU:200, 71
F999  38        SEC                             A:FF X:55 Y:DD P:E5 SP:F9 PPU:209, 71
F99A  A9 01     LDA                             A:FF X:55 Y:DD P:E5 SP:F9 PPU:215, 71
F99C  60        RTS                             A:01 X:55 Y:DD P:65 SP:F9 PPU:221, 71
D809  8D 78 06  STA                             A:01 X:55 Y:DD P:65 SP:FB PPU:239, 71
D80C  4E 78 06  LSR                             A:01 X:55 Y:DD P:65 SP:FB PPU:251, 71
D80F  AD 78 06  LDA                             A:01 X:55 Y:DD P:67 SP:FB PPU:269, 71
D812  20 9D F9  JSR                             A:00 X:55 Y:DD P:67 SP:FB PPU:281, 71
F99D  90 1B     BCC                             A:00 X:55 Y:DD P:67 SP:F9 PPU:299, 71
F99F  D0 19     BNE                             A:00 X:55 Y:DD P:67 SP:F9 PPU:305, 71
F9A1  30 17     BMI                             A:00 X:55 Y:DD P:67 SP:F9 PPU:311, 71
F9A3  50 15     BVC                             A:00 X:55 Y:DD P:67 SP:F9 PPU:317, 71
F9A5  C9 00     CMP                             A:00 X:55 Y:DD P:67 SP:F9 PPU:323, 71
F9A7  D0 11     BNE                             A:00 X:55 Y:DD P:67 SP:F9 PPU:329, 71
F9A9  B8        CLV                             A:00 X:55 Y:DD P:67 SP:F9 PPU:335, 71
F9AA  A9 AA     LDA                             A:00 X:55 Y:DD P:27 SP:F9 PPU:  0, 72
F9AC  60        RTS                             A:AA X:55 Y:DD P:A5 SP:F9 PPU:  6, 72
D815  C8        INY                             A:AA X:55 Y:DD P:A5 SP:FB PPU: 24, 72
D816  8D 78 06  STA                             A:AA X:55 Y:DE P:A5 SP:FB PPU: 30, 72
D819  4E 78 06  LSR                             A:AA X:55 Y:DE P:A5 SP:FB PPU: 42, 72
D81C  AD 78 06  LDA                             A:AA X:55 Y:DE P:24 SP:FB PPU: 60, 72
D81F  20 AD F9  JSR                             A:55 X:55 Y:DE P:24 SP:FB PPU: 72, 72
F9AD  B0 0B     BCS                             A:55 X:55 Y:DE P:24 SP:F9 PPU: 90, 72
F9AF  F0 09     BEQ                             A:55 X:55 Y:DE P:24 SP:F9 PPU: 96, 72
F9B1  30 07     BMI                             A:55 X:55 Y:DE P:24 SP:F9 PPU:102, 72
F9B3  70 05     BVS                             A:55 X:55 Y:DE P:24 SP:F9 PPU:108, 72
F9B5  C9 55     CMP                             A:55 X:55 Y:DE P:24 SP:F9 PPU:114, 72
F9B7  D0 01     BNE                             A:55 X:55 Y:DE P:27 SP:F9 PPU:120, 72
F9B9  60        RTS                             A:55 X:55 Y:DE P:27 SP:F9 PPU:126, 72
D822  C8        INY                             A:55 X:55 Y:DE P:27 SP:FB PPU:144, 72
D823  20 BD F9  JSR                             A:55 X:55 Y:DF P:A5 SP:FB PPU:150, 72
F9BD  24 01     BIT                             A:55 X:55 Y:DF P:A5 SP:F9 PPU:168, 72
F9BF  38        SEC                             A:55 X:55 Y:DF P:E5 SP:F9 PPU:177, 72
F9C0  A9 80     LDA                             A:55 X:55 Y:DF P:E5 SP:F9 PPU:183, 72
F9C2  60        RTS                             A:80 X:55 Y:DF P:E5 SP:F9 PPU:189, 72
D826  8D 78 06  STA                             A:80 X:55 Y:DF P:E5 SP:FB PPU:207, 72
D829  0E 78 06  ASL                             A:80 X:55 Y:DF P:E5 SP:FB PPU:219, 72
D82C  AD 78 06  LDA                             A:80 X:55 Y:DF P:67 SP:FB PPU:237, 72
D82F  20 C3 F9  JSR                             A:00 X:55 Y:DF P:67 SP:FB PPU:249, 72
F9C3  90 1C     BCC                             A:00 X:55 Y:DF P:67 SP:F9 PPU:267, 72
F9C5  D0 1A     BNE                             A:00 X:55 Y:DF P:67 SP:F9 PPU:273, 72
F9C7  30 18     BMI                             A:00 X:55 Y:DF P:67 SP:F9 PPU:279, 72
F9C9  50 16     BVC                             A:00 X:55 Y:DF P:67 SP:F9 PPU:285, 72
F9CB  C9 00     CMP                             A:00 X:55 Y:DF P:67 SP:F9 PPU:291, 72
F9CD  D0 12     BNE                             A:00 X:55 Y:DF P:67 SP:F9 PPU:297, 72
F9CF  B8        CLV                             A:00 X:55 Y:DF P:67 SP:F9 PPU:303, 72
F9D0  A9 55     LDA                             A:00 X:55 Y:DF P:27 SP:F9 PPU:309, 72
F9D2  38        SEC                             A:55 X:55 Y:DF P:25 SP:F9 PPU:315, 72
F9D3  60        RTS                             A:55 X:55 Y:DF P:25 SP:F9 PPU:321, 72
D832  C8        INY                             A:55 X:55 Y:DF P:25 SP:FB PPU:339, 72
D833  8D 78 06  STA                             A:55 X:55 Y:E0 P:A5 SP:FB PPU:  4, 73
D836  0E 78 06  ASL                             A:55 X:55 Y:E0 P:A5 SP:FB PPU: 16, 73
D839  AD 78 06  LDA                             A:55 X:55 Y:E0 P:A4 SP:FB PPU: 34, 73
D83C  20 D4 F9  JSR                             A:AA X:55 Y:E0 P:A4 SP:FB PPU: 46, 73
F9D4  B0 0B     BCS                             A:AA X:55 Y:E0 P:A4 SP:F9 PPU: 64, 73
F9D6  F0 09     BEQ                             A:AA X:55 Y:E0 P:A4 SP:F9 PPU: 70, 73
F9D8  10 07     BPL                             A:AA X:55 Y:E0 P:A4 SP:F9 PPU: 76, 73
F9DA  70 05     BVS                             A:AA X:55 Y:E0 P:A4 SP:F9 PPU: 82, 73
F9DC  C9 AA     CMP                             A:AA X:55 Y:E0 P:A4 SP:F9 PPU: 88, 73
F9DE  D0 01     BNE                             A:AA X:55 Y:E0 P:27 SP:F9 PPU: 94, 73
F9E0  60        RTS                             A:AA X:55 Y:E0 P:27 SP:F9 PPU:100, 73
D83F  C8        INY                             A:AA X:55 Y:E0 P:27 SP:FB PPU:118, 73
D840  20 E4 F9  JSR                             A:AA X:55 Y:E1 P:A5 SP:FB PPU:124, 73
F9E4  24 01     BIT                             A:AA X:55 Y:E1 P:A5 SP:F9 PPU:142, 73
F9E6  38        SEC                             A:AA X:55 Y:E1 P:E5 SP:F9 PPU:151, 73
F9E7  A9 01     LDA                             A:AA X:55 Y:E1 P:E5 SP:F9 PPU:157, 73
F9E9  60        RTS                             A:01 X:55 Y:E1 P:65 SP:F9 PPU:163, 73
D843  8D 78 06  STA                             A:01 X:55 Y:E1 P:65 SP:FB PPU:181, 73
D846  6E 78 06  ROR                             A:01 X:55 Y:E1 P:65 SP:FB PPU:193, 73
D849  AD 78 06  LDA                             A:01 X:55 Y:E1 P:E5 SP:FB PPU:211, 73
D84C  20 EA F9  JSR                             A:80 X:55 Y:E1 P:E5 SP:FB PPU:223, 73
F9EA  90 1C     BCC                             A:80 X:55 Y:E1 P:E5 SP:F9 PPU:241, 73
F9EC  F0 1A     BEQ                             A:80 X:55 Y:E1 P:E5 SP:F9 PPU:247, 73
F9EE  10 18     BPL                             A:80 X:55 Y:E1 P:E5 SP:F9 PPU:253, 73
F9F0  50 16     BVC                             A:80 X:55 Y:E1 P:E5 SP:F9 PPU:259, 73
F9F2  C9 80     CMP                             A:80 X:55 Y:E1 P:E5 SP:F9 PPU:265, 73
F9F4  D0 12     BNE                             A:80 X:55 Y:E1 P:67 SP:F9 PPU:271, 73
F9F6  B8        CLV                             A:80 X:55 Y:E1 P:67 SP:F9 PPU:277, 73
F9F7  18        CLC                             A:80 X:55 Y:E1 P:27 SP:F9 PPU:283, 73
F9F8  A9 55     LDA                             A:80 X:55 Y:E1 P:26 SP:F9 PPU:289, 73
F9FA  60        RTS                             A:55 X:55 Y:E1 P:24 SP:F9 PPU:295, 73
D84F  C8        INY                             A:55 X:55 Y:E1 P:24 SP:FB PPU:313, 73
D850  8D 78 06  STA                             A:55 X:55 Y:E2 P:A4 SP:FB PPU:319, 73
D853  6E 78 06  ROR                             A:55 X:55 Y:E2 P:A4 SP:FB PPU:331, 73
D856  AD 78 06  LDA                             A:55 X:55 Y:E2 P:25 SP:FB PPU:  8, 74
D859  20 FB F9  JSR                             A:2A X:55 Y:E2 P:25 SP:FB PPU: 20, 74
F9FB  90 0B     BCC                             A:2A X:55 Y:E2 P:25 SP:F9 PPU: 38, 74
F9FD  F0 09     BEQ                             A:2A X:55 Y:E2 P:25 SP:F9 PPU: 44, 74
F9FF  30 07     BMI                             A:2A X:55 Y:E2 P:25 SP:F9 PPU: 50, 74
FA01  70 05     BVS                             A:2A X:55 Y:E2 P:25 SP:F9 PPU: 56, 74
FA03  C9 2A     CMP                             A:2A X:55 Y:E2 P:25 SP:F9 PPU: 62, 74
FA05  D0 01     BNE                             A:2A X:55 Y:E2 P:27 SP:F9 PPU: 68, 74
FA07  60        RTS                             A:2A X:55 Y:E2 P:27 SP:F9 PPU: 74, 74
D85C  C8        INY                             A:2A X:55 Y:E2 P:27 SP:FB PPU: 92, 74
D85D  20 0A FA  JSR                             A:2A X:55 Y:E3 P:A5 SP:FB PPU: 98, 74
FA0A  24 01     BIT                             A:2A X:55 Y:E3 P:A5 SP:F9 PPU:116, 74
FA0C  38        SEC                             A:2A X:55 Y:E3 P:E5 SP:F9 PPU:125, 74
FA0D  A9 80     LDA                             A:2A X:55 Y:E3 P:E5 SP:F9 PPU:131, 74
FA0F  60        RTS                             A:80 X:55 Y:E3 P:E5 SP:F9 PPU:137, 74
D860  8D 78 06  STA                             A:80 X:55 Y:E3 P:E5 SP:FB PPU:155, 74
D863  2E 78 06  ROL                             A:80 X:55 Y:E3 P:E5 SP:FB PPU:167, 74
D866  AD 78 06  LDA                             A:80 X:55 Y:E3 P:65 SP:FB PPU:185, 74
D869  20 10 FA  JSR                             A:01 X:55 Y:E3 P:65 SP:FB PPU:197, 74
FA10  90 1C     BCC                             A:01 X:55 Y:E3 P:65 SP:F9 PPU:215, 74
FA12  F0 1A     BEQ                             A:01 X:55 Y:E3 P:65 SP:F9 PPU:221, 74
FA14  30 18     BMI                             A:01 X:55 Y:E3 P:65 SP:F9 PPU:227, 74
FA16  50 16     BVC                             A:01 X:55 Y:E3 P:65 SP:F9 PPU:233, 74
FA18  C9 01     CMP                             A:01 X:55 Y:E3 P:65 SP:F9 PPU:239, 74
FA1A  D0 12     BNE                             A:01 X:55 Y:E3 P:67 SP:F9 PPU:245, 74
FA1C  B8        CLV                             A:01 X:55 Y:E3 P:67 SP:F9 PPU:251, 74
FA1D  18        CLC                             A:01 X:55 Y:E3 P:27 SP:F9 PPU:257, 74
FA1E  A9 55     LDA                             A:01 X:55 Y:E3 P:26 SP:F9 PPU:263, 74
FA20  60        RTS                             A:55 X:55 Y:E3 P:24 SP:F9 PPU:269, 74
D86C  C8        INY                             A:55 X:55 Y:E3 P:24 SP:FB PPU:287, 74
D86D  8D 78 06  STA                             A:55 X:55 Y:E4 P:A4 SP:FB PPU:293, 74
D870  2E 78 06  ROL                             A:55 X:55 Y:E4 P:A4 SP:FB PPU:305, 74
D873  AD 78 06  LDA                             A:55 X:55 Y:E4 P:A4 SP:FB PPU:323, 74
D876  20 21 FA  JSR                             A:AA X:55 Y:E4 P:A4 SP:FB PPU:335, 74
FA21  B0 0B     BCS                             A:AA X:55 Y:E4 P:A4 SP:F9 PPU: 12, 75
FA23  F0 09     BEQ                             A:AA X:55 Y:E4 P:A4 SP:F9 PPU: 18, 75
FA25  10 07     BPL                             A:AA X:55 Y:E4 P:A4 SP:F9 PPU: 24, 75
FA27  70 05     BVS                             A:AA X:55 Y:E4 P:A4 SP:F9 PPU: 30, 75
FA29  C9 AA     CMP                             A:AA X:55 Y:E4 P:A4 SP:F9 PPU: 36, 75
FA2B  D0 01     BNE                             A:AA X:55 Y:E4 P:27 SP:F9 PPU: 42, 75
FA2D  60        RTS                             A:AA X:55 Y:E4 P:27 SP:F9 PPU: 48, 75
D879  A9 FF     LDA                             A:AA X:55 Y:E4 P:27 SP:FB PPU: 66, 75
D87B  8D 78 06  STA                             A:FF X:55 Y:E4 P:A5 SP:FB PPU: 72, 75
D87E  85 01     STA                             A:FF X:55 Y:E4 P:A5 SP:FB PPU: 84, 75
D880  24 01     BIT                             A:FF X:55 Y:E4 P:A5 SP:FB PPU: 93, 75
D882  38        SEC                             A:FF X:55 Y:E4 P:E5 SP:FB PPU:102, 75
D883  EE 78 06  INC                             A:FF X:55 Y:E4 P:E5 SP:FB PPU:108, 75
D886  D0 0D     BNE                             A:FF X:55 Y:E4 P:67 SP:FB PPU:126, 75
D888  30 0B     BMI                             A:FF X:55 Y:E4 P:67 SP:FB PPU:132, 75
D88A  50 09     BVC                             A:FF X:55 Y:E4 P:67 SP:FB PPU:138, 75
D88C  90 07     BCC                             A:FF X:55 Y:E4 P:67 SP:FB PPU:144, 75
D88E  AD 78 06  LDA                             A:FF X:55 Y:E4 P:67 SP:FB PPU:150, 75
D891  C9 00     CMP                             A:00 X:55 Y:E4 P:67 SP:FB PPU:162, 75
D893  F0 04     BEQ                             A:00 X:55 Y:E4 P:67 SP:FB PPU:168, 75
D899  A9 7F     LDA                             A:00 X:55 Y:E4 P:67 SP:FB PPU:177, 75
D89B  8D 78 06  STA                             A:7F X:55 Y:E4 P:65 SP:FB PPU:183, 75
D89E  B8        CLV                             A:7F X:55 Y:E4 P:65 SP:FB PPU:195, 75
D89F  18        CLC                             A:7F X:55 Y:E4 P:25 SP:FB PPU:201, 75
D8A0  EE 78 06  INC                             A:7F X:55 Y:E4 P:24 SP:FB PPU:207, 75
D8A3  F0 0D     BEQ                             A:7F X:55 Y:E4 P:A4 SP:FB PPU:225, 75
D8A5  10 0B     BPL                             A:7F X:55 Y:E4 P:A4 SP:FB PPU:231, 75
D8A7  70 09     BVS                             A:7F X:55 Y:E4 P:A4 SP:FB PPU:237, 75
D8A9  B0 07     BCS                             A:7F X:55 Y:E4 P:A4 SP:FB PPU:243, 75
D8AB  AD 78 06  LDA                             A:7F X:55 Y:E4 P:A4 SP:FB PPU:249, 75
D8AE  C9 80     CMP                             A:80 X:55 Y:E4 P:A4 SP:FB PPU:261, 75
D8B0  F0 04     BEQ                             A:80 X:55 Y:E4 P:27 SP:FB PPU:267, 75
D8B6  A9 00     LDA                             A:80 X:55 Y:E4 P:27 SP:FB PPU:276, 75
D8B8  8D 78 06  STA                             A:00 X:55 Y:E4 P:27 SP:FB PPU:282, 75
D8BB  24 01     BIT                             A:00 X:55 Y:E4 P:27 SP:FB PPU:294, 75
D8BD  38        SEC                             A:00 X:55 Y:E4 P:E7 SP:FB PPU:303, 75
D8BE  CE 78 06  DEC                             A:00 X:55 Y:E4 P:E7 SP:FB PPU:309, 75
D8C1  F0 0D     BEQ                             A:00 X:55 Y:E4 P:E5 SP:FB PPU:327, 75
D8C3  10 0B     BPL                             A:00 X:55 Y:E4 P:E5 SP:FB PPU:333, 75
D8C5  50 09     BVC                             A:00 X:55 Y:E4 P:E5 SP:FB PPU:339, 75
D8C7  90 07     BCC                             A:00 X:55 Y:E4 P:E5 SP:FB PPU:  4, 76
D8C9  AD 78 06  LDA                             A:00 X:55 Y:E4 P:E5 SP:FB PPU: 10, 76
D8CC  C9 FF     CMP                             A:FF X:55 Y:E4 P:E5 SP:FB PPU: 22, 76
D8CE  F0 04     BEQ                             A:FF X:55 Y:E4 P:67 SP:FB PPU: 28, 76
D8D4  A9 80     LDA                             A:FF X:55 Y:E4 P:67 SP:FB PPU: 37, 76
D8D6  8D 78 06  STA                             A:80 X:55 Y:E4 P:E5 SP:FB PPU: 43, 76
D8D9  B8        CLV                             A:80 X:55 Y:E4 P:E5 SP:FB PPU: 55, 76
D8DA  18        CLC                             A:80 X:55 Y:E4 P:A5 SP:FB PPU: 61, 76
D8DB  CE 78 06  DEC                             A:80 X:55 Y:E4 P:A4 SP:FB PPU: 67, 76
D8DE  F0 0D     BEQ                             A:80 X:55 Y:E4 P:24 SP:FB PPU: 85, 76
D8E0  30 0B     BMI                             A:80 X:55 Y:E4 P:24 SP:FB PPU: 91, 76
D8E2  70 09     BVS                             A:80 X:55 Y:E4 P:24 SP:FB PPU: 97, 76
D8E4  B0 07     BCS                             A:80 X:55 Y:E4 P:24 SP:FB PPU:103, 76
D8E6  AD 78 06  LDA                             A:80 X:55 Y:E4 P:24 SP:FB PPU:109, 76
D8E9  C9 7F     CMP                             A:7F X:55 Y:E4 P:24 SP:FB PPU:121, 76
D8EB  F0 04     BEQ                             A:7F X:55 Y:E4 P:27 SP:FB PPU:127, 76
D8F1  A9 01     LDA                             A:7F X:55 Y:E4 P:27 SP:FB PPU:136, 76
D8F3  8D 78 06  STA                             A:01 X:55 Y:E4 P:25 SP:FB PPU:142, 76
D8F6  CE 78 06  DEC                             A:01 X:55 Y:E4 P:25 SP:FB PPU:154, 76
D8F9  F0 04     BEQ                             A:01 X:55 Y:E4 P:27 SP:FB PPU:172, 76
D8FF  60        RTS                             A:01 X:55 Y:E4 P:27 SP:FB PPU:181, 76
C618  20 00 D9  JSR                             A:01 X:55 Y:E4 P:27 SP:FD PPU:199, 76
D900  A9 A3     LDA                             A:01 X:55 Y:E4 P:27 SP:FB PPU:217, 76
D902  85 33     STA                             A:A3 X:55 Y:E4 P:A5 SP:FB PPU:223, 76
D904  A9 89     LDA                             A:A3 X:55 Y:E4 P:A5 SP:FB PPU:232, 76
D906  8D 00 03  STA                             A:89 X:55 Y:E4 P:A5 SP:FB PPU:238, 76
D909  A9 12     LDA                             A:89 X:55 Y:E4 P:A5 SP:FB PPU:250, 76
D90B  8D 45 02  STA                             A:12 X:55 Y:E4 P:25 SP:FB PPU:256, 76
D90E  A9 FF     LDA                             A:12 X:55 Y:E4 P:25 SP:FB PPU:268, 76
D910  85 01     STA                             A:FF X:55 Y:E4 P:A5 SP:FB PPU:274, 76
D912  A2 65     LDX                             A:FF X:55 Y:E4 P:A5 SP:FB PPU:283, 76
D914  A9 00     LDA                             A:FF X:65 Y:E4 P:25 SP:FB PPU:289, 76
D916  85 89     STA                             A:00 X:65 Y:E4 P:27 SP:FB PPU:295, 76
D918  A9 03     LDA                             A:00 X:65 Y:E4 P:27 SP:FB PPU:304, 76
D91A  85 8A     STA                             A:03 X:65 Y:E4 P:25 SP:FB PPU:310, 76
D91C  A0 00     LDY                             A:03 X:65 Y:E4 P:25 SP:FB PPU:319, 76
D91E  38        SEC                             A:03 X:65 Y:00 P:27 SP:FB PPU:325, 76
D91F  A9 00     LDA                             A:03 X:65 Y:00 P:27 SP:FB PPU:331, 76
D921  B8        CLV                             A:00 X:65 Y:00 P:27 SP:FB PPU:337, 76
D922  B1 89     LDA                             A:00 X:65 Y:00 P:27 SP:FB PPU:  2, 77
D924  F0 0C     BEQ                             A:89 X:65 Y:00 P:A5 SP:FB PPU: 17, 77
D926  90 0A     BCC                             A:89 X:65 Y:00 P:A5 SP:FB PPU: 23, 77
D928  70 08     BVS                             A:89 X:65 Y:00 P:A5 SP:FB PPU: 29, 77
D92A  C9 89     CMP                             A:89 X:65 Y:00 P:A5 SP:FB PPU: 35, 77
D92C  D0 04     BNE                             A:89 X:65 Y:00 P:27 SP:FB PPU: 41, 77
D92E  E0 65     CPX                             A:89 X:65 Y:00 P:27 SP:FB PPU: 47, 77
D930  F0 04     BEQ                             A:89 X:65 Y:00 P:27 SP:FB PPU: 53, 77
D936  A9 FF     LDA                             A:89 X:65 Y:00 P:27 SP:FB PPU: 62, 77
D938  85 97     STA                             A:FF X:65 Y:00 P:A5 SP:FB PPU: 68, 77
D93A  85 98     STA                             A:FF X:65 Y:00 P:A5 SP:FB PPU: 77, 77
D93C  24 98     BIT                             A:FF X:65 Y:00 P:A5 SP:FB PPU: 86, 77
D93E  A0 34     LDY                             A:FF X:65 Y:00 P:E5 SP:FB PPU: 95, 77
D940  B1 97     LDA                             A:FF X:65 Y:34 P:65 SP:FB PPU:101, 77
D942  C9 A3     CMP                             A:A3 X:65 Y:34 P:E5 SP:FB PPU:119, 77
D944  D0 02     BNE                             A:A3 X:65 Y:34 P:67 SP:FB PPU:125, 77
D946  B0 04     BCS                             A:A3 X:65 Y:34 P:67 SP:FB PPU:131, 77
D94C  A5 00     LDA                             A:A3 X:65 Y:34 P:67 SP:FB PPU:140, 77
D94E  48        PHA                             A:00 X:65 Y:34 P:67 SP:FB PPU:149, 77
D94F  A9 46     LDA                             A:00 X:65 Y:34 P:67 SP:FA PPU:158, 77
D951  85 FF     STA                             A:46 X:65 Y:34 P:65 SP:FA PPU:164, 77
D953  A9 01     LDA                             A:46 X:65 Y:34 P:65 SP:FA PPU:173, 77
D955  85 00     STA                             A:01 X:65 Y:34 P:65 SP:FA PPU:179, 77
D957  A0 FF     LDY                             A:01 X:65 Y:34 P:65 SP:FA PPU:188, 77
D959  B1 FF     LDA                             A:01 X:65 Y:FF P:E5 SP:FA PPU:194, 77
D95B  C9 12     CMP                             A:12 X:65 Y:FF P:65 SP:FA PPU:212, 77
D95D  F0 04     BEQ                             A:12 X:65 Y:FF P:67 SP:FA PPU:218, 77
D963  68        PLA                             A:12 X:65 Y:FF P:67 SP:FA PPU:227, 77
D964  85 00     STA                             A:00 X:65 Y:FF P:67 SP:FB PPU:239, 77
D966  A2 ED     LDX                             A:00 X:65 Y:FF P:67 SP:FB PPU:248, 77
D968  A9 00     LDA                             A:00 X:ED Y:FF P:E5 SP:FB PPU:254, 77
D96A  85 33     STA                             A:00 X:ED Y:FF P:67 SP:FB PPU:260, 77
D96C  A9 04     LDA                             A:00 X:ED Y:FF P:67 SP:FB PPU:269, 77
D96E  85 34     STA                             A:04 X:ED Y:FF P:65 SP:FB PPU:275, 77
D970  A0 00     LDY                             A:04 X:ED Y:FF P:65 SP:FB PPU:284, 77
D972  18        CLC                             A:04 X:ED Y:00 P:67 SP:FB PPU:290, 77
D973  A9 FF     LDA                             A:04 X:ED Y:00 P:66 SP:FB PPU:296, 77
D975  85 01     STA                             A:FF X:ED Y:00 P:E4 SP:FB PPU:302, 77
D977  24 01     BIT                             A:FF X:ED Y:00 P:E4 SP:FB PPU:311, 77
D979  A9 AA     LDA                             A:FF X:ED Y:00 P:E4 SP:FB PPU:320, 77
D97B  8D 00 04  STA                             A:AA X:ED Y:00 P:E4 SP:FB PPU:326, 77
D97E  A9 55     LDA                             A:AA X:ED Y:00 P:E4 SP:FB PPU:338, 77
D980  11 33     ORA                             A:55 X:ED Y:00 P:64 SP:FB PPU:  3, 78
D982  B0 08     BCS                             A:FF X:ED Y:00 P:E4 SP:FB PPU: 18, 78
D984  10 06     BPL                             A:FF X:ED Y:00 P:E4 SP:FB PPU: 24, 78
D986  C9 FF     CMP                             A:FF X:ED Y:00 P:E4 SP:FB PPU: 30, 78
D988  D0 02     BNE                             A:FF X:ED Y:00 P:67 SP:FB PPU: 36, 78
D98A  70 02     BVS                             A:FF X:ED Y:00 P:67 SP:FB PPU: 42, 78
D98E  E8        INX                             A:FF X:ED Y:00 P:67 SP:FB PPU: 51, 78
D98F  38        SEC                             A:FF X:EE Y:00 P:E5 SP:FB PPU: 57, 78
D990  B8        CLV                             A:FF X:EE Y:00 P:E5 SP:FB PPU: 63, 78
D991  A9 00     LDA                             A:FF X:EE Y:00 P:A5 SP:FB PPU: 69, 78
D993  11 33     ORA                             A:00 X:EE Y:00 P:27 SP:FB PPU: 75, 78
D995  F0 06     BEQ                             A:AA X:EE Y:00 P:A5 SP:FB PPU: 90, 78
D997  70 04     BVS                             A:AA X:EE Y:00 P:A5 SP:FB PPU: 96, 78
D999  90 02     BCC                             A:AA X:EE Y:00 P:A5 SP:FB PPU:102, 78
D99B  30 02     BMI                             A:AA X:EE Y:00 P:A5 SP:FB PPU:108, 78
D99F  E8        INX                             A:AA X:EE Y:00 P:A5 SP:FB PPU:117, 78
D9A0  18        CLC                             A:AA X:EF Y:00 P:A5 SP:FB PPU:123, 78
D9A1  24 01     BIT                             A:AA X:EF Y:00 P:A4 SP:FB PPU:129, 78
D9A3  A9 55     LDA                             A:AA X:EF Y:00 P:E4 SP:FB PPU:138, 78
D9A5  31 33     AND                             A:55 X:EF Y:00 P:64 SP:FB PPU:144, 78
D9A7  D0 06     BNE                             A:00 X:EF Y:00 P:66 SP:FB PPU:159, 78
D9A9  50 04     BVC                             A:00 X:EF Y:00 P:66 SP:FB PPU:165, 78
D9AB  B0 02     BCS                             A:00 X:EF Y:00 P:66 SP:FB PPU:171, 78
D9AD  10 02     BPL                             A:00 X:EF Y:00 P:66 SP:FB PPU:177, 78
D9B1  E8        INX                             A:00 X:EF Y:00 P:66 SP:FB PPU:186, 78
D9B2  38        SEC                             A:00 X:F0 Y:00 P:E4 SP:FB PPU:192, 78
D9B3  B8        CLV                             A:00 X:F0 Y:00 P:E5 SP:FB PPU:198, 78
D9B4  A9 EF     LDA                             A:00 X:F0 Y:00 P:A5 SP:FB PPU:204, 78
D9B6  8D 00 04  STA                             A:EF X:F0 Y:00 P:A5 SP:FB PPU:210, 78
D9B9  A9 F8     LDA                             A:EF X:F0 Y:00 P:A5 SP:FB PPU:222, 78
D9BB  31 33     AND                             A:F8 X:F0 Y:00 P:A5 SP:FB PPU:228, 78
D9BD  90 08     BCC                             A:E8 X:F0 Y:00 P:A5 SP:FB PPU:243, 78
D9BF  10 06     BPL                             A:E8 X:F0 Y:00 P:A5 SP:FB PPU:249, 78
D9C1  C9 E8     CMP                             A:E8 X:F0 Y:00 P:A5 SP:FB PPU:255, 78
D9C3  D0 02     BNE                             A:E8 X:F0 Y:00 P:27 SP:FB PPU:261, 78
D9C5  50 02     BVC                             A:E8 X:F0 Y:00 P:27 SP:FB PPU:267, 78
D9C9  E8        INX                             A:E8 X:F0 Y:00 P:27 SP:FB PPU:276, 78
D9CA  18        CLC                             A:E8 X:F1 Y:00 P:A5 SP:FB PPU:282, 78
D9CB  24 01     BIT                             A:E8 X:F1 Y:00 P:A4 SP:FB PPU:288, 78
D9CD  A9 AA     LDA                             A:E8 X:F1 Y:00 P:E4 SP:FB PPU:297, 78
D9CF  8D 00 04  STA                             A:AA X:F1 Y:00 P:E4 SP:FB PPU:303, 78
D9D2  A9 5F     LDA                             A:AA X:F1 Y:00 P:E4 SP:FB PPU:315, 78
D9D4  51 33     EOR                             A:5F X:F1 Y:00 P:64 SP:FB PPU:321, 78
D9D6  B0 08     BCS                             A:F5 X:F1 Y:00 P:E4 SP:FB PPU:336, 78
D9D8  10 06     BPL                             A:F5 X:F1 Y:00 P:E4 SP:FB PPU:  1, 79
D9DA  C9 F5     CMP                             A:F5 X:F1 Y:00 P:E4 SP:FB PPU:  7, 79
D9DC  D0 02     BNE                             A:F5 X:F1 Y:00 P:67 SP:FB PPU: 13, 79
D9DE  70 02     BVS                             A:F5 X:F1 Y:00 P:67 SP:FB PPU: 19, 79
D9E2  E8        INX                             A:F5 X:F1 Y:00 P:67 SP:FB PPU: 28, 79
D9E3  38        SEC                             A:F5 X:F2 Y:00 P:E5 SP:FB PPU: 34, 79
D9E4  B8        CLV                             A:F5 X:F2 Y:00 P:E5 SP:FB PPU: 40, 79
D9E5  A9 70     LDA                             A:F5 X:F2 Y:00 P:A5 SP:FB PPU: 46, 79
D9E7  8D 00 04  STA                             A:70 X:F2 Y:00 P:25 SP:FB PPU: 52, 79
D9EA  51 33     EOR                             A:70 X:F2 Y:00 P:25 SP:FB PPU: 64, 79
D9EC  D0 06     BNE                             A:00 X:F2 Y:00 P:27 SP:FB PPU: 79, 79
D9EE  70 04     BVS                             A:00 X:F2 Y:00 P:27 SP:FB PPU: 85, 79
D9F0  90 02     BCC                             A:00 X:F2 Y:00 P:27 SP:FB PPU: 91, 79
D9F2  10 02     BPL                             A:00 X:F2 Y:00 P:27 SP:FB PPU: 97, 79
D9F6  E8        INX                             A:00 X:F2 Y:00 P:27 SP:FB PPU:106, 79
D9F7  18        CLC                             A:00 X:F3 Y:00 P:A5 SP:FB PPU:112, 79
D9F8  24 01     BIT                             A:00 X:F3 Y:00 P:A4 SP:FB PPU:118, 79
D9FA  A9 69     LDA                             A:00 X:F3 Y:00 P:E6 SP:FB PPU:127, 79
D9FC  8D 00 04  STA                             A:69 X:F3 Y:00 P:64 SP:FB PPU:133, 79
D9FF  A9 00     LDA                             A:69 X:F3 Y:00 P:64 SP:FB PPU:145, 79
DA01  71 33     ADC                             A:00 X:F3 Y:00 P:66 SP:FB PPU:151, 79
DA03  30 08     BMI                             A:69 X:F3 Y:00 P:24 SP:FB PPU:166, 79
DA05  B0 06     BCS                             A:69 X:F3 Y:00 P:24 SP:FB PPU:172, 79
DA07  C9 69     CMP                             A:69 X:F3 Y:00 P:24 SP:FB PPU:178, 79
DA09  D0 02     BNE                             A:69 X:F3 Y:00 P:27 SP:FB PPU:184, 79
DA0B  50 02     BVC                             A:69 X:F3 Y:00 P:27 SP:FB PPU:190, 79
DA0F  E8        INX                             A:69 X:F3 Y:00 P:27 SP:FB PPU:199, 79
DA10  38        SEC                             A:69 X:F4 Y:00 P:A5 SP:FB PPU:205, 79
DA11  24 01     BIT                             A:69 X:F4 Y:00 P:A5 SP:FB PPU:211, 79
DA13  A9 00     LDA                             A:69 X:F4 Y:00 P:E5 SP:FB PPU:220, 79
DA15  71 33     ADC                             A:00 X:F4 Y:00 P:67 SP:FB PPU:226, 79
DA17  30 08     BMI                             A:6A X:F4 Y:00 P:24 SP:FB PPU:241, 79
DA19  B0 06     BCS                             A:6A X:F4 Y:00 P:24 SP:FB PPU:247, 79
DA1B  C9 6A     CMP                             A:6A X:F4 Y:00 P:24 SP:FB PPU:253, 79
DA1D  D0 02     BNE                             A:6A X:F4 Y:00 P:27 SP:FB PPU:259, 79
DA1F  50 02     BVC                             A:6A X:F4 Y:00 P:27 SP:FB PPU:265, 79
DA23  E8        INX                             A:6A X:F4 Y:00 P:27 SP:FB PPU:274, 79
DA24  38        SEC                             A:6A X:F5 Y:00 P:A5 SP:FB PPU:280, 79
DA25  B8        CLV                             A:6A X:F5 Y:00 P:A5 SP:FB PPU:286, 79
DA26  A9 7F     LDA                             A:6A X:F5 Y:00 P:A5 SP:FB PPU:292, 79
DA28  8D 00 04  STA                             A:7F X:F5 Y:00 P:25 SP:FB PPU:298, 79
DA2B  71 33     ADC                             A:7F X:F5 Y:00 P:25 SP:FB PPU:310, 79
DA2D  10 08     BPL                             A:FF X:F5 Y:00 P:E4 SP:FB PPU:325, 79
DA2F  B0 06     BCS                             A:FF X:F5 Y:00 P:E4 SP:FB PPU:331, 79
DA31  C9 FF     CMP                             A:FF X:F5 Y:00 P:E4 SP:FB PPU:337, 79
DA33  D0 02     BNE                             A:FF X:F5 Y:00 P:67 SP:FB PPU:  2, 80
DA35  70 02     BVS                             A:FF X:F5 Y:00 P:67 SP:FB PPU:  8, 80
DA39  E8        INX                             A:FF X:F5 Y:00 P:67 SP:FB PPU: 17, 80
DA3A  18        CLC                             A:FF X:F6 Y:00 P:E5 SP:FB PPU: 23, 80
DA3B  24 01     BIT                             A:FF X:F6 Y:00 P:E4 SP:FB PPU: 29, 80
DA3D  A9 80     LDA                             A:FF X:F6 Y:00 P:E4 SP:FB PPU: 38, 80
DA3F  8D 00 04  STA                             A:80 X:F6 Y:00 P:E4 SP:FB PPU: 44, 80
DA42  A9 7F     LDA                             A:80 X:F6 Y:00 P:E4 SP:FB PPU: 56, 80
DA44  71 33     ADC                             A:7F X:F6 Y:00 P:64 SP:FB PPU: 62, 80
DA46  10 08     BPL                             A:FF X:F6 Y:00 P:A4 SP:FB PPU: 77, 80
DA48  B0 06     BCS                             A:FF X:F6 Y:00 P:A4 SP:FB PPU: 83, 80
DA4A  C9 FF     CMP                             A:FF X:F6 Y:00 P:A4 SP:FB PPU: 89, 80
DA4C  D0 02     BNE                             A:FF X:F6 Y:00 P:27 SP:FB PPU: 95, 80
DA4E  50 02     BVC                             A:FF X:F6 Y:00 P:27 SP:FB PPU:101, 80
DA52  E8        INX                             A:FF X:F6 Y:00 P:27 SP:FB PPU:110, 80
DA53  38        SEC                             A:FF X:F7 Y:00 P:A5 SP:FB PPU:116, 80
DA54  B8        CLV                             A:FF X:F7 Y:00 P:A5 SP:FB PPU:122, 80
DA55  A9 80     LDA                             A:FF X:F7 Y:00 P:A5 SP:FB PPU:128, 80
DA57  8D 00 04  STA                             A:80 X:F7 Y:00 P:A5 SP:FB PPU:134, 80
DA5A  A9 7F     LDA                             A:80 X:F7 Y:00 P:A5 SP:FB PPU:146, 80
DA5C  71 33     ADC                             A:7F X:F7 Y:00 P:25 SP:FB PPU:152, 80
DA5E  D0 06     BNE                             A:00 X:F7 Y:00 P:27 SP:FB PPU:167, 80
DA60  30 04     BMI                             A:00 X:F7 Y:00 P:27 SP:FB PPU:173, 80
DA62  70 02     BVS                             A:00 X:F7 Y:00 P:27 SP:FB PPU:179, 80
DA64  B0 02     BCS                             A:00 X:F7 Y:00 P:27 SP:FB PPU:185, 80
DA68  E8        INX                             A:00 X:F7 Y:00 P:27 SP:FB PPU:194, 80
DA69  24 01     BIT                             A:00 X:F8 Y:00 P:A5 SP:FB PPU:200, 80
DA6B  A9 40     LDA                             A:00 X:F8 Y:00 P:E7 SP:FB PPU:209, 80
DA6D  8D 00 04  STA                             A:40 X:F8 Y:00 P:65 SP:FB PPU:215, 80
DA70  D1 33     CMP                             A:40 X:F8 Y:00 P:65 SP:FB PPU:227, 80
DA72  30 06     BMI                             A:40 X:F8 Y:00 P:67 SP:FB PPU:242, 80
DA74  90 04     BCC                             A:40 X:F8 Y:00 P:67 SP:FB PPU:248, 80
DA76  D0 02     BNE                             A:40 X:F8 Y:00 P:67 SP:FB PPU:254, 80
DA78  70 02     BVS                             A:40 X:F8 Y:00 P:67 SP:FB PPU:260, 80
DA7C  E8        INX                             A:40 X:F8 Y:00 P:67 SP:FB PPU:269, 80
DA7D  B8        CLV                             A:40 X:F9 Y:00 P:E5 SP:FB PPU:275, 80
DA7E  CE 00 04  DEC                             A:40 X:F9 Y:00 P:A5 SP:FB PPU:281, 80
DA81  D1 33     CMP                             A:40 X:F9 Y:00 P:25 SP:FB PPU:299, 80
DA83  F0 06     BEQ                             A:40 X:F9 Y:00 P:25 SP:FB PPU:314, 80
DA85  30 04     BMI                             A:40 X:F9 Y:00 P:25 SP:FB PPU:320, 80
DA87  90 02     BCC                             A:40 X:F9 Y:00 P:25 SP:FB PPU:326, 80
DA89  50 02     BVC                             A:40 X:F9 Y:00 P:25 SP:FB PPU:332, 80
DA8D  E8        INX                             A:40 X:F9 Y:00 P:25 SP:FB PPU:  0, 81
DA8E  EE 00 04  INC                             A:40 X:FA Y:00 P:A5 SP:FB PPU:  6, 81
DA91  EE 00 04  INC                             A:40 X:FA Y:00 P:25 SP:FB PPU: 24, 81
DA94  D1 33     CMP                             A:40 X:FA Y:00 P:25 SP:FB PPU: 42, 81
DA96  F0 02     BEQ                             A:40 X:FA Y:00 P:A4 SP:FB PPU: 57, 81
DA98  30 02     BMI                             A:40 X:FA Y:00 P:A4 SP:FB PPU: 63, 81
DA9C  E8        INX                             A:40 X:FA Y:00 P:A4 SP:FB PPU: 72, 81
DA9D  A9 00     LDA                             A:40 X:FB Y:00 P:A4 SP:FB PPU: 78, 81
DA9F  8D 00 04  STA                             A:00 X:FB Y:00 P:26 SP:FB PPU: 84, 81
DAA2  A9 80     LDA                             A:00 X:FB Y:00 P:26 SP:FB PPU: 96, 81
DAA4  D1 33     CMP                             A:80 X:FB Y:00 P:A4 SP:FB PPU:102, 81
DAA6  F0 04     BEQ                             A:80 X:FB Y:00 P:A5 SP:FB PPU:117, 81
DAA8  10 02     BPL                             A:80 X:FB Y:00 P:A5 SP:FB PPU:123, 81
DAAA  B0 02     BCS                             A:80 X:FB Y:00 P:A5 SP:FB PPU:129, 81
DAAE  E8        INX                             A:80 X:FB Y:00 P:A5 SP:FB PPU:138, 81
DAAF  A0 80     LDY                             A:80 X:FC Y:00 P:A5 SP:FB PPU:144, 81
DAB1  8C 00 04  STY                             A:80 X:FC Y:80 P:A5 SP:FB PPU:150, 81
DAB4  A0 00     LDY                             A:80 X:FC Y:80 P:A5 SP:FB PPU:162, 81
DAB6  D1 33     CMP                             A:80 X:FC Y:00 P:27 SP:FB PPU:168, 81
DAB8  D0 04     BNE                             A:80 X:FC Y:00 P:27 SP:FB PPU:183, 81
DABA  30 02     BMI                             A:80 X:FC Y:00 P:27 SP:FB PPU:189, 81
DABC  B0 02     BCS                             A:80 X:FC Y:00 P:27 SP:FB PPU:195, 81
DAC0  E8        INX                             A:80 X:FC Y:00 P:27 SP:FB PPU:204, 81
DAC1  EE 00 04  INC                             A:80 X:FD Y:00 P:A5 SP:FB PPU:210, 81
DAC4  D1 33     CMP                             A:80 X:FD Y:00 P:A5 SP:FB PPU:228, 81
DAC6  B0 04     BCS                             A:80 X:FD Y:00 P:A4 SP:FB PPU:243, 81
DAC8  F0 02     BEQ                             A:80 X:FD Y:00 P:A4 SP:FB PPU:249, 81
DACA  30 02     BMI                             A:80 X:FD Y:00 P:A4 SP:FB PPU:255, 81
DACE  E8        INX                             A:80 X:FD Y:00 P:A4 SP:FB PPU:264, 81
DACF  CE 00 04  DEC                             A:80 X:FE Y:00 P:A4 SP:FB PPU:270, 81
DAD2  CE 00 04  DEC                             A:80 X:FE Y:00 P:A4 SP:FB PPU:288, 81
DAD5  D1 33     CMP                             A:80 X:FE Y:00 P:24 SP:FB PPU:306, 81
DAD7  90 04     BCC                             A:80 X:FE Y:00 P:25 SP:FB PPU:321, 81
DAD9  F0 02     BEQ                             A:80 X:FE Y:00 P:25 SP:FB PPU:327, 81
DADB  10 02     BPL                             A:80 X:FE Y:00 P:25 SP:FB PPU:333, 81
DADF  60        RTS                             A:80 X:FE Y:00 P:25 SP:FB PPU:  1, 82
C61B  A5 00     LDA                             A:80 X:FE Y:00 P:25 SP:FD PPU: 19, 82
C61D  85 10     STA                             A:00 X:FE Y:00 P:27 SP:FD PPU: 28, 82
C61F  A9 00     LDA                             A:00 X:FE Y:00 P:27 SP:FD PPU: 37, 82
C621  85 00     STA                             A:00 X:FE Y:00 P:27 SP:FD PPU: 43, 82
C623  20 E0 DA  JSR                             A:00 X:FE Y:00 P:27 SP:FD PPU: 52, 82
DAE0  A9 00     LDA                             A:00 X:FE Y:00 P:27 SP:FB PPU: 70, 82
DAE2  85 33     STA                             A:00 X:FE Y:00 P:27 SP:FB PPU: 76, 82
DAE4  A9 04     LDA                             A:00 X:FE Y:00 P:27 SP:FB PPU: 85, 82
DAE6  85 34     STA                             A:04 X:FE Y:00 P:25 SP:FB PPU: 91, 82
DAE8  A0 00     LDY                             A:04 X:FE Y:00 P:25 SP:FB PPU:100, 82
DAEA  A2 01     LDX                             A:04 X:FE Y:00 P:27 SP:FB PPU:106, 82
DAEC  24 01     BIT                             A:04 X:01 Y:00 P:25 SP:FB PPU:112, 82
DAEE  A9 40     LDA                             A:04 X:01 Y:00 P:E5 SP:FB PPU:121, 82
DAF0  8D 00 04  STA                             A:40 X:01 Y:00 P:65 SP:FB PPU:127, 82
DAF3  38        SEC                             A:40 X:01 Y:00 P:65 SP:FB PPU:139, 82
DAF4  F1 33     SBC                             A:40 X:01 Y:00 P:65 SP:FB PPU:145, 82
DAF6  30 0A     BMI                             A:00 X:01 Y:00 P:27 SP:FB PPU:160, 82
DAF8  90 08     BCC                             A:00 X:01 Y:00 P:27 SP:FB PPU:166, 82
DAFA  D0 06     BNE                             A:00 X:01 Y:00 P:27 SP:FB PPU:172, 82
DAFC  70 04     BVS                             A:00 X:01 Y:00 P:27 SP:FB PPU:178, 82
DAFE  C9 00     CMP                             A:00 X:01 Y:00 P:27 SP:FB PPU:184, 82
DB00  F0 02     BEQ                             A:00 X:01 Y:00 P:27 SP:FB PPU:190, 82
DB04  E8        INX                             A:00 X:01 Y:00 P:27 SP:FB PPU:199, 82
DB05  B8        CLV                             A:00 X:02 Y:00 P:25 SP:FB PPU:205, 82
DB06  38        SEC                             A:00 X:02 Y:00 P:25 SP:FB PPU:211, 82
DB07  A9 40     LDA                             A:00 X:02 Y:00 P:25 SP:FB PPU:217, 82
DB09  CE 00 04  DEC                             A:40 X:02 Y:00 P:25 SP:FB PPU:223, 82
DB0C  F1 33     SBC                             A:40 X:02 Y:00 P:25 SP:FB PPU:241, 82
DB0E  F0 0A     BEQ                             A:01 X:02 Y:00 P:25 SP:FB PPU:256, 82
DB10  30 08     BMI                             A:01 X:02 Y:00 P:25 SP:FB PPU:262, 82
DB12  90 06     BCC                             A:01 X:02 Y:00 P:25 SP:FB PPU:268, 82
DB14  70 04     BVS                             A:01 X:02 Y:00 P:25 SP:FB PPU:274, 82
DB16  C9 01     CMP                             A:01 X:02 Y:00 P:25 SP:FB PPU:280, 82
DB18  F0 02     BEQ                             A:01 X:02 Y:00 P:27 SP:FB PPU:286, 82
DB1C  E8        INX                             A:01 X:02 Y:00 P:27 SP:FB PPU:295, 82
DB1D  A9 40     LDA                             A:01 X:03 Y:00 P:25 SP:FB PPU:301, 82
DB1F  38        SEC                             A:40 X:03 Y:00 P:25 SP:FB PPU:307, 82
DB20  24 01     BIT                             A:40 X:03 Y:00 P:25 SP:FB PPU:313, 82
DB22  EE 00 04  INC                             A:40 X:03 Y:00 P:E5 SP:FB PPU:322, 82
DB25  EE 00 04  INC                             A:40 X:03 Y:00 P:65 SP:FB PPU:340, 82
DB28  F1 33     SBC                             A:40 X:03 Y:00 P:65 SP:FB PPU: 17, 83
DB2A  B0 0A     BCS                             A:FF X:03 Y:00 P:A4 SP:FB PPU: 32, 83
DB2C  F0 08     BEQ                             A:FF X:03 Y:00 P:A4 SP:FB PPU: 38, 83
DB2E  10 06     BPL                             A:FF X:03 Y:00 P:A4 SP:FB PPU: 44, 83
DB30  70 04     BVS                             A:FF X:03 Y:00 P:A4 SP:FB PPU: 50, 83
DB32  C9 FF     CMP                             A:FF X:03 Y:00 P:A4 SP:FB PPU: 56, 83
DB34  F0 02     BEQ                             A:FF X:03 Y:00 P:27 SP:FB PPU: 62, 83
DB38  E8        INX                             A:FF X:03 Y:00 P:27 SP:FB PPU: 71, 83
DB39  18        CLC                             A:FF X:04 Y:00 P:25 SP:FB PPU: 77, 83
DB3A  A9 00     LDA                             A:FF X:04 Y:00 P:24 SP:FB PPU: 83, 83
DB3C  8D 00 04  STA                             A:00 X:04 Y:00 P:26 SP:FB PPU: 89, 83
DB3F  A9 80     LDA                             A:00 X:04 Y:00 P:26 SP:FB PPU:101, 83
DB41  F1 33     SBC                             A:80 X:04 Y:00 P:A4 SP:FB PPU:107, 83
DB43  90 04     BCC                             A:7F X:04 Y:00 P:65 SP:FB PPU:122, 83
DB45  C9 7F     CMP                             A:7F X:04 Y:00 P:65 SP:FB PPU:128, 83
DB47  F0 02     BEQ                             A:7F X:04 Y:00 P:67 SP:FB PPU:134, 83
DB4B  E8        INX                             A:7F X:04 Y:00 P:67 SP:FB PPU:143, 83
DB4C  38        SEC                             A:7F X:05 Y:00 P:65 SP:FB PPU:149, 83
DB4D  A9 7F     LDA                             A:7F X:05 Y:00 P:65 SP:FB PPU:155, 83
DB4F  8D 00 04  STA                             A:7F X:05 Y:00 P:65 SP:FB PPU:161, 83
DB52  A9 81     LDA                             A:7F X:05 Y:00 P:65 SP:FB PPU:173, 83
DB54  F1 33     SBC                             A:81 X:05 Y:00 P:E5 SP:FB PPU:179, 83
DB56  50 06     BVC                             A:02 X:05 Y:00 P:65 SP:FB PPU:194, 83
DB58  90 04     BCC                             A:02 X:05 Y:00 P:65 SP:FB PPU:200, 83
DB5A  C9 02     CMP                             A:02 X:05 Y:00 P:65 SP:FB PPU:206, 83
DB5C  F0 02     BEQ                             A:02 X:05 Y:00 P:67 SP:FB PPU:212, 83
DB60  E8        INX                             A:02 X:05 Y:00 P:67 SP:FB PPU:221, 83
DB61  A9 00     LDA                             A:02 X:06 Y:00 P:65 SP:FB PPU:227, 83
DB63  A9 87     LDA                             A:00 X:06 Y:00 P:67 SP:FB PPU:233, 83
DB65  91 33     STA                             A:87 X:06 Y:00 P:E5 SP:FB PPU:239, 83
DB67  AD 00 04  LDA                             A:87 X:06 Y:00 P:E5 SP:FB PPU:257, 83
DB6A  C9 87     CMP                             A:87 X:06 Y:00 P:E5 SP:FB PPU:269, 83
DB6C  F0 02     BEQ                             A:87 X:06 Y:00 P:67 SP:FB PPU:275, 83
DB70  E8        INX                             A:87 X:06 Y:00 P:67 SP:FB PPU:284, 83
DB71  A9 7E     LDA                             A:87 X:07 Y:00 P:65 SP:FB PPU:290, 83
DB73  8D 00 02  STA                             A:7E X:07 Y:00 P:65 SP:FB PPU:296, 83
DB76  A9 DB     LDA                             A:7E X:07 Y:00 P:65 SP:FB PPU:308, 83
DB78  8D 01 02  STA                             A:DB X:07 Y:00 P:E5 SP:FB PPU:314, 83
DB7B  6C 00 02  JMP                             A:DB X:07 Y:00 P:E5 SP:FB PPU:326, 83
DB7E  A9 00     LDA                             A:DB X:07 Y:00 P:E5 SP:FB PPU:  0, 84
DB80  8D FF 02  STA                             A:00 X:07 Y:00 P:67 SP:FB PPU:  6, 84
DB83  A9 01     LDA                             A:00 X:07 Y:00 P:67 SP:FB PPU: 18, 84
DB85  8D 00 03  STA                             A:01 X:07 Y:00 P:65 SP:FB PPU: 24, 84
DB88  A9 03     LDA                             A:01 X:07 Y:00 P:65 SP:FB PPU: 36, 84
DB8A  8D 00 02  STA                             A:03 X:07 Y:00 P:65 SP:FB PPU: 42, 84
DB8D  A9 A9     LDA                             A:03 X:07 Y:00 P:65 SP:FB PPU: 54, 84
DB8F  8D 00 01  STA                             A:A9 X:07 Y:00 P:E5 SP:FB PPU: 60, 84
DB92  A9 55     LDA                             A:A9 X:07 Y:00 P:E5 SP:FB PPU: 72, 84
DB94  8D 01 01  STA                             A:55 X:07 Y:00 P:65 SP:FB PPU: 78, 84
DB97  A9 60     LDA                             A:55 X:07 Y:00 P:65 SP:FB PPU: 90, 84
DB99  8D 02 01  STA                             A:60 X:07 Y:00 P:65 SP:FB PPU: 96, 84
DB9C  A9 A9     LDA                             A:60 X:07 Y:00 P:65 SP:FB PPU:108, 84
DB9E  8D 00 03  STA                             A:A9 X:07 Y:00 P:E5 SP:FB PPU:114, 84
DBA1  A9 AA     LDA                             A:A9 X:07 Y:00 P:E5 SP:FB PPU:126, 84
DBA3  8D 01 03  STA                             A:AA X:07 Y:00 P:E5 SP:FB PPU:132, 84
DBA6  A9 60     LDA                             A:AA X:07 Y:00 P:E5 SP:FB PPU:144, 84
DBA8  8D 02 03  STA                             A:60 X:07 Y:00 P:65 SP:FB PPU:150, 84
DBAB  20 B5 DB  JSR                             A:60 X:07 Y:00 P:65 SP:FB PPU:162, 84
DBB5  6C FF 02  JMP                             A:60 X:07 Y:00 P:65 SP:F9 PPU:180, 84
0300  A9 AA     LDA                             A:60 X:07 Y:00 P:65 SP:F9 PPU:195, 84
0302  60        RTS                             A:AA X:07 Y:00 P:E5 SP:F9 PPU:201, 84
DBAE  C9 AA     CMP                             A:AA X:07 Y:00 P:E5 SP:FB PPU:219, 84
DBB0  F0 02     BEQ                             A:AA X:07 Y:00 P:67 SP:FB PPU:225, 84
DBB4  60        RTS                             A:AA X:07 Y:00 P:67 SP:FB PPU:234, 84
C626  20 4A DF  JSR                             A:AA X:07 Y:00 P:67 SP:FD PPU:252, 84
DF4A  A9 89     LDA                             A:AA X:07 Y:00 P:67 SP:FB PPU:270, 84
DF4C  8D 00 03  STA                             A:89 X:07 Y:00 P:E5 SP:FB PPU:276, 84
DF4F  A9 A3     LDA                             A:89 X:07 Y:00 P:E5 SP:FB PPU:288, 84
DF51  85 33     STA                             A:A3 X:07 Y:00 P:E5 SP:FB PPU:294, 84
DF53  A9 12     LDA                             A:A3 X:07 Y:00 P:E5 SP:FB PPU:303, 84
DF55  8D 45 02  STA                             A:12 X:07 Y:00 P:65 SP:FB PPU:309, 84
DF58  A2 65     LDX                             A:12 X:07 Y:00 P:65 SP:FB PPU:321, 84
DF5A  A0 00     LDY                             A:12 X:65 Y:00 P:65 SP:FB PPU:327, 84
DF5C  38        SEC                             A:12 X:65 Y:00 P:67 SP:FB PPU:333, 84
DF5D  A9 00     LDA                             A:12 X:65 Y:00 P:67 SP:FB PPU:339, 84
DF5F  B8        CLV                             A:00 X:65 Y:00 P:67 SP:FB PPU:  4, 85
DF60  B9 00 03  LDA                             A:00 X:65 Y:00 P:27 SP:FB PPU: 10, 85
DF63  F0 0C     BEQ                             A:89 X:65 Y:00 P:A5 SP:FB PPU: 22, 85
DF65  90 0A     BCC                             A:89 X:65 Y:00 P:A5 SP:FB PPU: 28, 85
DF67  70 08     BVS                             A:89 X:65 Y:00 P:A5 SP:FB PPU: 34, 85
DF69  C9 89     CMP                             A:89 X:65 Y:00 P:A5 SP:FB PPU: 40, 85
DF6B  D0 04     BNE                             A:89 X:65 Y:00 P:27 SP:FB PPU: 46, 85
DF6D  E0 65     CPX                             A:89 X:65 Y:00 P:27 SP:FB PPU: 52, 85
DF6F  F0 04     BEQ                             A:89 X:65 Y:00 P:27 SP:FB PPU: 58, 85
DF75  A9 FF     LDA                             A:89 X:65 Y:00 P:27 SP:FB PPU: 67, 85
DF77  85 01     STA                             A:FF X:65 Y:00 P:A5 SP:FB PPU: 73, 85
DF79  24 01     BIT                             A:FF X:65 Y:00 P:A5 SP:FB PPU: 82, 85
DF7B  A0 34     LDY                             A:FF X:65 Y:00 P:E5 SP:FB PPU: 91, 85
DF7D  B9 FF FF  LDA                             A:FF X:65 Y:34 P:65 SP:FB PPU: 97, 85
DF80  C9 A3     CMP                             A:A3 X:65 Y:34 P:E5 SP:FB PPU:112, 85
DF82  D0 02     BNE                             A:A3 X:65 Y:34 P:67 SP:FB PPU:118, 85
DF84  B0 04     BCS                             A:A3 X:65 Y:34 P:67 SP:FB PPU:124, 85
DF8A  A9 46     LDA                             A:A3 X:65 Y:34 P:67 SP:FB PPU:133, 85
DF8C  85 FF     STA                             A:46 X:65 Y:34 P:65 SP:FB PPU:139, 85
DF8E  A0 FF     LDY                             A:46 X:65 Y:34 P:65 SP:FB PPU:148, 85
DF90  B9 46 01  LDA                             A:46 X:65 Y:FF P:E5 SP:FB PPU:154, 85
DF93  C9 12     CMP                             A:12 X:65 Y:FF P:65 SP:FB PPU:169, 85
DF95  F0 04     BEQ                             A:12 X:65 Y:FF P:67 SP:FB PPU:175, 85
DF9B  A2 39     LDX                             A:12 X:65 Y:FF P:67 SP:FB PPU:184, 85
DF9D  18        CLC                             A:12 X:39 Y:FF P:65 SP:FB PPU:190, 85
DF9E  A9 FF     LDA                             A:12 X:39 Y:FF P:64 SP:FB PPU:196, 85
DFA0  85 01     STA                             A:FF X:39 Y:FF P:E4 SP:FB PPU:202, 85
DFA2  24 01     BIT                             A:FF X:39 Y:FF P:E4 SP:FB PPU:211, 85
DFA4  A9 AA     LDA                             A:FF X:39 Y:FF P:E4 SP:FB PPU:220, 85
DFA6  8D 00 04  STA                             A:AA X:39 Y:FF P:E4 SP:FB PPU:226, 85
DFA9  A9 55     LDA                             A:AA X:39 Y:FF P:E4 SP:FB PPU:238, 85
DFAB  A0 00     LDY                             A:55 X:39 Y:FF P:64 SP:FB PPU:244, 85
DFAD  19 00 04  ORA                             A:55 X:39 Y:00 P:66 SP:FB PPU:250, 85
DFB0  B0 08     BCS                             A:FF X:39 Y:00 P:E4 SP:FB PPU:262, 85
DFB2  10 06     BPL                             A:FF X:39 Y:00 P:E4 SP:FB PPU:268, 85
DFB4  C9 FF     CMP                             A:FF X:39 Y:00 P:E4 SP:FB PPU:274, 85
DFB6  D0 02     BNE                             A:FF X:39 Y:00 P:67 SP:FB PPU:280, 85
DFB8  70 02     BVS                             A:FF X:39 Y:00 P:67 SP:FB PPU:286, 85
DFBC  E8        INX                             A:FF X:39 Y:00 P:67 SP:FB PPU:295, 85
DFBD  38        SEC                             A:FF X:3A Y:00 P:65 SP:FB PPU:301, 85
DFBE  B8        CLV                             A:FF X:3A Y:00 P:65 SP:FB PPU:307, 85
DFBF  A9 00     LDA                             A:FF X:3A Y:00 P:25 SP:FB PPU:313, 85
DFC1  19 00 04  ORA                             A:00 X:3A Y:00 P:27 SP:FB PPU:319, 85
DFC4  F0 06     BEQ                             A:AA X:3A Y:00 P:A5 SP:FB PPU:331, 85
DFC6  70 04     BVS                             A:AA X:3A Y:00 P:A5 SP:FB PPU:337, 85
DFC8  90 02     BCC                             A:AA X:3A Y:00 P:A5 SP:FB PPU:  2, 86
DFCA  30 02     BMI                             A:AA X:3A Y:00 P:A5 SP:FB PPU:  8, 86
DFCE  E8        INX                             A:AA X:3A Y:00 P:A5 SP:FB PPU: 17, 86
DFCF  18        CLC                             A:AA X:3B Y:00 P:25 SP:FB PPU: 23, 86
DFD0  24 01     BIT                             A:AA X:3B Y:00 P:24 SP:FB PPU: 29, 86
DFD2  A9 55     LDA                             A:AA X:3B Y:00 P:E4 SP:FB PPU: 38, 86
DFD4  39 00 04  AND                             A:55 X:3B Y:00 P:64 SP:FB PPU: 44, 86
DFD7  D0 06     BNE                             A:00 X:3B Y:00 P:66 SP:FB PPU: 56, 86
DFD9  50 04     BVC                             A:00 X:3B Y:00 P:66 SP:FB PPU: 62, 86
DFDB  B0 02     BCS                             A:00 X:3B Y:00 P:66 SP:FB PPU: 68, 86
DFDD  10 02     BPL                             A:00 X:3B Y:00 P:66 SP:FB PPU: 74, 86
DFE1  E8        INX                             A:00 X:3B Y:00 P:66 SP:FB PPU: 83, 86
DFE2  38        SEC                             A:00 X:3C Y:00 P:64 SP:FB PPU: 89, 86
DFE3  B8        CLV                             A:00 X:3C Y:00 P:65 SP:FB PPU: 95, 86
DFE4  A9 EF     LDA                             A:00 X:3C Y:00 P:25 SP:FB PPU:101, 86
DFE6  8D 00 04  STA                             A:EF X:3C Y:00 P:A5 SP:FB PPU:107, 86
DFE9  A9 F8     LDA                             A:EF X:3C Y:00 P:A5 SP:FB PPU:119, 86
DFEB  39 00 04  AND                             A:F8 X:3C Y:00 P:A5 SP:FB PPU:125, 86
DFEE  90 08     BCC                             A:E8 X:3C Y:00 P:A5 SP:FB PPU:137, 86
DFF0  10 06     BPL                             A:E8 X:3C Y:00 P:A5 SP:FB PPU:143, 86
DFF2  C9 E8     CMP                             A:E8 X:3C Y:00 P:A5 SP:FB PPU:149, 86
DFF4  D0 02     BNE                             A:E8 X:3C Y:00 P:27 SP:FB PPU:155, 86
DFF6  50 02     BVC                             A:E8 X:3C Y:00 P:27 SP:FB PPU:161, 86
DFFA  E8        INX                             A:E8 X:3C Y:00 P:27 SP:FB PPU:170, 86
DFFB  18        CLC                             A:E8 X:3D Y:00 P:25 SP:FB PPU:176, 86
DFFC  24 01     BIT                             A:E8 X:3D Y:00 P:24 SP:FB PPU:182, 86
DFFE  A9 AA     LDA                             A:E8 X:3D Y:00 P:E4 SP:FB PPU:191, 86
E000  8D 00 04  STA                             A:AA X:3D Y:00 P:E4 SP:FB PPU:197, 86
E003  A9 5F     LDA                             A:AA X:3D Y:00 P:E4 SP:FB PPU:209, 86
E005  59 00 04  EOR                             A:5F X:3D Y:00 P:64 SP:FB PPU:215, 86
E008  B0 08     BCS                             A:F5 X:3D Y:00 P:E4 SP:FB PPU:227, 86
E00A  10 06     BPL                             A:F5 X:3D Y:00 P:E4 SP:FB PPU:233, 86
E00C  C9 F5     CMP                             A:F5 X:3D Y:00 P:E4 SP:FB PPU:239, 86
E00E  D0 02     BNE                             A:F5 X:3D Y:00 P:67 SP:FB PPU:245, 86
E010  70 02     BVS                             A:F5 X:3D Y:00 P:67 SP:FB PPU:251, 86
E014  E8        INX                             A:F5 X:3D Y:00 P:67 SP:FB PPU:260, 86
E015  38        SEC                             A:F5 X:3E Y:00 P:65 SP:FB PPU:266, 86
E016  B8        CLV                             A:F5 X:3E Y:00 P:65 SP:FB PPU:272, 86
E017  A9 70     LDA                             A:F5 X:3E Y:00 P:25 SP:FB PPU:278, 86
E019  8D 00 04  STA                             A:70 X:3E Y:00 P:25 SP:FB PPU:284, 86
E01C  59 00 04  EOR                             A:70 X:3E Y:00 P:25 SP:FB PPU:296, 86
E01F  D0 06     BNE                             A:00 X:3E Y:00 P:27 SP:FB PPU:308, 86
E021  70 04     BVS                             A:00 X:3E Y:00 P:27 SP:FB PPU:314, 86
E023  90 02     BCC                             A:00 X:3E Y:00 P:27 SP:FB PPU:320, 86
E025  10 02     BPL                             A:00 X:3E Y:00 P:27 SP:FB PPU:326, 86
E029  E8        INX                             A:00 X:3E Y:00 P:27 SP:FB PPU:335, 86
E02A  18        CLC                             A:00 X:3F Y:00 P:25 SP:FB PPU:  0, 87
E02B  24 01     BIT                             A:00 X:3F Y:00 P:24 SP:FB PPU:  6, 87
E02D  A9 69     LDA                             A:00 X:3F Y:00 P:E6 SP:FB PPU: 15, 87
E02F  8D 00 04  STA                             A:69 X:3F Y:00 P:64 SP:FB PPU: 21, 87
E032  A9 00     LDA                             A:69 X:3F Y:00 P:64 SP:FB PPU: 33, 87
E034  79 00 04  ADC                             A:00 X:3F Y:00 P:66 SP:FB PPU: 39, 87
E037  30 08     BMI                             A:69 X:3F Y:00 P:24 SP:FB PPU: 51, 87
E039  B0 06     BCS                             A:69 X:3F Y:00 P:24 SP:FB PPU: 57, 87
E03B  C9 69     CMP                             A:69 X:3F Y:00 P:24 SP:FB PPU: 63, 87
E03D  D0 02     BNE                             A:69 X:3F Y:00 P:27 SP:FB PPU: 69, 87
E03F  50 02     BVC                             A:69 X:3F Y:00 P:27 SP:FB PPU: 75, 87
E043  E8        INX                             A:69 X:3F Y:00 P:27 SP:FB PPU: 84, 87
E044  38        SEC                             A:69 X:40 Y:00 P:25 SP:FB PPU: 90, 87
E045  24 01     BIT                             A:69 X:40 Y:00 P:25 SP:FB PPU: 96, 87
E047  A9 00     LDA                             A:69 X:40 Y:00 P:E5 SP:FB PPU:105, 87
E049  79 00 04  ADC                             A:00 X:40 Y:00 P:67 SP:FB PPU:111, 87
E04C  30 08     BMI                             A:6A X:40 Y:00 P:24 SP:FB PPU:123, 87
E04E  B0 06     BCS                             A:6A X:40 Y:00 P:24 SP:FB PPU:129, 87
E050  C9 6A     CMP                             A:6A X:40 Y:00 P:24 SP:FB PPU:135, 87
E052  D0 02     BNE                             A:6A X:40 Y:00 P:27 SP:FB PPU:141, 87
E054  50 02     BVC                             A:6A X:40 Y:00 P:27 SP:FB PPU:147, 87
E058  E8        INX                             A:6A X:40 Y:00 P:27 SP:FB PPU:156, 87
E059  38        SEC                             A:6A X:41 Y:00 P:25 SP:FB PPU:162, 87
E05A  B8        CLV                             A:6A X:41 Y:00 P:25 SP:FB PPU:168, 87
E05B  A9 7F     LDA                             A:6A X:41 Y:00 P:25 SP:FB PPU:174, 87
E05D  8D 00 04  STA                             A:7F X:41 Y:00 P:25 SP:FB PPU:180, 87
E060  79 00 04  ADC                             A:7F X:41 Y:00 P:25 SP:FB PPU:192, 87
E063  10 08     BPL                             A:FF X:41 Y:00 P:E4 SP:FB PPU:204, 87
E065  B0 06     BCS                             A:FF X:41 Y:00 P:E4 SP:FB PPU:210, 87
E067  C9 FF     CMP                             A:FF X:41 Y:00 P:E4 SP:FB PPU:216, 87
E069  D0 02     BNE                             A:FF X:41 Y:00 P:67 SP:FB PPU:222, 87
E06B  70 02     BVS                             A:FF X:41 Y:00 P:67 SP:FB PPU:228, 87
E06F  E8        INX                             A:FF X:41 Y:00 P:67 SP:FB PPU:237, 87
E070  18        CLC                             A:FF X:42 Y:00 P:65 SP:FB PPU:243, 87
E071  24 01     BIT                             A:FF X:42 Y:00 P:64 SP:FB PPU:249, 87
E073  A9 80     LDA                             A:FF X:42 Y:00 P:E4 SP:FB PPU:258, 87
E075  8D 00 04  STA                             A:80 X:42 Y:00 P:E4 SP:FB PPU:264, 87
E078  A9 7F     LDA                             A:80 X:42 Y:00 P:E4 SP:FB PPU:276, 87
E07A  79 00 04  ADC                             A:7F X:42 Y:00 P:64 SP:FB PPU:282, 87
E07D  10 08     BPL                             A:FF X:42 Y:00 P:A4 SP:FB PPU:294, 87
E07F  B0 06     BCS                             A:FF X:42 Y:00 P:A4 SP:FB PPU:300, 87
E081  C9 FF     CMP                             A:FF X:42 Y:00 P:A4 SP:FB PPU:306, 87
E083  D0 02     BNE                             A:FF X:42 Y:00 P:27 SP:FB PPU:312, 87
E085  50 02     BVC                             A:FF X:42 Y:00 P:27 SP:FB PPU:318, 87
E089  E8        INX                             A:FF X:42 Y:00 P:27 SP:FB PPU:327, 87
E08A  38        SEC                             A:FF X:43 Y:00 P:25 SP:FB PPU:333, 87
E08B  B8        CLV                             A:FF X:43 Y:00 P:25 SP:FB PPU:339, 87
E08C  A9 80     LDA                             A:FF X:43 Y:00 P:25 SP:FB PPU:  4, 88
E08E  8D 00 04  STA                             A:80 X:43 Y:00 P:A5 SP:FB PPU: 10, 88
E091  A9 7F     LDA                             A:80 X:43 Y:00 P:A5 SP:FB PPU: 22, 88
E093  79 00 04  ADC                             A:7F X:43 Y:00 P:25 SP:FB PPU: 28, 88
E096  D0 06     BNE                             A:00 X:43 Y:00 P:27 SP:FB PPU: 40, 88
E098  30 04     BMI                             A:00 X:43 Y:00 P:27 SP:FB PPU: 46, 88
E09A  70 02     BVS                             A:00 X:43 Y:00 P:27 SP:FB PPU: 52, 88
E09C  B0 02     BCS                             A:00 X:43 Y:00 P:27 SP:FB PPU: 58, 88
E0A0  E8        INX                             A:00 X:43 Y:00 P:27 SP:FB PPU: 67, 88
E0A1  24 01     BIT                             A:00 X:44 Y:00 P:25 SP:FB PPU: 73, 88
E0A3  A9 40     LDA                             A:00 X:44 Y:00 P:E7 SP:FB PPU: 82, 88
E0A5  8D 00 04  STA                             A:40 X:44 Y:00 P:65 SP:FB PPU: 88, 88
E0A8  D9 00 04  CMP                             A:40 X:44 Y:00 P:65 SP:FB PPU:100, 88
E0AB  30 06     BMI                             A:40 X:44 Y:00 P:67 SP:FB PPU:112, 88
E0AD  90 04     BCC                             A:40 X:44 Y:00 P:67 SP:FB PPU:118, 88
E0AF  D0 02     BNE                             A:40 X:44 Y:00 P:67 SP:FB PPU:124, 88
E0B1  70 02     BVS                             A:40 X:44 Y:00 P:67 SP:FB PPU:130, 88
E0B5  E8        INX                             A:40 X:44 Y:00 P:67 SP:FB PPU:139, 88
E0B6  B8        CLV                             A:40 X:45 Y:00 P:65 SP:FB PPU:145, 88
E0B7  CE 00 04  DEC                             A:40 X:45 Y:00 P:25 SP:FB PPU:151, 88
E0BA  D9 00 04  CMP                             A:40 X:45 Y:00 P:25 SP:FB PPU:169, 88
E0BD  F0 06     BEQ                             A:40 X:45 Y:00 P:25 SP:FB PPU:181, 88
E0BF  30 04     BMI                             A:40 X:45 Y:00 P:25 SP:FB PPU:187, 88
E0C1  90 02     BCC                             A:40 X:45 Y:00 P:25 SP:FB PPU:193, 88
E0C3  50 02     BVC                             A:40 X:45 Y:00 P:25 SP:FB PPU:199, 88
E0C7  E8        INX                             A:40 X:45 Y:00 P:25 SP:FB PPU:208, 88
E0C8  EE 00 04  INC                             A:40 X:46 Y:00 P:25 SP:FB PPU:214, 88
E0CB  EE 00 04  INC                             A:40 X:46 Y:00 P:25 SP:FB PPU:232, 88
E0CE  D9 00 04  CMP                             A:40 X:46 Y:00 P:25 SP:FB PPU:250, 88
E0D1  F0 02     BEQ                             A:40 X:46 Y:00 P:A4 SP:FB PPU:262, 88
E0D3  30 02     BMI                             A:40 X:46 Y:00 P:A4 SP:FB PPU:268, 88
E0D7  E8        INX                             A:40 X:46 Y:00 P:A4 SP:FB PPU:277, 88
E0D8  A9 00     LDA                             A:40 X:47 Y:00 P:24 SP:FB PPU:283, 88
E0DA  8D 00 04  STA                             A:00 X:47 Y:00 P:26 SP:FB PPU:289, 88
E0DD  A9 80     LDA                             A:00 X:47 Y:00 P:26 SP:FB PPU:301, 88
E0DF  D9 00 04  CMP                             A:80 X:47 Y:00 P:A4 SP:FB PPU:307, 88
E0E2  F0 04     BEQ                             A:80 X:47 Y:00 P:A5 SP:FB PPU:319, 88
E0E4  10 02     BPL                             A:80 X:47 Y:00 P:A5 SP:FB PPU:325, 88
E0E6  B0 02     BCS                             A:80 X:47 Y:00 P:A5 SP:FB PPU:331, 88
E0EA  E8        INX                             A:80 X:47 Y:00 P:A5 SP:FB PPU:340, 88
E0EB  A0 80     LDY                             A:80 X:48 Y:00 P:25 SP:FB PPU:  5, 89
E0ED  8C 00 04  STY                             A:80 X:48 Y:80 P:A5 SP:FB PPU: 11, 89
E0F0  A0 00     LDY                             A:80 X:48 Y:80 P:A5 SP:FB PPU: 23, 89
E0F2  D9 00 04  CMP                             A:80 X:48 Y:00 P:27 SP:FB PPU: 29, 89
E0F5  D0 04     BNE                             A:80 X:48 Y:00 P:27 SP:FB PPU: 41, 89
E0F7  30 02     BMI                             A:80 X:48 Y:00 P:27 SP:FB PPU: 47, 89
E0F9  B0 02     BCS                             A:80 X:48 Y:00 P:27 SP:FB PPU: 53, 89
E0FD  E8        INX                             A:80 X:48 Y:00 P:27 SP:FB PPU: 62, 89
E0FE  EE 00 04  INC                             A:80 X:49 Y:00 P:25 SP:FB PPU: 68, 89
E101  D9 00 04  CMP                             A:80 X:49 Y:00 P:A5 SP:FB PPU: 86, 89
E104  B0 04     BCS                             A:80 X:49 Y:00 P:A4 SP:FB PPU: 98, 89
E106  F0 02     BEQ                             A:80 X:49 Y:00 P:A4 SP:FB PPU:104, 89
E108  30 02     BMI                             A:80 X:49 Y:00 P:A4 SP:FB PPU:110, 89
E10C  E8        INX                             A:80 X:49 Y:00 P:A4 SP:FB PPU:119, 89
E10D  CE 00 04  DEC                             A:80 X:4A Y:00 P:24 SP:FB PPU:125, 89
E110  CE 00 04  DEC                             A:80 X:4A Y:00 P:A4 SP:FB PPU:143, 89
E113  D9 00 04  CMP                             A:80 X:4A Y:00 P:24 SP:FB PPU:161, 89
E116  90 04     BCC                             A:80 X:4A Y:00 P:25 SP:FB PPU:173, 89
E118  F0 02     BEQ                             A:80 X:4A Y:00 P:25 SP:FB PPU:179, 89
E11A  10 02     BPL                             A:80 X:4A Y:00 P:25 SP:FB PPU:185, 89
E11E  E8        INX                             A:80 X:4A Y:00 P:25 SP:FB PPU:194, 89
E11F  24 01     BIT                             A:80 X:4B Y:00 P:25 SP:FB PPU:200, 89
E121  A9 40     LDA                             A:80 X:4B Y:00 P:E5 SP:FB PPU:209, 89
E123  8D 00 04  STA                             A:40 X:4B Y:00 P:65 SP:FB PPU:215, 89
E126  38        SEC                             A:40 X:4B Y:00 P:65 SP:FB PPU:227, 89
E127  F9 00 04  SBC                             A:40 X:4B Y:00 P:65 SP:FB PPU:233, 89
E12A  30 0A     BMI                             A:00 X:4B Y:00 P:27 SP:FB PPU:245, 89
E12C  90 08     BCC                             A:00 X:4B Y:00 P:27 SP:FB PPU:251, 89
E12E  D0 06     BNE                             A:00 X:4B Y:00 P:27 SP:FB PPU:257, 89
E130  70 04     BVS                             A:00 X:4B Y:00 P:27 SP:FB PPU:263, 89
E132  C9 00     CMP                             A:00 X:4B Y:00 P:27 SP:FB PPU:269, 89
E134  F0 02     BEQ                             A:00 X:4B Y:00 P:27 SP:FB PPU:275, 89
E138  E8        INX                             A:00 X:4B Y:00 P:27 SP:FB PPU:284, 89
E139  B8        CLV                             A:00 X:4C Y:00 P:25 SP:FB PPU:290, 89
E13A  38        SEC                             A:00 X:4C Y:00 P:25 SP:FB PPU:296, 89
E13B  A9 40     LDA                             A:00 X:4C Y:00 P:25 SP:FB PPU:302, 89
E13D  CE 00 04  DEC                             A:40 X:4C Y:00 P:25 SP:FB PPU:308, 89
E140  F9 00 04  SBC                             A:40 X:4C Y:00 P:25 SP:FB PPU:326, 89
E143  F0 0A     BEQ                             A:01 X:4C Y:00 P:25 SP:FB PPU:338, 89
E145  30 08     BMI                             A:01 X:4C Y:00 P:25 SP:FB PPU:  3, 90
E147  90 06     BCC                             A:01 X:4C Y:00 P:25 SP:FB PPU:  9, 90
E149  70 04     BVS                             A:01 X:4C Y:00 P:25 SP:FB PPU: 15, 90
E14B  C9 01     CMP                             A:01 X:4C Y:00 P:25 SP:FB PPU: 21, 90
E14D  F0 02     BEQ                             A:01 X:4C Y:00 P:27 SP:FB PPU: 27, 90
E151  E8        INX                             A:01 X:4C Y:00 P:27 SP:FB PPU: 36, 90
E152  A9 40     LDA                             A:01 X:4D Y:00 P:25 SP:FB PPU: 42, 90
E154  38        SEC                             A:40 X:4D Y:00 P:25 SP:FB PPU: 48, 90
E155  24 01     BIT                             A:40 X:4D Y:00 P:25 SP:FB PPU: 54, 90
E157  EE 00 04  INC                             A:40 X:4D Y:00 P:E5 SP:FB PPU: 63, 90
E15A  EE 00 04  INC                             A:40 X:4D Y:00 P:65 SP:FB PPU: 81, 90
E15D  F9 00 04  SBC                             A:40 X:4D Y:00 P:65 SP:FB PPU: 99, 90
E160  B0 0A     BCS                             A:FF X:4D Y:00 P:A4 SP:FB PPU:111, 90
E162  F0 08     BEQ                             A:FF X:4D Y:00 P:A4 SP:FB PPU:117, 90
E164  10 06     BPL                             A:FF X:4D Y:00 P:A4 SP:FB PPU:123, 90
E166  70 04     BVS                             A:FF X:4D Y:00 P:A4 SP:FB PPU:129, 90
E168  C9 FF     CMP                             A:FF X:4D Y:00 P:A4 SP:FB PPU:135, 90
E16A  F0 02     BEQ                             A:FF X:4D Y:00 P:27 SP:FB PPU:141, 90
E16E  E8        INX                             A:FF X:4D Y:00 P:27 SP:FB PPU:150, 90
E16F  18        CLC                             A:FF X:4E Y:00 P:25 SP:FB PPU:156, 90
E170  A9 00     LDA                             A:FF X:4E Y:00 P:24 SP:FB PPU:162, 90
E172  8D 00 04  STA                             A:00 X:4E Y:00 P:26 SP:FB PPU:168, 90
E175  A9 80     LDA                             A:00 X:4E Y:00 P:26 SP:FB PPU:180, 90
E177  F9 00 04  SBC                             A:80 X:4E Y:00 P:A4 SP:FB PPU:186, 90
E17A  90 04     BCC                             A:7F X:4E Y:00 P:65 SP:FB PPU:198, 90
E17C  C9 7F     CMP                             A:7F X:4E Y:00 P:65 SP:FB PPU:204, 90
E17E  F0 02     BEQ                             A:7F X:4E Y:00 P:67 SP:FB PPU:210, 90
E182  E8        INX                             A:7F X:4E Y:00 P:67 SP:FB PPU:219, 90
E183  38        SEC                             A:7F X:4F Y:00 P:65 SP:FB PPU:225, 90
E184  A9 7F     LDA                             A:7F X:4F Y:00 P:65 SP:FB PPU:231, 90
E186  8D 00 04  STA                             A:7F X:4F Y:00 P:65 SP:FB PPU:237, 90
E189  A9 81     LDA                             A:7F X:4F Y:00 P:65 SP:FB PPU:249, 90
E18B  F9 00 04  SBC                             A:81 X:4F Y:00 P:E5 SP:FB PPU:255, 90
E18E  50 06     BVC                             A:02 X:4F Y:00 P:65 SP:FB PPU:267, 90
E190  90 04     BCC                             A:02 X:4F Y:00 P:65 SP:FB PPU:273, 90
E192  C9 02     CMP                             A:02 X:4F Y:00 P:65 SP:FB PPU:279, 90
E194  F0 02     BEQ                             A:02 X:4F Y:00 P:67 SP:FB PPU:285, 90
E198  E8        INX                             A:02 X:4F Y:00 P:67 SP:FB PPU:294, 90
E199  A9 00     LDA                             A:02 X:50 Y:00 P:65 SP:FB PPU:300, 90
E19B  A9 87     LDA                             A:00 X:50 Y:00 P:67 SP:FB PPU:306, 90
E19D  99 00 04  STA                             A:87 X:50 Y:00 P:E5 SP:FB PPU:312, 90
E1A0  AD 00 04  LDA                             A:87 X:50 Y:00 P:E5 SP:FB PPU:327, 90
E1A3  C9 87     CMP                             A:87 X:50 Y:00 P:E5 SP:FB PPU:339, 90
E1A5  F0 02     BEQ                             A:87 X:50 Y:00 P:67 SP:FB PPU:  4, 91
E1A9  60        RTS                             A:87 X:50 Y:00 P:67 SP:FB PPU: 13, 91
C629  20 B8 DB  JSR                             A:87 X:50 Y:00 P:67 SP:FD PPU: 31, 91
DBB8  A9 FF     LDA                             A:87 X:50 Y:00 P:67 SP:FB PPU: 49, 91
DBBA  85 01     STA                             A:FF X:50 Y:00 P:E5 SP:FB PPU: 55, 91
DBBC  A9 AA     LDA                             A:FF X:50 Y:00 P:E5 SP:FB PPU: 64, 91
DBBE  85 33     STA                             A:AA X:50 Y:00 P:E5 SP:FB PPU: 70, 91
DBC0  A9 BB     LDA                             A:AA X:50 Y:00 P:E5 SP:FB PPU: 79, 91
DBC2  85 89     STA                             A:BB X:50 Y:00 P:E5 SP:FB PPU: 85, 91
DBC4  A2 00     LDX                             A:BB X:50 Y:00 P:E5 SP:FB PPU: 94, 91
DBC6  A9 66     LDA                             A:BB X:00 Y:00 P:67 SP:FB PPU:100, 91
DBC8  24 01     BIT                             A:66 X:00 Y:00 P:65 SP:FB PPU:106, 91
DBCA  38        SEC                             A:66 X:00 Y:00 P:E5 SP:FB PPU:115, 91
DBCB  A0 00     LDY                             A:66 X:00 Y:00 P:E5 SP:FB PPU:121, 91
DBCD  B4 33     LDY                             A:66 X:00 Y:00 P:67 SP:FB PPU:127, 91
DBCF  10 12     BPL                             A:66 X:00 Y:AA P:E5 SP:FB PPU:139, 91
DBD1  F0 10     BEQ                             A:66 X:00 Y:AA P:E5 SP:FB PPU:145, 91
DBD3  50 0E     BVC                             A:66 X:00 Y:AA P:E5 SP:FB PPU:151, 91
DBD5  90 0C     BCC                             A:66 X:00 Y:AA P:E5 SP:FB PPU:157, 91
DBD7  C9 66     CMP                             A:66 X:00 Y:AA P:E5 SP:FB PPU:163, 91
DBD9  D0 08     BNE                             A:66 X:00 Y:AA P:67 SP:FB PPU:169, 91
DBDB  E0 00     CPX                             A:66 X:00 Y:AA P:67 SP:FB PPU:175, 91
DBDD  D0 04     BNE                             A:66 X:00 Y:AA P:67 SP:FB PPU:181, 91
DBDF  C0 AA     CPY                             A:66 X:00 Y:AA P:67 SP:FB PPU:187, 91
DBE1  F0 04     BEQ                             A:66 X:00 Y:AA P:67 SP:FB PPU:193, 91
DBE7  A2 8A     LDX                             A:66 X:00 Y:AA P:67 SP:FB PPU:202, 91
DBE9  A9 66     LDA                             A:66 X:8A Y:AA P:E5 SP:FB PPU:208, 91
DBEB  B8        CLV                             A:66 X:8A Y:AA P:65 SP:FB PPU:214, 91
DBEC  18        CLC                             A:66 X:8A Y:AA P:25 SP:FB PPU:220, 91
DBED  A0 00     LDY                             A:66 X:8A Y:AA P:24 SP:FB PPU:226, 91
DBEF  B4 FF     LDY                             A:66 X:8A Y:00 P:26 SP:FB PPU:232, 91
DBF1  10 12     BPL                             A:66 X:8A Y:BB P:A4 SP:FB PPU:244, 91
DBF3  F0 10     BEQ                             A:66 X:8A Y:BB P:A4 SP:FB PPU:250, 91
DBF5  70 0E     BVS                             A:66 X:8A Y:BB P:A4 SP:FB PPU:256, 91
DBF7  B0 0C     BCS                             A:66 X:8A Y:BB P:A4 SP:FB PPU:262, 91
DBF9  C0 BB     CPY                             A:66 X:8A Y:BB P:A4 SP:FB PPU:268, 91
DBFB  D0 08     BNE                             A:66 X:8A Y:BB P:27 SP:FB PPU:274, 91
DBFD  C9 66     CMP                             A:66 X:8A Y:BB P:27 SP:FB PPU:280, 91
DBFF  D0 04     BNE                             A:66 X:8A Y:BB P:27 SP:FB PPU:286, 91
DC01  E0 8A     CPX                             A:66 X:8A Y:BB P:27 SP:FB PPU:292, 91
DC03  F0 04     BEQ                             A:66 X:8A Y:BB P:27 SP:FB PPU:298, 91
DC09  24 01     BIT                             A:66 X:8A Y:BB P:27 SP:FB PPU:307, 91
DC0B  38        SEC                             A:66 X:8A Y:BB P:E5 SP:FB PPU:316, 91
DC0C  A0 44     LDY                             A:66 X:8A Y:BB P:E5 SP:FB PPU:322, 91
DC0E  A2 00     LDX                             A:66 X:8A Y:44 P:65 SP:FB PPU:328, 91
DC10  94 33     STY                             A:66 X:00 Y:44 P:67 SP:FB PPU:334, 91
DC12  A5 33     LDA                             A:66 X:00 Y:44 P:67 SP:FB PPU:  5, 92
DC14  90 18     BCC                             A:44 X:00 Y:44 P:65 SP:FB PPU: 14, 92
DC16  C9 44     CMP                             A:44 X:00 Y:44 P:65 SP:FB PPU: 20, 92
DC18  D0 14     BNE                             A:44 X:00 Y:44 P:67 SP:FB PPU: 26, 92
DC1A  50 12     BVC                             A:44 X:00 Y:44 P:67 SP:FB PPU: 32, 92
DC1C  18        CLC                             A:44 X:00 Y:44 P:67 SP:FB PPU: 38, 92
DC1D  B8        CLV                             A:44 X:00 Y:44 P:66 SP:FB PPU: 44, 92
DC1E  A0 99     LDY                             A:44 X:00 Y:44 P:26 SP:FB PPU: 50, 92
DC20  A2 80     LDX                             A:44 X:00 Y:99 P:A4 SP:FB PPU: 56, 92
DC22  94 85     STY                             A:44 X:80 Y:99 P:A4 SP:FB PPU: 62, 92
DC24  A5 05     LDA                             A:44 X:80 Y:99 P:A4 SP:FB PPU: 74, 92
DC26  B0 06     BCS                             A:99 X:80 Y:99 P:A4 SP:FB PPU: 83, 92
DC28  C9 99     CMP                             A:99 X:80 Y:99 P:A4 SP:FB PPU: 89, 92
DC2A  D0 02     BNE                             A:99 X:80 Y:99 P:27 SP:FB PPU: 95, 92
DC2C  50 04     BVC                             A:99 X:80 Y:99 P:27 SP:FB PPU:101, 92
DC32  A0 0B     LDY                             A:99 X:80 Y:99 P:27 SP:FB PPU:110, 92
DC34  A9 AA     LDA                             A:99 X:80 Y:0B P:25 SP:FB PPU:116, 92
DC36  A2 78     LDX                             A:AA X:80 Y:0B P:A5 SP:FB PPU:122, 92
DC38  85 78     STA                             A:AA X:78 Y:0B P:25 SP:FB PPU:128, 92
DC3A  20 B6 F7  JSR                             A:AA X:78 Y:0B P:25 SP:FB PPU:137, 92
F7B6  18        CLC                             A:AA X:78 Y:0B P:25 SP:F9 PPU:155, 92
F7B7  A9 FF     LDA                             A:AA X:78 Y:0B P:24 SP:F9 PPU:161, 92
F7B9  85 01     STA                             A:FF X:78 Y:0B P:A4 SP:F9 PPU:167, 92
F7BB  24 01     BIT                             A:FF X:78 Y:0B P:A4 SP:F9 PPU:176, 92
F7BD  A9 55     LDA                             A:FF X:78 Y:0B P:E4 SP:F9 PPU:185, 92
F7BF  60        RTS                             A:55 X:78 Y:0B P:64 SP:F9 PPU:191, 92
DC3D  15 00     ORA                             A:55 X:78 Y:0B P:64 SP:FB PPU:209, 92
DC3F  20 C0 F7  JSR                             A:FF X:78 Y:0B P:E4 SP:FB PPU:221, 92
F7C0  B0 09     BCS                             A:FF X:78 Y:0B P:E4 SP:F9 PPU:239, 92
F7C2  10 07     BPL                             A:FF X:78 Y:0B P:E4 SP:F9 PPU:245, 92
F7C4  C9 FF     CMP                             A:FF X:78 Y:0B P:E4 SP:F9 PPU:251, 92
F7C6  D0 03     BNE                             A:FF X:78 Y:0B P:67 SP:F9 PPU:257, 92
F7C8  50 01     BVC                             A:FF X:78 Y:0B P:67 SP:F9 PPU:263, 92
F7CA  60        RTS                             A:FF X:78 Y:0B P:67 SP:F9 PPU:269, 92
DC42  C8        INY                             A:FF X:78 Y:0B P:67 SP:FB PPU:287, 92
DC43  A9 00     LDA                             A:FF X:78 Y:0C P:65 SP:FB PPU:293, 92
DC45  85 78     STA                             A:00 X:78 Y:0C P:67 SP:FB PPU:299, 92
DC47  20 CE F7  JSR                             A:00 X:78 Y:0C P:67 SP:FB PPU:308, 92
F7CE  38        SEC                             A:00 X:78 Y:0C P:67 SP:F9 PPU:326, 92
F7CF  B8        CLV                             A:00 X:78 Y:0C P:67 SP:F9 PPU:332, 92
F7D0  A9 00     LDA                             A:00 X:78 Y:0C P:27 SP:F9 PPU:338, 92
F7D2  60        RTS                             A:00 X:78 Y:0C P:27 SP:F9 PPU:  3, 93
DC4A  15 00     ORA                             A:00 X:78 Y:0C P:27 SP:FB PPU: 21, 93
DC4C  20 D3 F7  JSR                             A:00 X:78 Y:0C P:27 SP:FB PPU: 33, 93
F7D3  D0 07     BNE                             A:00 X:78 Y:0C P:27 SP:F9 PPU: 51, 93
F7D5  70 05     BVS                             A:00 X:78 Y:0C P:27 SP:F9 PPU: 57, 93
F7D7  90 03     BCC                             A:00 X:78 Y:0C P:27 SP:F9 PPU: 63, 93
F7D9  30 01     BMI                             A:00 X:78 Y:0C P:27 SP:F9 PPU: 69, 93
F7DB  60        RTS                             A:00 X:78 Y:0C P:27 SP:F9 PPU: 75, 93
DC4F  C8        INY                             A:00 X:78 Y:0C P:27 SP:FB PPU: 93, 93
DC50  A9 AA     LDA                             A:00 X:78 Y:0D P:25 SP:FB PPU: 99, 93
DC52  85 78     STA                             A:AA X:78 Y:0D P:A5 SP:FB PPU:105, 93
DC54  20 DF F7  JSR                             A:AA X:78 Y:0D P:A5 SP:FB PPU:114, 93
F7DF  18        CLC                             A:AA X:78 Y:0D P:A5 SP:F9 PPU:132, 93
F7E0  24 01     BIT                             A:AA X:78 Y:0D P:A4 SP:F9 PPU:138, 93
F7E2  A9 55     LDA                             A:AA X:78 Y:0D P:E4 SP:F9 PPU:147, 93
F7E4  60        RTS                             A:55 X:78 Y:0D P:64 SP:F9 PPU:153, 93
DC57  35 00     AND                             A:55 X:78 Y:0D P:64 SP:FB PPU:171, 93
DC59  20 E5 F7  JSR                             A:00 X:78 Y:0D P:66 SP:FB PPU:183, 93
F7E5  D0 07     BNE                             A:00 X:78 Y:0D P:66 SP:F9 PPU:201, 93
F7E7  50 05     BVC                             A:00 X:78 Y:0D P:66 SP:F9 PPU:207, 93
F7E9  B0 03     BCS                             A:00 X:78 Y:0D P:66 SP:F9 PPU:213, 93
F7EB  30 01     BMI                             A:00 X:78 Y:0D P:66 SP:F9 PPU:219, 93
F7ED  60        RTS                             A:00 X:78 Y:0D P:66 SP:F9 PPU:225, 93
DC5C  C8        INY                             A:00 X:78 Y:0D P:66 SP:FB PPU:243, 93
DC5D  A9 EF     LDA                             A:00 X:78 Y:0E P:64 SP:FB PPU:249, 93
DC5F  85 78     STA                             A:EF X:78 Y:0E P:E4 SP:FB PPU:255, 93
DC61  20 F1 F7  JSR                             A:EF X:78 Y:0E P:E4 SP:FB PPU:264, 93
F7F1  38        SEC                             A:EF X:78 Y:0E P:E4 SP:F9 PPU:282, 93
F7F2  B8        CLV                             A:EF X:78 Y:0E P:E5 SP:F9 PPU:288, 93
F7F3  A9 F8     LDA                             A:EF X:78 Y:0E P:A5 SP:F9 PPU:294, 93
F7F5  60        RTS                             A:F8 X:78 Y:0E P:A5 SP:F9 PPU:300, 93
DC64  35 00     AND                             A:F8 X:78 Y:0E P:A5 SP:FB PPU:318, 93
DC66  20 F6 F7  JSR                             A:E8 X:78 Y:0E P:A5 SP:FB PPU:330, 93
F7F6  90 09     BCC                             A:E8 X:78 Y:0E P:A5 SP:F9 PPU:  7, 94
F7F8  10 07     BPL                             A:E8 X:78 Y:0E P:A5 SP:F9 PPU: 13, 94
F7FA  C9 E8     CMP                             A:E8 X:78 Y:0E P:A5 SP:F9 PPU: 19, 94
F7FC  D0 03     BNE                             A:E8 X:78 Y:0E P:27 SP:F9 PPU: 25, 94
F7FE  70 01     BVS                             A:E8 X:78 Y:0E P:27 SP:F9 PPU: 31, 94
F800  60        RTS                             A:E8 X:78 Y:0E P:27 SP:F9 PPU: 37, 94
DC69  C8        INY                             A:E8 X:78 Y:0E P:27 SP:FB PPU: 55, 94
DC6A  A9 AA     LDA                             A:E8 X:78 Y:0F P:25 SP:FB PPU: 61, 94
DC6C  85 78     STA                             A:AA X:78 Y:0F P:A5 SP:FB PPU: 67, 94
DC6E  20 04 F8  JSR                             A:AA X:78 Y:0F P:A5 SP:FB PPU: 76, 94
F804  18        CLC                             A:AA X:78 Y:0F P:A5 SP:F9 PPU: 94, 94
F805  24 01     BIT                             A:AA X:78 Y:0F P:A4 SP:F9 PPU:100, 94
F807  A9 5F     LDA                             A:AA X:78 Y:0F P:E4 SP:F9 PPU:109, 94
F809  60        RTS                             A:5F X:78 Y:0F P:64 SP:F9 PPU:115, 94
DC71  55 00     EOR                             A:5F X:78 Y:0F P:64 SP:FB PPU:133, 94
DC73  20 0A F8  JSR                             A:F5 X:78 Y:0F P:E4 SP:FB PPU:145, 94
F80A  B0 09     BCS                             A:F5 X:78 Y:0F P:E4 SP:F9 PPU:163, 94
F80C  10 07     BPL                             A:F5 X:78 Y:0F P:E4 SP:F9 PPU:169, 94
F80E  C9 F5     CMP                             A:F5 X:78 Y:0F P:E4 SP:F9 PPU:175, 94
F810  D0 03     BNE                             A:F5 X:78 Y:0F P:67 SP:F9 PPU:181, 94
F812  50 01     BVC                             A:F5 X:78 Y:0F P:67 SP:F9 PPU:187, 94
F814  60        RTS                             A:F5 X:78 Y:0F P:67 SP:F9 PPU:193, 94
DC76  C8        INY                             A:F5 X:78 Y:0F P:67 SP:FB PPU:211, 94
DC77  A9 70     LDA                             A:F5 X:78 Y:10 P:65 SP:FB PPU:217, 94
DC79  85 78     STA                             A:70 X:78 Y:10 P:65 SP:FB PPU:223, 94
DC7B  20 18 F8  JSR                             A:70 X:78 Y:10 P:65 SP:FB PPU:232, 94
F818  38        SEC                             A:70 X:78 Y:10 P:65 SP:F9 PPU:250, 94
F819  B8        CLV                             A:70 X:78 Y:10 P:65 SP:F9 PPU:256, 94
F81A  A9 70     LDA                             A:70 X:78 Y:10 P:25 SP:F9 PPU:262, 94
F81C  60        RTS                             A:70 X:78 Y:10 P:25 SP:F9 PPU:268, 94
DC7E  55 00     EOR                             A:70 X:78 Y:10 P:25 SP:FB PPU:286, 94
DC80  20 1D F8  JSR                             A:00 X:78 Y:10 P:27 SP:FB PPU:298, 94
F81D  D0 07     BNE                             A:00 X:78 Y:10 P:27 SP:F9 PPU:316, 94
F81F  70 05     BVS                             A:00 X:78 Y:10 P:27 SP:F9 PPU:322, 94
F821  90 03     BCC                             A:00 X:78 Y:10 P:27 SP:F9 PPU:328, 94
F823  30 01     BMI                             A:00 X:78 Y:10 P:27 SP:F9 PPU:334, 94
F825  60        RTS                             A:00 X:78 Y:10 P:27 SP:F9 PPU:340, 94
DC83  C8        INY                             A:00 X:78 Y:10 P:27 SP:FB PPU: 17, 95
DC84  A9 69     LDA                             A:00 X:78 Y:11 P:25 SP:FB PPU: 23, 95
DC86  85 78     STA                             A:69 X:78 Y:11 P:25 SP:FB PPU: 29, 95
DC88  20 29 F8  JSR                             A:69 X:78 Y:11 P:25 SP:FB PPU: 38, 95
F829  18        CLC                             A:69 X:78 Y:11 P:25 SP:F9 PPU: 56, 95
F82A  24 01     BIT                             A:69 X:78 Y:11 P:24 SP:F9 PPU: 62, 95
F82C  A9 00     LDA                             A:69 X:78 Y:11 P:E4 SP:F9 PPU: 71, 95
F82E  60        RTS                             A:00 X:78 Y:11 P:66 SP:F9 PPU: 77, 95
DC8B  75 00     ADC                             A:00 X:78 Y:11 P:66 SP:FB PPU: 95, 95
DC8D  20 2F F8  JSR                             A:69 X:78 Y:11 P:24 SP:FB PPU:107, 95
F82F  30 09     BMI                             A:69 X:78 Y:11 P:24 SP:F9 PPU:125, 95
F831  B0 07     BCS                             A:69 X:78 Y:11 P:24 SP:F9 PPU:131, 95
F833  C9 69     CMP                             A:69 X:78 Y:11 P:24 SP:F9 PPU:137, 95
F835  D0 03     BNE                             A:69 X:78 Y:11 P:27 SP:F9 PPU:143, 95
F837  70 01     BVS                             A:69 X:78 Y:11 P:27 SP:F9 PPU:149, 95
F839  60        RTS                             A:69 X:78 Y:11 P:27 SP:F9 PPU:155, 95
DC90  C8        INY                             A:69 X:78 Y:11 P:27 SP:FB PPU:173, 95
DC91  20 3D F8  JSR                             A:69 X:78 Y:12 P:25 SP:FB PPU:179, 95
F83D  38        SEC                             A:69 X:78 Y:12 P:25 SP:F9 PPU:197, 95
F83E  24 01     BIT                             A:69 X:78 Y:12 P:25 SP:F9 PPU:203, 95
F840  A9 00     LDA                             A:69 X:78 Y:12 P:E5 SP:F9 PPU:212, 95
F842  60        RTS                             A:00 X:78 Y:12 P:67 SP:F9 PPU:218, 95
DC94  75 00     ADC                             A:00 X:78 Y:12 P:67 SP:FB PPU:236, 95
DC96  20 43 F8  JSR                             A:6A X:78 Y:12 P:24 SP:FB PPU:248, 95
F843  30 09     BMI                             A:6A X:78 Y:12 P:24 SP:F9 PPU:266, 95
F845  B0 07     BCS                             A:6A X:78 Y:12 P:24 SP:F9 PPU:272, 95
F847  C9 6A     CMP                             A:6A X:78 Y:12 P:24 SP:F9 PPU:278, 95
F849  D0 03     BNE                             A:6A X:78 Y:12 P:27 SP:F9 PPU:284, 95
F84B  70 01     BVS                             A:6A X:78 Y:12 P:27 SP:F9 PPU:290, 95
F84D  60        RTS                             A:6A X:78 Y:12 P:27 SP:F9 PPU:296, 95
DC99  C8        INY                             A:6A X:78 Y:12 P:27 SP:FB PPU:314, 95
DC9A  A9 7F     LDA                             A:6A X:78 Y:13 P:25 SP:FB PPU:320, 95
DC9C  85 78     STA                             A:7F X:78 Y:13 P:25 SP:FB PPU:326, 95
DC9E  20 51 F8  JSR                             A:7F X:78 Y:13 P:25 SP:FB PPU:335, 95
F851  38        SEC                             A:7F X:78 Y:13 P:25 SP:F9 PPU: 12, 96
F852  B8        CLV                             A:7F X:78 Y:13 P:25 SP:F9 PPU: 18, 96
F853  A9 7F     LDA                             A:7F X:78 Y:13 P:25 SP:F9 PPU: 24, 96
F855  60        RTS                             A:7F X:78 Y:13 P:25 SP:F9 PPU: 30, 96
DCA1  75 00     ADC                             A:7F X:78 Y:13 P:25 SP:FB PPU: 48, 96
DCA3  20 56 F8  JSR                             A:FF X:78 Y:13 P:E4 SP:FB PPU: 60, 96
F856  10 09     BPL                             A:FF X:78 Y:13 P:E4 SP:F9 PPU: 78, 96
F858  B0 07     BCS                             A:FF X:78 Y:13 P:E4 SP:F9 PPU: 84, 96
F85A  C9 FF     CMP                             A:FF X:78 Y:13 P:E4 SP:F9 PPU: 90, 96
F85C  D0 03     BNE                             A:FF X:78 Y:13 P:67 SP:F9 PPU: 96, 96
F85E  50 01     BVC                             A:FF X:78 Y:13 P:67 SP:F9 PPU:102, 96
F860  60        RTS                             A:FF X:78 Y:13 P:67 SP:F9 PPU:108, 96
DCA6  C8        INY                             A:FF X:78 Y:13 P:67 SP:FB PPU:126, 96
DCA7  A9 80     LDA                             A:FF X:78 Y:14 P:65 SP:FB PPU:132, 96
DCA9  85 78     STA                             A:80 X:78 Y:14 P:E5 SP:FB PPU:138, 96
DCAB  20 64 F8  JSR                             A:80 X:78 Y:14 P:E5 SP:FB PPU:147, 96
F864  18        CLC                             A:80 X:78 Y:14 P:E5 SP:F9 PPU:165, 96
F865  24 01     BIT                             A:80 X:78 Y:14 P:E4 SP:F9 PPU:171, 96
F867  A9 7F     LDA                             A:80 X:78 Y:14 P:E4 SP:F9 PPU:180, 96
F869  60        RTS                             A:7F X:78 Y:14 P:64 SP:F9 PPU:186, 96
DCAE  75 00     ADC                             A:7F X:78 Y:14 P:64 SP:FB PPU:204, 96
DCB0  20 6A F8  JSR                             A:FF X:78 Y:14 P:A4 SP:FB PPU:216, 96
F86A  10 09     BPL                             A:FF X:78 Y:14 P:A4 SP:F9 PPU:234, 96
F86C  B0 07     BCS                             A:FF X:78 Y:14 P:A4 SP:F9 PPU:240, 96
F86E  C9 FF     CMP                             A:FF X:78 Y:14 P:A4 SP:F9 PPU:246, 96
F870  D0 03     BNE                             A:FF X:78 Y:14 P:27 SP:F9 PPU:252, 96
F872  70 01     BVS                             A:FF X:78 Y:14 P:27 SP:F9 PPU:258, 96
F874  60        RTS                             A:FF X:78 Y:14 P:27 SP:F9 PPU:264, 96
DCB3  C8        INY                             A:FF X:78 Y:14 P:27 SP:FB PPU:282, 96
DCB4  20 78 F8  JSR                             A:FF X:78 Y:15 P:25 SP:FB PPU:288, 96
F878  38        SEC                             A:FF X:78 Y:15 P:25 SP:F9 PPU:306, 96
F879  B8        CLV                             A:FF X:78 Y:15 P:25 SP:F9 PPU:312, 96
F87A  A9 7F     LDA                             A:FF X:78 Y:15 P:25 SP:F9 PPU:318, 96
F87C  60        RTS                             A:7F X:78 Y:15 P:25 SP:F9 PPU:324, 96
DCB7  75 00     ADC                             A:7F X:78 Y:15 P:25 SP:FB PPU:  1, 97
DCB9  20 7D F8  JSR                             A:00 X:78 Y:15 P:27 SP:FB PPU: 13, 97
F87D  D0 07     BNE                             A:00 X:78 Y:15 P:27 SP:F9 PPU: 31, 97
F87F  30 05     BMI                             A:00 X:78 Y:15 P:27 SP:F9 PPU: 37, 97
F881  70 03     BVS                             A:00 X:78 Y:15 P:27 SP:F9 PPU: 43, 97
F883  90 01     BCC                             A:00 X:78 Y:15 P:27 SP:F9 PPU: 49, 97
F885  60        RTS                             A:00 X:78 Y:15 P:27 SP:F9 PPU: 55, 97
DCBC  C8        INY                             A:00 X:78 Y:15 P:27 SP:FB PPU: 73, 97
DCBD  A9 40     LDA                             A:00 X:78 Y:16 P:25 SP:FB PPU: 79, 97
DCBF  85 78     STA                             A:40 X:78 Y:16 P:25 SP:FB PPU: 85, 97
DCC1  20 89 F8  JSR                             A:40 X:78 Y:16 P:25 SP:FB PPU: 94, 97
F889  24 01     BIT                             A:40 X:78 Y:16 P:25 SP:F9 PPU:112, 97
F88B  A9 40     LDA                             A:40 X:78 Y:16 P:E5 SP:F9 PPU:121, 97
F88D  60        RTS                             A:40 X:78 Y:16 P:65 SP:F9 PPU:127, 97
DCC4  D5 00     CMP                             A:40 X:78 Y:16 P:65 SP:FB PPU:145, 97
DCC6  20 8E F8  JSR                             A:40 X:78 Y:16 P:67 SP:FB PPU:157, 97
F88E  30 07     BMI                             A:40 X:78 Y:16 P:67 SP:F9 PPU:175, 97
F890  90 05     BCC                             A:40 X:78 Y:16 P:67 SP:F9 PPU:181, 97
F892  D0 03     BNE                             A:40 X:78 Y:16 P:67 SP:F9 PPU:187, 97
F894  50 01     BVC                             A:40 X:78 Y:16 P:67 SP:F9 PPU:193, 97
F896  60        RTS                             A:40 X:78 Y:16 P:67 SP:F9 PPU:199, 97
DCC9  C8        INY                             A:40 X:78 Y:16 P:67 SP:FB PPU:217, 97
DCCA  48        PHA                             A:40 X:78 Y:17 P:65 SP:FB PPU:223, 97
DCCB  A9 3F     LDA                             A:40 X:78 Y:17 P:65 SP:FA PPU:232, 97
DCCD  85 78     STA                             A:3F X:78 Y:17 P:65 SP:FA PPU:238, 97
DCCF  68        PLA                             A:3F X:78 Y:17 P:65 SP:FA PPU:247, 97
DCD0  20 9A F8  JSR                             A:40 X:78 Y:17 P:65 SP:FB PPU:259, 97
F89A  B8        CLV                             A:40 X:78 Y:17 P:65 SP:F9 PPU:277, 97
F89B  60        RTS                             A:40 X:78 Y:17 P:25 SP:F9 PPU:283, 97
DCD3  D5 00     CMP                             A:40 X:78 Y:17 P:25 SP:FB PPU:301, 97
DCD5  20 9C F8  JSR                             A:40 X:78 Y:17 P:25 SP:FB PPU:313, 97
F89C  F0 07     BEQ                             A:40 X:78 Y:17 P:25 SP:F9 PPU:331, 97
F89E  30 05     BMI                             A:40 X:78 Y:17 P:25 SP:F9 PPU:337, 97
F8A0  90 03     BCC                             A:40 X:78 Y:17 P:25 SP:F9 PPU:  2, 98
F8A2  70 01     BVS                             A:40 X:78 Y:17 P:25 SP:F9 PPU:  8, 98
F8A4  60        RTS                             A:40 X:78 Y:17 P:25 SP:F9 PPU: 14, 98
DCD8  C8        INY                             A:40 X:78 Y:17 P:25 SP:FB PPU: 32, 98
DCD9  48        PHA                             A:40 X:78 Y:18 P:25 SP:FB PPU: 38, 98
DCDA  A9 41     LDA                             A:40 X:78 Y:18 P:25 SP:FA PPU: 47, 98
DCDC  85 78     STA                             A:41 X:78 Y:18 P:25 SP:FA PPU: 53, 98
DCDE  68        PLA                             A:41 X:78 Y:18 P:25 SP:FA PPU: 62, 98
DCDF  D5 00     CMP                             A:40 X:78 Y:18 P:25 SP:FB PPU: 74, 98
DCE1  20 A8 F8  JSR                             A:40 X:78 Y:18 P:A4 SP:FB PPU: 86, 98
F8A8  F0 05     BEQ                             A:40 X:78 Y:18 P:A4 SP:F9 PPU:104, 98
F8AA  10 03     BPL                             A:40 X:78 Y:18 P:A4 SP:F9 PPU:110, 98
F8AC  10 01     BPL                             A:40 X:78 Y:18 P:A4 SP:F9 PPU:116, 98
F8AE  60        RTS                             A:40 X:78 Y:18 P:A4 SP:F9 PPU:122, 98
DCE4  C8        INY                             A:40 X:78 Y:18 P:A4 SP:FB PPU:140, 98
DCE5  48        PHA                             A:40 X:78 Y:19 P:24 SP:FB PPU:146, 98
DCE6  A9 00     LDA                             A:40 X:78 Y:19 P:24 SP:FA PPU:155, 98
DCE8  85 78     STA                             A:00 X:78 Y:19 P:26 SP:FA PPU:161, 98
DCEA  68        PLA                             A:00 X:78 Y:19 P:26 SP:FA PPU:170, 98
DCEB  20 B2 F8  JSR                             A:40 X:78 Y:19 P:24 SP:FB PPU:182, 98
F8B2  A9 80     LDA                             A:40 X:78 Y:19 P:24 SP:F9 PPU:200, 98
F8B4  60        RTS                             A:80 X:78 Y:19 P:A4 SP:F9 PPU:206, 98
DCEE  D5 00     CMP                             A:80 X:78 Y:19 P:A4 SP:FB PPU:224, 98
DCF0  20 B5 F8  JSR                             A:80 X:78 Y:19 P:A5 SP:FB PPU:236, 98
F8B5  F0 05     BEQ                             A:80 X:78 Y:19 P:A5 SP:F9 PPU:254, 98
F8B7  10 03     BPL                             A:80 X:78 Y:19 P:A5 SP:F9 PPU:260, 98
F8B9  90 01     BCC                             A:80 X:78 Y:19 P:A5 SP:F9 PPU:266, 98
F8BB  60        RTS                             A:80 X:78 Y:19 P:A5 SP:F9 PPU:272, 98
DCF3  C8        INY                             A:80 X:78 Y:19 P:A5 SP:FB PPU:290, 98
DCF4  48        PHA                             A:80 X:78 Y:1A P:25 SP:FB PPU:296, 98
DCF5  A9 80     LDA                             A:80 X:78 Y:1A P:25 SP:FA PPU:305, 98
DCF7  85 78     STA                             A:80 X:78 Y:1A P:A5 SP:FA PPU:311, 98
DCF9  68        PLA                             A:80 X:78 Y:1A P:A5 SP:FA PPU:320, 98
DCFA  D5 00     CMP                             A:80 X:78 Y:1A P:A5 SP:FB PPU:332, 98
DCFC  20 BF F8  JSR                             A:80 X:78 Y:1A P:27 SP:FB PPU:  3, 99
F8BF  D0 05     BNE                             A:80 X:78 Y:1A P:27 SP:F9 PPU: 21, 99
F8C1  30 03     BMI                             A:80 X:78 Y:1A P:27 SP:F9 PPU: 27, 99
F8C3  90 01     BCC                             A:80 X:78 Y:1A P:27 SP:F9 PPU: 33, 99
F8C5  60        RTS                             A:80 X:78 Y:1A P:27 SP:F9 PPU: 39, 99
DCFF  C8        INY                             A:80 X:78 Y:1A P:27 SP:FB PPU: 57, 99
DD00  48        PHA                             A:80 X:78 Y:1B P:25 SP:FB PPU: 63, 99
DD01  A9 81     LDA                             A:80 X:78 Y:1B P:25 SP:FA PPU: 72, 99
DD03  85 78     STA                             A:81 X:78 Y:1B P:A5 SP:FA PPU: 78, 99
DD05  68        PLA                             A:81 X:78 Y:1B P:A5 SP:FA PPU: 87, 99
DD06  D5 00     CMP                             A:80 X:78 Y:1B P:A5 SP:FB PPU: 99, 99
DD08  20 C9 F8  JSR                             A:80 X:78 Y:1B P:A4 SP:FB PPU:111, 99
F8C9  B0 05     BCS                             A:80 X:78 Y:1B P:A4 SP:F9 PPU:129, 99
F8CB  F0 03     BEQ                             A:80 X:78 Y:1B P:A4 SP:F9 PPU:135, 99
F8CD  10 01     BPL                             A:80 X:78 Y:1B P:A4 SP:F9 PPU:141, 99
F8CF  60        RTS                             A:80 X:78 Y:1B P:A4 SP:F9 PPU:147, 99
DD0B  C8        INY                             A:80 X:78 Y:1B P:A4 SP:FB PPU:165, 99
DD0C  48        PHA                             A:80 X:78 Y:1C P:24 SP:FB PPU:171, 99
DD0D  A9 7F     LDA                             A:80 X:78 Y:1C P:24 SP:FA PPU:180, 99
DD0F  85 78     STA                             A:7F X:78 Y:1C P:24 SP:FA PPU:186, 99
DD11  68        PLA                             A:7F X:78 Y:1C P:24 SP:FA PPU:195, 99
DD12  D5 00     CMP                             A:80 X:78 Y:1C P:A4 SP:FB PPU:207, 99
DD14  20 D3 F8  JSR                             A:80 X:78 Y:1C P:25 SP:FB PPU:219, 99
F8D3  90 05     BCC                             A:80 X:78 Y:1C P:25 SP:F9 PPU:237, 99
F8D5  F0 03     BEQ                             A:80 X:78 Y:1C P:25 SP:F9 PPU:243, 99
F8D7  30 01     BMI                             A:80 X:78 Y:1C P:25 SP:F9 PPU:249, 99
F8D9  60        RTS                             A:80 X:78 Y:1C P:25 SP:F9 PPU:255, 99
DD17  C8        INY                             A:80 X:78 Y:1C P:25 SP:FB PPU:273, 99
DD18  A9 40     LDA                             A:80 X:78 Y:1D P:25 SP:FB PPU:279, 99
DD1A  85 78     STA                             A:40 X:78 Y:1D P:25 SP:FB PPU:285, 99
DD1C  20 31 F9  JSR                             A:40 X:78 Y:1D P:25 SP:FB PPU:294, 99
F931  24 01     BIT                             A:40 X:78 Y:1D P:25 SP:F9 PPU:312, 99
F933  A9 40     LDA                             A:40 X:78 Y:1D P:E5 SP:F9 PPU:321, 99
F935  38        SEC                             A:40 X:78 Y:1D P:65 SP:F9 PPU:327, 99
F936  60        RTS                             A:40 X:78 Y:1D P:65 SP:F9 PPU:333, 99
DD1F  F5 00     SBC                             A:40 X:78 Y:1D P:65 SP:FB PPU: 10,100
DD21  20 37 F9  JSR                             A:00 X:78 Y:1D P:27 SP:FB PPU: 22,100
F937  30 0B     BMI                             A:00 X:78 Y:1D P:27 SP:F9 PPU: 40,100
F939  90 09     BCC                             A:00 X:78 Y:1D P:27 SP:F9 PPU: 46,100
F93B  D0 07     BNE                             A:00 X:78 Y:1D P:27 SP:F9 PPU: 52,100
F93D  70 05     BVS                             A:00 X:78 Y:1D P:27 SP:F9 PPU: 58,100
F93F  C9 00     CMP                             A:00 X:78 Y:1D P:27 SP:F9 PPU: 64,100
F941  D0 01     BNE                             A:00 X:78 Y:1D P:27 SP:F9 PPU: 70,100
F943  60        RTS                             A:00 X:78 Y:1D P:27 SP:F9 PPU: 76,100
DD24  C8        INY                             A:00 X:78 Y:1D P:27 SP:FB PPU: 94,100
DD25  A9 3F     LDA                             A:00 X:78 Y:1E P:25 SP:FB PPU:100,100
DD27  85 78     STA                             A:3F X:78 Y:1E P:25 SP:FB PPU:106,100
DD29  20 47 F9  JSR                             A:3F X:78 Y:1E P:25 SP:FB PPU:115,100
F947  B8        CLV                             A:3F X:78 Y:1E P:25 SP:F9 PPU:133,100
F948  38        SEC                             A:3F X:78 Y:1E P:25 SP:F9 PPU:139,100
F949  A9 40     LDA                             A:3F X:78 Y:1E P:25 SP:F9 PPU:145,100
F94B  60        RTS                             A:40 X:78 Y:1E P:25 SP:F9 PPU:151,100
DD2C  F5 00     SBC                             A:40 X:78 Y:1E P:25 SP:FB PPU:169,100
DD2E  20 4C F9  JSR                             A:01 X:78 Y:1E P:25 SP:FB PPU:181,100
F94C  F0 0B     BEQ                             A:01 X:78 Y:1E P:25 SP:F9 PPU:199,100
F94E  30 09     BMI                             A:01 X:78 Y:1E P:25 SP:F9 PPU:205,100
F950  90 07     BCC                             A:01 X:78 Y:1E P:25 SP:F9 PPU:211,100
F952  70 05     BVS                             A:01 X:78 Y:1E P:25 SP:F9 PPU:217,100
F954  C9 01     CMP                             A:01 X:78 Y:1E P:25 SP:F9 PPU:223,100
F956  D0 01     BNE                             A:01 X:78 Y:1E P:27 SP:F9 PPU:229,100
F958  60        RTS                             A:01 X:78 Y:1E P:27 SP:F9 PPU:235,100
DD31  C8        INY                             A:01 X:78 Y:1E P:27 SP:FB PPU:253,100
DD32  A9 41     LDA                             A:01 X:78 Y:1F P:25 SP:FB PPU:259,100
DD34  85 78     STA                             A:41 X:78 Y:1F P:25 SP:FB PPU:265,100
DD36  20 5C F9  JSR                             A:41 X:78 Y:1F P:25 SP:FB PPU:274,100
F95C  A9 40     LDA                             A:41 X:78 Y:1F P:25 SP:F9 PPU:292,100
F95E  38        SEC                             A:40 X:78 Y:1F P:25 SP:F9 PPU:298,100
F95F  24 01     BIT                             A:40 X:78 Y:1F P:25 SP:F9 PPU:304,100
F961  60        RTS                             A:40 X:78 Y:1F P:E5 SP:F9 PPU:313,100
DD39  F5 00     SBC                             A:40 X:78 Y:1F P:E5 SP:FB PPU:331,100
DD3B  20 62 F9  JSR                             A:FF X:78 Y:1F P:A4 SP:FB PPU:  2,101
F962  B0 0B     BCS                             A:FF X:78 Y:1F P:A4 SP:F9 PPU: 20,101
F964  F0 09     BEQ                             A:FF X:78 Y:1F P:A4 SP:F9 PPU: 26,101
F966  10 07     BPL                             A:FF X:78 Y:1F P:A4 SP:F9 PPU: 32,101
F968  70 05     BVS                             A:FF X:78 Y:1F P:A4 SP:F9 PPU: 38,101
F96A  C9 FF     CMP                             A:FF X:78 Y:1F P:A4 SP:F9 PPU: 44,101
F96C  D0 01     BNE                             A:FF X:78 Y:1F P:27 SP:F9 PPU: 50,101
F96E  60        RTS                             A:FF X:78 Y:1F P:27 SP:F9 PPU: 56,101
DD3E  C8        INY                             A:FF X:78 Y:1F P:27 SP:FB PPU: 74,101
DD3F  A9 00     LDA                             A:FF X:78 Y:20 P:25 SP:FB PPU: 80,101
DD41  85 78     STA                             A:00 X:78 Y:20 P:27 SP:FB PPU: 86,101
DD43  20 72 F9  JSR                             A:00 X:78 Y:20 P:27 SP:FB PPU: 95,101
F972  18        CLC                             A:00 X:78 Y:20 P:27 SP:F9 PPU:113,101
F973  A9 80     LDA                             A:00 X:78 Y:20 P:26 SP:F9 PPU:119,101
F975  60        RTS                             A:80 X:78 Y:20 P:A4 SP:F9 PPU:125,101
DD46  F5 00     SBC                             A:80 X:78 Y:20 P:A4 SP:FB PPU:143,101
DD48  20 76 F9  JSR                             A:7F X:78 Y:20 P:65 SP:FB PPU:155,101
F976  90 05     BCC                             A:7F X:78 Y:20 P:65 SP:F9 PPU:173,101
F978  C9 7F     CMP                             A:7F X:78 Y:20 P:65 SP:F9 PPU:179,101
F97A  D0 01     BNE                             A:7F X:78 Y:20 P:67 SP:F9 PPU:185,101
F97C  60        RTS                             A:7F X:78 Y:20 P:67 SP:F9 PPU:191,101
DD4B  C8        INY                             A:7F X:78 Y:20 P:67 SP:FB PPU:209,101
DD4C  A9 7F     LDA                             A:7F X:78 Y:21 P:65 SP:FB PPU:215,101
DD4E  85 78     STA                             A:7F X:78 Y:21 P:65 SP:FB PPU:221,101
DD50  20 80 F9  JSR                             A:7F X:78 Y:21 P:65 SP:FB PPU:230,101
F980  38        SEC                             A:7F X:78 Y:21 P:65 SP:F9 PPU:248,101
F981  A9 81     LDA                             A:7F X:78 Y:21 P:65 SP:F9 PPU:254,101
F983  60        RTS                             A:81 X:78 Y:21 P:E5 SP:F9 PPU:260,101
DD53  F5 00     SBC                             A:81 X:78 Y:21 P:E5 SP:FB PPU:278,101
DD55  20 84 F9  JSR                             A:02 X:78 Y:21 P:65 SP:FB PPU:290,101
F984  50 07     BVC                             A:02 X:78 Y:21 P:65 SP:F9 PPU:308,101
F986  90 05     BCC                             A:02 X:78 Y:21 P:65 SP:F9 PPU:314,101
F988  C9 02     CMP                             A:02 X:78 Y:21 P:65 SP:F9 PPU:320,101
F98A  D0 01     BNE                             A:02 X:78 Y:21 P:67 SP:F9 PPU:326,101
F98C  60        RTS                             A:02 X:78 Y:21 P:67 SP:F9 PPU:332,101
DD58  A9 AA     LDA                             A:02 X:78 Y:21 P:67 SP:FB PPU:  9,102
DD5A  85 33     STA                             A:AA X:78 Y:21 P:E5 SP:FB PPU: 15,102
DD5C  A9 BB     LDA                             A:AA X:78 Y:21 P:E5 SP:FB PPU: 24,102
DD5E  85 89     STA                             A:BB X:78 Y:21 P:E5 SP:FB PPU: 30,102
DD60  A2 00     LDX                             A:BB X:78 Y:21 P:E5 SP:FB PPU: 39,102
DD62  A0 66     LDY                             A:BB X:00 Y:21 P:67 SP:FB PPU: 45,102
DD64  24 01     BIT                             A:BB X:00 Y:66 P:65 SP:FB PPU: 51,102
DD66  38        SEC                             A:BB X:00 Y:66 P:E5 SP:FB PPU: 60,102
DD67  A9 00     LDA                             A:BB X:00 Y:66 P:E5 SP:FB PPU: 66,102
DD69  B5 33     LDA                             A:00 X:00 Y:66 P:67 SP:FB PPU: 72,102
DD6B  10 12     BPL                             A:AA X:00 Y:66 P:E5 SP:FB PPU: 84,102
DD6D  F0 10     BEQ                             A:AA X:00 Y:66 P:E5 SP:FB PPU: 90,102
DD6F  50 0E     BVC                             A:AA X:00 Y:66 P:E5 SP:FB PPU: 96,102
DD71  90 0C     BCC                             A:AA X:00 Y:66 P:E5 SP:FB PPU:102,102
DD73  C0 66     CPY                             A:AA X:00 Y:66 P:E5 SP:FB PPU:108,102
DD75  D0 08     BNE                             A:AA X:00 Y:66 P:67 SP:FB PPU:114,102
DD77  E0 00     CPX                             A:AA X:00 Y:66 P:67 SP:FB PPU:120,102
DD79  D0 04     BNE                             A:AA X:00 Y:66 P:67 SP:FB PPU:126,102
DD7B  C9 AA     CMP                             A:AA X:00 Y:66 P:67 SP:FB PPU:132,102
DD7D  F0 04     BEQ                             A:AA X:00 Y:66 P:67 SP:FB PPU:138,102
DD83  A2 8A     LDX                             A:AA X:00 Y:66 P:67 SP:FB PPU:147,102
DD85  A0 66     LDY                             A:AA X:8A Y:66 P:E5 SP:FB PPU:153,102
DD87  B8        CLV                             A:AA X:8A Y:66 P:65 SP:FB PPU:159,102
DD88  18        CLC                             A:AA X:8A Y:66 P:25 SP:FB PPU:165,102
DD89  A9 00     LDA                             A:AA X:8A Y:66 P:24 SP:FB PPU:171,102
DD8B  B5 FF     LDA                             A:00 X:8A Y:66 P:26 SP:FB PPU:177,102
DD8D  10 12     BPL                             A:BB X:8A Y:66 P:A4 SP:FB PPU:189,102
DD8F  F0 10     BEQ                             A:BB X:8A Y:66 P:A4 SP:FB PPU:195,102
DD91  70 0E     BVS                             A:BB X:8A Y:66 P:A4 SP:FB PPU:201,102
DD93  B0 0C     BCS                             A:BB X:8A Y:66 P:A4 SP:FB PPU:207,102
DD95  C9 BB     CMP                             A:BB X:8A Y:66 P:A4 SP:FB PPU:213,102
DD97  D0 08     BNE                             A:BB X:8A Y:66 P:27 SP:FB PPU:219,102
DD99  C0 66     CPY                             A:BB X:8A Y:66 P:27 SP:FB PPU:225,102
DD9B  D0 04     BNE                             A:BB X:8A Y:66 P:27 SP:FB PPU:231,102
DD9D  E0 8A     CPX                             A:BB X:8A Y:66 P:27 SP:FB PPU:237,102
DD9F  F0 04     BEQ                             A:BB X:8A Y:66 P:27 SP:FB PPU:243,102
DDA5  24 01     BIT                             A:BB X:8A Y:66 P:27 SP:FB PPU:252,102
DDA7  38        SEC                             A:BB X:8A Y:66 P:E5 SP:FB PPU:261,102
DDA8  A9 44     LDA                             A:BB X:8A Y:66 P:E5 SP:FB PPU:267,102
DDAA  A2 00     LDX                             A:44 X:8A Y:66 P:65 SP:FB PPU:273,102
DDAC  95 33     STA                             A:44 X:00 Y:66 P:67 SP:FB PPU:279,102
DDAE  A5 33     LDA                             A:44 X:00 Y:66 P:67 SP:FB PPU:291,102
DDB0  90 18     BCC                             A:44 X:00 Y:66 P:65 SP:FB PPU:300,102
DDB2  C9 44     CMP                             A:44 X:00 Y:66 P:65 SP:FB PPU:306,102
DDB4  D0 14     BNE                             A:44 X:00 Y:66 P:67 SP:FB PPU:312,102
DDB6  50 12     BVC                             A:44 X:00 Y:66 P:67 SP:FB PPU:318,102
DDB8  18        CLC                             A:44 X:00 Y:66 P:67 SP:FB PPU:324,102
DDB9  B8        CLV                             A:44 X:00 Y:66 P:66 SP:FB PPU:330,102
DDBA  A9 99     LDA                             A:44 X:00 Y:66 P:26 SP:FB PPU:336,102
DDBC  A2 80     LDX                             A:99 X:00 Y:66 P:A4 SP:FB PPU:  1,103
DDBE  95 85     STA                             A:99 X:80 Y:66 P:A4 SP:FB PPU:  7,103
DDC0  A5 05     LDA                             A:99 X:80 Y:66 P:A4 SP:FB PPU: 19,103
DDC2  B0 06     BCS                             A:99 X:80 Y:66 P:A4 SP:FB PPU: 28,103
DDC4  C9 99     CMP                             A:99 X:80 Y:66 P:A4 SP:FB PPU: 34,103
DDC6  D0 02     BNE                             A:99 X:80 Y:66 P:27 SP:FB PPU: 40,103
DDC8  50 04     BVC                             A:99 X:80 Y:66 P:27 SP:FB PPU: 46,103
DDCE  A0 25     LDY                             A:99 X:80 Y:66 P:27 SP:FB PPU: 55,103
DDD0  A2 78     LDX                             A:99 X:80 Y:25 P:25 SP:FB PPU: 61,103
DDD2  20 90 F9  JSR                             A:99 X:78 Y:25 P:25 SP:FB PPU: 67,103
F990  A2 55     LDX                             A:99 X:78 Y:25 P:25 SP:F9 PPU: 85,103
F992  A9 FF     LDA                             A:99 X:55 Y:25 P:25 SP:F9 PPU: 91,103
F994  85 01     STA                             A:FF X:55 Y:25 P:A5 SP:F9 PPU: 97,103
F996  EA        NOP                             A:FF X:55 Y:25 P:A5 SP:F9 PPU:106,103
F997  24 01     BIT                             A:FF X:55 Y:25 P:A5 SP:F9 PPU:112,103
F999  38        SEC                             A:FF X:55 Y:25 P:E5 SP:F9 PPU:121,103
F99A  A9 01     LDA                             A:FF X:55 Y:25 P:E5 SP:F9 PPU:127,103
F99C  60        RTS                             A:01 X:55 Y:25 P:65 SP:F9 PPU:133,103
DDD5  95 00     STA                             A:01 X:55 Y:25 P:65 SP:FB PPU:151,103
DDD7  56 00     LSR                             A:01 X:55 Y:25 P:65 SP:FB PPU:163,103
DDD9  B5 00     LDA                             A:01 X:55 Y:25 P:67 SP:FB PPU:181,103
DDDB  20 9D F9  JSR                             A:00 X:55 Y:25 P:67 SP:FB PPU:193,103
F99D  90 1B     BCC                             A:00 X:55 Y:25 P:67 SP:F9 PPU:211,103
F99F  D0 19     BNE                             A:00 X:55 Y:25 P:67 SP:F9 PPU:217,103
F9A1  30 17     BMI                             A:00 X:55 Y:25 P:67 SP:F9 PPU:223,103
F9A3  50 15     BVC                             A:00 X:55 Y:25 P:67 SP:F9 PPU:229,103
F9A5  C9 00     CMP                             A:00 X:55 Y:25 P:67 SP:F9 PPU:235,103
F9A7  D0 11     BNE                             A:00 X:55 Y:25 P:67 SP:F9 PPU:241,103
F9A9  B8        CLV                             A:00 X:55 Y:25 P:67 SP:F9 PPU:247,103
F9AA  A9 AA     LDA                             A:00 X:55 Y:25 P:27 SP:F9 PPU:253,103
F9AC  60        RTS                             A:AA X:55 Y:25 P:A5 SP:F9 PPU:259,103
DDDE  C8        INY                             A:AA X:55 Y:25 P:A5 SP:FB PPU:277,103
DDDF  95 00     STA                             A:AA X:55 Y:26 P:25 SP:FB PPU:283,103
DDE1  56 00     LSR                             A:AA X:55 Y:26 P:25 SP:FB PPU:295,103
DDE3  B5 00     LDA                             A:AA X:55 Y:26 P:24 SP:FB PPU:313,103
DDE5  20 AD F9  JSR                             A:55 X:55 Y:26 P:24 SP:FB PPU:325,103
F9AD  B0 0B     BCS                             A:55 X:55 Y:26 P:24 SP:F9 PPU:  2,104
F9AF  F0 09     BEQ                             A:55 X:55 Y:26 P:24 SP:F9 PPU:  8,104
F9B1  30 07     BMI                             A:55 X:55 Y:26 P:24 SP:F9 PPU: 14,104
F9B3  70 05     BVS                             A:55 X:55 Y:26 P:24 SP:F9 PPU: 20,104
F9B5  C9 55     CMP                             A:55 X:55 Y:26 P:24 SP:F9 PPU: 26,104
F9B7  D0 01     BNE                             A:55 X:55 Y:26 P:27 SP:F9 PPU: 32,104
F9B9  60        RTS                             A:55 X:55 Y:26 P:27 SP:F9 PPU: 38,104
DDE8  C8        INY                             A:55 X:55 Y:26 P:27 SP:FB PPU: 56,104
DDE9  20 BD F9  JSR                             A:55 X:55 Y:27 P:25 SP:FB PPU: 62,104
F9BD  24 01     BIT                             A:55 X:55 Y:27 P:25 SP:F9 PPU: 80,104
F9BF  38        SEC                             A:55 X:55 Y:27 P:E5 SP:F9 PPU: 89,104
F9C0  A9 80     LDA                             A:55 X:55 Y:27 P:E5 SP:F9 PPU: 95,104
F9C2  60        RTS                             A:80 X:55 Y:27 P:E5 SP:F9 PPU:101,104
DDEC  95 00     STA                             A:80 X:55 Y:27 P:E5 SP:FB PPU:119,104
DDEE  16 00     ASL                             A:80 X:55 Y:27 P:E5 SP:FB PPU:131,104
DDF0  B5 00     LDA                             A:80 X:55 Y:27 P:67 SP:FB PPU:149,104
DDF2  20 C3 F9  JSR                             A:00 X:55 Y:27 P:67 SP:FB PPU:161,104
F9C3  90 1C     BCC                             A:00 X:55 Y:27 P:67 SP:F9 PPU:179,104
F9C5  D0 1A     BNE                             A:00 X:55 Y:27 P:67 SP:F9 PPU:185,104
F9C7  30 18     BMI                             A:00 X:55 Y:27 P:67 SP:F9 PPU:191,104
F9C9  50 16     BVC                             A:00 X:55 Y:27 P:67 SP:F9 PPU:197,104
F9CB  C9 00     CMP                             A:00 X:55 Y:27 P:67 SP:F9 PPU:203,104
F9CD  D0 12     BNE                             A:00 X:55 Y:27 P:67 SP:F9 PPU:209,104
F9CF  B8        CLV                             A:00 X:55 Y:27 P:67 SP:F9 PPU:215,104
F9D0  A9 55     LDA                             A:00 X:55 Y:27 P:27 SP:F9 PPU:221,104
F9D2  38        SEC                             A:55 X:55 Y:27 P:25 SP:F9 PPU:227,104
F9D3  60        RTS                             A:55 X:55 Y:27 P:25 SP:F9 PPU:233,104
DDF5  C8        INY                             A:55 X:55 Y:27 P:25 SP:FB PPU:251,104
DDF6  95 00     STA                             A:55 X:55 Y:28 P:25 SP:FB PPU:257,104
DDF8  16 00     ASL                             A:55 X:55 Y:28 P:25 SP:FB PPU:269,104
DDFA  B5 00     LDA                             A:55 X:55 Y:28 P:A4 SP:FB PPU:287,104
DDFC  20 D4 F9  JSR                             A:AA X:55 Y:28 P:A4 SP:FB PPU:299,104
F9D4  B0 0B     BCS                             A:AA X:55 Y:28 P:A4 SP:F9 PPU:317,104
F9D6  F0 09     BEQ                             A:AA X:55 Y:28 P:A4 SP:F9 PPU:323,104
F9D8  10 07     BPL                             A:AA X:55 Y:28 P:A4 SP:F9 PPU:329,104
F9DA  70 05     BVS                             A:AA X:55 Y:28 P:A4 SP:F9 PPU:335,104
F9DC  C9 AA     CMP                             A:AA X:55 Y:28 P:A4 SP:F9 PPU:  0,105
F9DE  D0 01     BNE                             A:AA X:55 Y:28 P:27 SP:F9 PPU:  6,105
F9E0  60        RTS                             A:AA X:55 Y:28 P:27 SP:F9 PPU: 12,105
DDFF  C8        INY                             A:AA X:55 Y:28 P:27 SP:FB PPU: 30,105
DE00  20 E4 F9  JSR                             A:AA X:55 Y:29 P:25 SP:FB PPU: 36,105
F9E4  24 01     BIT                             A:AA X:55 Y:29 P:25 SP:F9 PPU: 54,105
F9E6  38        SEC                             A:AA X:55 Y:29 P:E5 SP:F9 PPU: 63,105
F9E7  A9 01     LDA                             A:AA X:55 Y:29 P:E5 SP:F9 PPU: 69,105
F9E9  60        RTS                             A:01 X:55 Y:29 P:65 SP:F9 PPU: 75,105
DE03  95 00     STA                             A:01 X:55 Y:29 P:65 SP:FB PPU: 93,105
DE05  76 00     ROR                             A:01 X:55 Y:29 P:65 SP:FB PPU:105,105
DE07  B5 00     LDA                             A:01 X:55 Y:29 P:E5 SP:FB PPU:123,105
DE09  20 EA F9  JSR                             A:80 X:55 Y:29 P:E5 SP:FB PPU:135,105
F9EA  90 1C     BCC                             A:80 X:55 Y:29 P:E5 SP:F9 PPU:153,105
F9EC  F0 1A     BEQ                             A:80 X:55 Y:29 P:E5 SP:F9 PPU:159,105
F9EE  10 18     BPL                             A:80 X:55 Y:29 P:E5 SP:F9 PPU:165,105
F9F0  50 16     BVC                             A:80 X:55 Y:29 P:E5 SP:F9 PPU:171,105
F9F2  C9 80     CMP                             A:80 X:55 Y:29 P:E5 SP:F9 PPU:177,105
F9F4  D0 12     BNE                             A:80 X:55 Y:29 P:67 SP:F9 PPU:183,105
F9F6  B8        CLV                             A:80 X:55 Y:29 P:67 SP:F9 PPU:189,105
F9F7  18        CLC                             A:80 X:55 Y:29 P:27 SP:F9 PPU:195,105
F9F8  A9 55     LDA                             A:80 X:55 Y:29 P:26 SP:F9 PPU:201,105
F9FA  60        RTS                             A:55 X:55 Y:29 P:24 SP:F9 PPU:207,105
DE0C  C8        INY                             A:55 X:55 Y:29 P:24 SP:FB PPU:225,105
DE0D  95 00     STA                             A:55 X:55 Y:2A P:24 SP:FB PPU:231,105
DE0F  76 00     ROR                             A:55 X:55 Y:2A P:24 SP:FB PPU:243,105
DE11  B5 00     LDA                             A:55 X:55 Y:2A P:25 SP:FB PPU:261,105
DE13  20 FB F9  JSR                             A:2A X:55 Y:2A P:25 SP:FB PPU:273,105
F9FB  90 0B     BCC                             A:2A X:55 Y:2A P:25 SP:F9 PPU:291,105
F9FD  F0 09     BEQ                             A:2A X:55 Y:2A P:25 SP:F9 PPU:297,105
F9FF  30 07     BMI                             A:2A X:55 Y:2A P:25 SP:F9 PPU:303,105
FA01  70 05     BVS                             A:2A X:55 Y:2A P:25 SP:F9 PPU:309,105
FA03  C9 2A     CMP                             A:2A X:55 Y:2A P:25 SP:F9 PPU:315,105
FA05  D0 01     BNE                             A:2A X:55 Y:2A P:27 SP:F9 PPU:321,105
FA07  60        RTS                             A:2A X:55 Y:2A P:27 SP:F9 PPU:327,105
DE16  C8        INY                             A:2A X:55 Y:2A P:27 SP:FB PPU:  4,106
DE17  20 0A FA  JSR                             A:2A X:55 Y:2B P:25 SP:FB PPU: 10,106
FA0A  24 01     BIT                             A:2A X:55 Y:2B P:25 SP:F9 PPU: 28,106
FA0C  38        SEC                             A:2A X:55 Y:2B P:E5 SP:F9 PPU: 37,106
FA0D  A9 80     LDA                             A:2A X:55 Y:2B P:E5 SP:F9 PPU: 43,106
FA0F  60        RTS                             A:80 X:55 Y:2B P:E5 SP:F9 PPU: 49,106
DE1A  95 00     STA                             A:80 X:55 Y:2B P:E5 SP:FB PPU: 67,106
DE1C  36 00     ROL                             A:80 X:55 Y:2B P:E5 SP:FB PPU: 79,106
DE1E  B5 00     LDA                             A:80 X:55 Y:2B P:65 SP:FB PPU: 97,106
DE20  20 10 FA  JSR                             A:01 X:55 Y:2B P:65 SP:FB PPU:109,106
FA10  90 1C     BCC                             A:01 X:55 Y:2B P:65 SP:F9 PPU:127,106
FA12  F0 1A     BEQ                             A:01 X:55 Y:2B P:65 SP:F9 PPU:133,106
FA14  30 18     BMI                             A:01 X:55 Y:2B P:65 SP:F9 PPU:139,106
FA16  50 16     BVC                             A:01 X:55 Y:2B P:65 SP:F9 PPU:145,106
FA18  C9 01     CMP                             A:01 X:55 Y:2B P:65 SP:F9 PPU:151,106
FA1A  D0 12     BNE                             A:01 X:55 Y:2B P:67 SP:F9 PPU:157,106
FA1C  B8        CLV                             A:01 X:55 Y:2B P:67 SP:F9 PPU:163,106
FA1D  18        CLC                             A:01 X:55 Y:2B P:27 SP:F9 PPU:169,106
FA1E  A9 55     LDA                             A:01 X:55 Y:2B P:26 SP:F9 PPU:175,106
FA20  60        RTS                             A:55 X:55 Y:2B P:24 SP:F9 PPU:181,106
DE23  C8        INY                             A:55 X:55 Y:2B P:24 SP:FB PPU:199,106
DE24  95 00     STA                             A:55 X:55 Y:2C P:24 SP:FB PPU:205,106
DE26  36 00     ROL                             A:55 X:55 Y:2C P:24 SP:FB PPU:217,106
DE28  B5 00     LDA                             A:55 X:55 Y:2C P:A4 SP:FB PPU:235,106
DE2A  20 21 FA  JSR                             A:AA X:55 Y:2C P:A4 SP:FB PPU:247,106
FA21  B0 0B     BCS                             A:AA X:55 Y:2C P:A4 SP:F9 PPU:265,106
FA23  F0 09     BEQ                             A:AA X:55 Y:2C P:A4 SP:F9 PPU:271,106
FA25  10 07     BPL                             A:AA X:55 Y:2C P:A4 SP:F9 PPU:277,106
FA27  70 05     BVS                             A:AA X:55 Y:2C P:A4 SP:F9 PPU:283,106
FA29  C9 AA     CMP                             A:AA X:55 Y:2C P:A4 SP:F9 PPU:289,106
FA2B  D0 01     BNE                             A:AA X:55 Y:2C P:27 SP:F9 PPU:295,106
FA2D  60        RTS                             A:AA X:55 Y:2C P:27 SP:F9 PPU:301,106
DE2D  A9 FF     LDA                             A:AA X:55 Y:2C P:27 SP:FB PPU:319,106
DE2F  95 00     STA                             A:FF X:55 Y:2C P:A5 SP:FB PPU:325,106
DE31  85 01     STA                             A:FF X:55 Y:2C P:A5 SP:FB PPU:337,106
DE33  24 01     BIT                             A:FF X:55 Y:2C P:A5 SP:FB PPU:  5,107
DE35  38        SEC                             A:FF X:55 Y:2C P:E5 SP:FB PPU: 14,107
DE36  F6 00     INC                             A:FF X:55 Y:2C P:E5 SP:FB PPU: 20,107
DE38  D0 0C     BNE                             A:FF X:55 Y:2C P:67 SP:FB PPU: 38,107
DE3A  30 0A     BMI                             A:FF X:55 Y:2C P:67 SP:FB PPU: 44,107
DE3C  50 08     BVC                             A:FF X:55 Y:2C P:67 SP:FB PPU: 50,107
DE3E  90 06     BCC                             A:FF X:55 Y:2C P:67 SP:FB PPU: 56,107
DE40  B5 00     LDA                             A:FF X:55 Y:2C P:67 SP:FB PPU: 62,107
DE42  C9 00     CMP                             A:00 X:55 Y:2C P:67 SP:FB PPU: 74,107
DE44  F0 04     BEQ                             A:00 X:55 Y:2C P:67 SP:FB PPU: 80,107
DE4A  A9 7F     LDA                             A:00 X:55 Y:2C P:67 SP:FB PPU: 89,107
DE4C  95 00     STA                             A:7F X:55 Y:2C P:65 SP:FB PPU: 95,107
DE4E  B8        CLV                             A:7F X:55 Y:2C P:65 SP:FB PPU:107,107
DE4F  18        CLC                             A:7F X:55 Y:2C P:25 SP:FB PPU:113,107
DE50  F6 00     INC                             A:7F X:55 Y:2C P:24 SP:FB PPU:119,107
DE52  F0 0C     BEQ                             A:7F X:55 Y:2C P:A4 SP:FB PPU:137,107
DE54  10 0A     BPL                             A:7F X:55 Y:2C P:A4 SP:FB PPU:143,107
DE56  70 08     BVS                             A:7F X:55 Y:2C P:A4 SP:FB PPU:149,107
DE58  B0 06     BCS                             A:7F X:55 Y:2C P:A4 SP:FB PPU:155,107
DE5A  B5 00     LDA                             A:7F X:55 Y:2C P:A4 SP:FB PPU:161,107
DE5C  C9 80     CMP                             A:80 X:55 Y:2C P:A4 SP:FB PPU:173,107
DE5E  F0 04     BEQ                             A:80 X:55 Y:2C P:27 SP:FB PPU:179,107
DE64  A9 00     LDA                             A:80 X:55 Y:2C P:27 SP:FB PPU:188,107
DE66  95 00     STA                             A:00 X:55 Y:2C P:27 SP:FB PPU:194,107
DE68  24 01     BIT                             A:00 X:55 Y:2C P:27 SP:FB PPU:206,107
DE6A  38        SEC                             A:00 X:55 Y:2C P:E7 SP:FB PPU:215,107
DE6B  D6 00     DEC                             A:00 X:55 Y:2C P:E7 SP:FB PPU:221,107
DE6D  F0 0C     BEQ                             A:00 X:55 Y:2C P:E5 SP:FB PPU:239,107
DE6F  10 0A     BPL                             A:00 X:55 Y:2C P:E5 SP:FB PPU:245,107
DE71  50 08     BVC                             A:00 X:55 Y:2C P:E5 SP:FB PPU:251,107
DE73  90 06     BCC                             A:00 X:55 Y:2C P:E5 SP:FB PPU:257,107
DE75  B5 00     LDA                             A:00 X:55 Y:2C P:E5 SP:FB PPU:263,107
DE77  C9 FF     CMP                             A:FF X:55 Y:2C P:E5 SP:FB PPU:275,107
DE79  F0 04     BEQ                             A:FF X:55 Y:2C P:67 SP:FB PPU:281,107
DE7F  A9 80     LDA                             A:FF X:55 Y:2C P:67 SP:FB PPU:290,107
DE81  95 00     STA                             A:80 X:55 Y:2C P:E5 SP:FB PPU:296,107
DE83  B8        CLV                             A:80 X:55 Y:2C P:E5 SP:FB PPU:308,107
DE84  18        CLC                             A:80 X:55 Y:2C P:A5 SP:FB PPU:314,107
DE85  D6 00     DEC                             A:80 X:55 Y:2C P:A4 SP:FB PPU:320,107
DE87  F0 0C     BEQ                             A:80 X:55 Y:2C P:24 SP:FB PPU:338,107
DE89  30 0A     BMI                             A:80 X:55 Y:2C P:24 SP:FB PPU:  3,108
DE8B  70 08     BVS                             A:80 X:55 Y:2C P:24 SP:FB PPU:  9,108
DE8D  B0 06     BCS                             A:80 X:55 Y:2C P:24 SP:FB PPU: 15,108
DE8F  B5 00     LDA                             A:80 X:55 Y:2C P:24 SP:FB PPU: 21,108
DE91  C9 7F     CMP                             A:7F X:55 Y:2C P:24 SP:FB PPU: 33,108
DE93  F0 04     BEQ                             A:7F X:55 Y:2C P:27 SP:FB PPU: 39,108
DE99  A9 01     LDA                             A:7F X:55 Y:2C P:27 SP:FB PPU: 48,108
DE9B  95 00     STA                             A:01 X:55 Y:2C P:25 SP:FB PPU: 54,108
DE9D  D6 00     DEC                             A:01 X:55 Y:2C P:25 SP:FB PPU: 66,108
DE9F  F0 04     BEQ                             A:01 X:55 Y:2C P:27 SP:FB PPU: 84,108
DEA5  A9 33     LDA                             A:01 X:55 Y:2C P:27 SP:FB PPU: 93,108
DEA7  85 78     STA                             A:33 X:55 Y:2C P:25 SP:FB PPU: 99,108
DEA9  A9 44     LDA                             A:33 X:55 Y:2C P:25 SP:FB PPU:108,108
DEAB  A0 78     LDY                             A:44 X:55 Y:2C P:25 SP:FB PPU:114,108
DEAD  A2 00     LDX                             A:44 X:55 Y:78 P:25 SP:FB PPU:120,108
DEAF  38        SEC                             A:44 X:00 Y:78 P:27 SP:FB PPU:126,108
DEB0  24 01     BIT                             A:44 X:00 Y:78 P:27 SP:FB PPU:132,108
DEB2  B6 00     LDX                             A:44 X:00 Y:78 P:E5 SP:FB PPU:141,108
DEB4  90 12     BCC                             A:44 X:33 Y:78 P:65 SP:FB PPU:153,108
DEB6  50 10     BVC                             A:44 X:33 Y:78 P:65 SP:FB PPU:159,108
DEB8  30 0E     BMI                             A:44 X:33 Y:78 P:65 SP:FB PPU:165,108
DEBA  F0 0C     BEQ                             A:44 X:33 Y:78 P:65 SP:FB PPU:171,108
DEBC  E0 33     CPX                             A:44 X:33 Y:78 P:65 SP:FB PPU:177,108
DEBE  D0 08     BNE                             A:44 X:33 Y:78 P:67 SP:FB PPU:183,108
DEC0  C0 78     CPY                             A:44 X:33 Y:78 P:67 SP:FB PPU:189,108
DEC2  D0 04     BNE                             A:44 X:33 Y:78 P:67 SP:FB PPU:195,108
DEC4  C9 44     CMP                             A:44 X:33 Y:78 P:67 SP:FB PPU:201,108
DEC6  F0 04     BEQ                             A:44 X:33 Y:78 P:67 SP:FB PPU:207,108
DECC  A9 97     LDA                             A:44 X:33 Y:78 P:67 SP:FB PPU:216,108
DECE  85 7F     STA                             A:97 X:33 Y:78 P:E5 SP:FB PPU:222,108
DED0  A9 47     LDA                             A:97 X:33 Y:78 P:E5 SP:FB PPU:231,108
DED2  A0 FF     LDY                             A:47 X:33 Y:78 P:65 SP:FB PPU:237,108
DED4  A2 00     LDX                             A:47 X:33 Y:FF P:E5 SP:FB PPU:243,108
DED6  18        CLC                             A:47 X:00 Y:FF P:67 SP:FB PPU:249,108
DED7  B8        CLV                             A:47 X:00 Y:FF P:66 SP:FB PPU:255,108
DED8  B6 80     LDX                             A:47 X:00 Y:FF P:26 SP:FB PPU:261,108
DEDA  B0 12     BCS                             A:47 X:97 Y:FF P:A4 SP:FB PPU:273,108
DEDC  70 10     BVS                             A:47 X:97 Y:FF P:A4 SP:FB PPU:279,108
DEDE  10 0E     BPL                             A:47 X:97 Y:FF P:A4 SP:FB PPU:285,108
DEE0  F0 0C     BEQ                             A:47 X:97 Y:FF P:A4 SP:FB PPU:291,108
DEE2  E0 97     CPX                             A:47 X:97 Y:FF P:A4 SP:FB PPU:297,108
DEE4  D0 08     BNE                             A:47 X:97 Y:FF P:27 SP:FB PPU:303,108
DEE6  C0 FF     CPY                             A:47 X:97 Y:FF P:27 SP:FB PPU:309,108
DEE8  D0 04     BNE                             A:47 X:97 Y:FF P:27 SP:FB PPU:315,108
DEEA  C9 47     CMP                             A:47 X:97 Y:FF P:27 SP:FB PPU:321,108
DEEC  F0 04     BEQ                             A:47 X:97 Y:FF P:27 SP:FB PPU:327,108
DEF2  A9 00     LDA                             A:47 X:97 Y:FF P:27 SP:FB PPU:336,108
DEF4  85 7F     STA                             A:00 X:97 Y:FF P:27 SP:FB PPU:  1,109
DEF6  A9 47     LDA                             A:00 X:97 Y:FF P:27 SP:FB PPU: 10,109
DEF8  A0 FF     LDY                             A:47 X:97 Y:FF P:25 SP:FB PPU: 16,109
DEFA  A2 69     LDX                             A:47 X:97 Y:FF P:A5 SP:FB PPU: 22,109
DEFC  18        CLC                             A:47 X:69 Y:FF P:25 SP:FB PPU: 28,109
DEFD  B8        CLV                             A:47 X:69 Y:FF P:24 SP:FB PPU: 34,109
DEFE  96 80     STX                             A:47 X:69 Y:FF P:24 SP:FB PPU: 40,109
DF00  B0 18     BCS                             A:47 X:69 Y:FF P:24 SP:FB PPU: 52,109
DF02  70 16     BVS                             A:47 X:69 Y:FF P:24 SP:FB PPU: 58,109
DF04  30 14     BMI                             A:47 X:69 Y:FF P:24 SP:FB PPU: 64,109
DF06  F0 12     BEQ                             A:47 X:69 Y:FF P:24 SP:FB PPU: 70,109
DF08  E0 69     CPX                             A:47 X:69 Y:FF P:24 SP:FB PPU: 76,109
DF0A  D0 0E     BNE                             A:47 X:69 Y:FF P:27 SP:FB PPU: 82,109
DF0C  C0 FF     CPY                             A:47 X:69 Y:FF P:27 SP:FB PPU: 88,109
DF0E  D0 0A     BNE                             A:47 X:69 Y:FF P:27 SP:FB PPU: 94,109
DF10  C9 47     CMP                             A:47 X:69 Y:FF P:27 SP:FB PPU:100,109
DF12  D0 06     BNE                             A:47 X:69 Y:FF P:27 SP:FB PPU:106,109
DF14  A5 7F     LDA                             A:47 X:69 Y:FF P:27 SP:FB PPU:112,109
DF16  C9 69     CMP                             A:69 X:69 Y:FF P:25 SP:FB PPU:121,109
DF18  F0 04     BEQ                             A:69 X:69 Y:FF P:27 SP:FB PPU:127,109
DF1E  A9 F5     LDA                             A:69 X:69 Y:FF P:27 SP:FB PPU:136,109
DF20  85 4F     STA                             A:F5 X:69 Y:FF P:A5 SP:FB PPU:142,109
DF22  A9 47     LDA                             A:F5 X:69 Y:FF P:A5 SP:FB PPU:151,109
DF24  A0 4F     LDY                             A:47 X:69 Y:FF P:25 SP:FB PPU:157,109
DF26  24 01     BIT                             A:47 X:69 Y:4F P:25 SP:FB PPU:163,109
DF28  A2 00     LDX                             A:47 X:69 Y:4F P:E5 SP:FB PPU:172,109
DF2A  38        SEC                             A:47 X:00 Y:4F P:67 SP:FB PPU:178,109
DF2B  96 00     STX                             A:47 X:00 Y:4F P:67 SP:FB PPU:184,109
DF2D  90 16     BCC                             A:47 X:00 Y:4F P:67 SP:FB PPU:196,109
DF2F  50 14     BVC                             A:47 X:00 Y:4F P:67 SP:FB PPU:202,109
DF31  30 12     BMI                             A:47 X:00 Y:4F P:67 SP:FB PPU:208,109
DF33  D0 10     BNE                             A:47 X:00 Y:4F P:67 SP:FB PPU:214,109
DF35  E0 00     CPX                             A:47 X:00 Y:4F P:67 SP:FB PPU:220,109
DF37  D0 0C     BNE                             A:47 X:00 Y:4F P:67 SP:FB PPU:226,109
DF39  C0 4F     CPY                             A:47 X:00 Y:4F P:67 SP:FB PPU:232,109
DF3B  D0 08     BNE                             A:47 X:00 Y:4F P:67 SP:FB PPU:238,109
DF3D  C9 47     CMP                             A:47 X:00 Y:4F P:67 SP:FB PPU:244,109
DF3F  D0 04     BNE                             A:47 X:00 Y:4F P:67 SP:FB PPU:250,109
DF41  A5 4F     LDA                             A:47 X:00 Y:4F P:67 SP:FB PPU:256,109
DF43  F0 04     BEQ                             A:00 X:00 Y:4F P:67 SP:FB PPU:265,109
DF49  60        RTS                             A:00 X:00 Y:4F P:67 SP:FB PPU:274,109
C62C  20 AA E1  JSR                             A:00 X:00 Y:4F P:67 SP:FD PPU:292,109
E1AA  A9 FF     LDA                             A:00 X:00 Y:4F P:67 SP:FB PPU:310,109
E1AC  85 01     STA                             A:FF X:00 Y:4F P:E5 SP:FB PPU:316,109
E1AE  A9 AA     LDA                             A:FF X:00 Y:4F P:E5 SP:FB PPU:325,109
E1B0  8D 33 06  STA                             A:AA X:00 Y:4F P:E5 SP:FB PPU:331,109
E1B3  A9 BB     LDA                             A:AA X:00 Y:4F P:E5 SP:FB PPU:  2,110
E1B5  8D 89 06  STA                             A:BB X:00 Y:4F P:E5 SP:FB PPU:  8,110
E1B8  A2 00     LDX                             A:BB X:00 Y:4F P:E5 SP:FB PPU: 20,110
E1BA  A9 66     LDA                             A:BB X:00 Y:4F P:67 SP:FB PPU: 26,110
E1BC  24 01     BIT                             A:66 X:00 Y:4F P:65 SP:FB PPU: 32,110
E1BE  38        SEC                             A:66 X:00 Y:4F P:E5 SP:FB PPU: 41,110
E1BF  A0 00     LDY                             A:66 X:00 Y:4F P:E5 SP:FB PPU: 47,110
E1C1  BC 33 06  LDY                             A:66 X:00 Y:00 P:67 SP:FB PPU: 53,110
E1C4  10 12     BPL                             A:66 X:00 Y:AA P:E5 SP:FB PPU: 65,110
E1C6  F0 10     BEQ                             A:66 X:00 Y:AA P:E5 SP:FB PPU: 71,110
E1C8  50 0E     BVC                             A:66 X:00 Y:AA P:E5 SP:FB PPU: 77,110
E1CA  90 0C     BCC                             A:66 X:00 Y:AA P:E5 SP:FB PPU: 83,110
E1CC  C9 66     CMP                             A:66 X:00 Y:AA P:E5 SP:FB PPU: 89,110
E1CE  D0 08     BNE                             A:66 X:00 Y:AA P:67 SP:FB PPU: 95,110
E1D0  E0 00     CPX                             A:66 X:00 Y:AA P:67 SP:FB PPU:101,110
E1D2  D0 04     BNE                             A:66 X:00 Y:AA P:67 SP:FB PPU:107,110
E1D4  C0 AA     CPY                             A:66 X:00 Y:AA P:67 SP:FB PPU:113,110
E1D6  F0 04     BEQ                             A:66 X:00 Y:AA P:67 SP:FB PPU:119,110
E1DC  A2 8A     LDX                             A:66 X:00 Y:AA P:67 SP:FB PPU:128,110
E1DE  A9 66     LDA                             A:66 X:8A Y:AA P:E5 SP:FB PPU:134,110
E1E0  B8        CLV                             A:66 X:8A Y:AA P:65 SP:FB PPU:140,110
E1E1  18        CLC                             A:66 X:8A Y:AA P:25 SP:FB PPU:146,110
E1E2  A0 00     LDY                             A:66 X:8A Y:AA P:24 SP:FB PPU:152,110
E1E4  BC FF 05  LDY                             A:66 X:8A Y:00 P:26 SP:FB PPU:158,110
E1E7  10 12     BPL                             A:66 X:8A Y:BB P:A4 SP:FB PPU:173,110
E1E9  F0 10     BEQ                             A:66 X:8A Y:BB P:A4 SP:FB PPU:179,110
E1EB  70 0E     BVS                             A:66 X:8A Y:BB P:A4 SP:FB PPU:185,110
E1ED  B0 0C     BCS                             A:66 X:8A Y:BB P:A4 SP:FB PPU:191,110
E1EF  C0 BB     CPY                             A:66 X:8A Y:BB P:A4 SP:FB PPU:197,110
E1F1  D0 08     BNE                             A:66 X:8A Y:BB P:27 SP:FB PPU:203,110
E1F3  C9 66     CMP                             A:66 X:8A Y:BB P:27 SP:FB PPU:209,110
E1F5  D0 04     BNE                             A:66 X:8A Y:BB P:27 SP:FB PPU:215,110
E1F7  E0 8A     CPX                             A:66 X:8A Y:BB P:27 SP:FB PPU:221,110
E1F9  F0 04     BEQ                             A:66 X:8A Y:BB P:27 SP:FB PPU:227,110
E1FF  A0 53     LDY                             A:66 X:8A Y:BB P:27 SP:FB PPU:236,110
E201  A9 AA     LDA                             A:66 X:8A Y:53 P:25 SP:FB PPU:242,110
E203  A2 78     LDX                             A:AA X:8A Y:53 P:A5 SP:FB PPU:248,110
E205  8D 78 06  STA                             A:AA X:78 Y:53 P:25 SP:FB PPU:254,110
E208  20 B6 F7  JSR                             A:AA X:78 Y:53 P:25 SP:FB PPU:266,110
F7B6  18        CLC                             A:AA X:78 Y:53 P:25 SP:F9 PPU:284,110
F7B7  A9 FF     LDA                             A:AA X:78 Y:53 P:24 SP:F9 PPU:290,110
F7B9  85 01     STA                             A:FF X:78 Y:53 P:A4 SP:F9 PPU:296,110
F7BB  24 01     BIT                             A:FF X:78 Y:53 P:A4 SP:F9 PPU:305,110
F7BD  A9 55     LDA                             A:FF X:78 Y:53 P:E4 SP:F9 PPU:314,110
F7BF  60        RTS                             A:55 X:78 Y:53 P:64 SP:F9 PPU:320,110
E20B  1D 00 06  ORA                             A:55 X:78 Y:53 P:64 SP:FB PPU:338,110
E20E  20 C0 F7  JSR                             A:FF X:78 Y:53 P:E4 SP:FB PPU:  9,111
F7C0  B0 09     BCS                             A:FF X:78 Y:53 P:E4 SP:F9 PPU: 27,111
F7C2  10 07     BPL                             A:FF X:78 Y:53 P:E4 SP:F9 PPU: 33,111
F7C4  C9 FF     CMP                             A:FF X:78 Y:53 P:E4 SP:F9 PPU: 39,111
F7C6  D0 03     BNE                             A:FF X:78 Y:53 P:67 SP:F9 PPU: 45,111
F7C8  50 01     BVC                             A:FF X:78 Y:53 P:67 SP:F9 PPU: 51,111
F7CA  60        RTS                             A:FF X:78 Y:53 P:67 SP:F9 PPU: 57,111
E211  C8        INY                             A:FF X:78 Y:53 P:67 SP:FB PPU: 75,111
E212  A9 00     LDA                             A:FF X:78 Y:54 P:65 SP:FB PPU: 81,111
E214  8D 78 06  STA                             A:00 X:78 Y:54 P:67 SP:FB PPU: 87,111
E217  20 CE F7  JSR                             A:00 X:78 Y:54 P:67 SP:FB PPU: 99,111
F7CE  38        SEC                             A:00 X:78 Y:54 P:67 SP:F9 PPU:117,111
F7CF  B8        CLV                             A:00 X:78 Y:54 P:67 SP:F9 PPU:123,111
F7D0  A9 00     LDA                             A:00 X:78 Y:54 P:27 SP:F9 PPU:129,111
F7D2  60        RTS                             A:00 X:78 Y:54 P:27 SP:F9 PPU:135,111
E21A  1D 00 06  ORA                             A:00 X:78 Y:54 P:27 SP:FB PPU:153,111
E21D  20 D3 F7  JSR                             A:00 X:78 Y:54 P:27 SP:FB PPU:165,111
F7D3  D0 07     BNE                             A:00 X:78 Y:54 P:27 SP:F9 PPU:183,111
F7D5  70 05     BVS                             A:00 X:78 Y:54 P:27 SP:F9 PPU:189,111
F7D7  90 03     BCC                             A:00 X:78 Y:54 P:27 SP:F9 PPU:195,111
F7D9  30 01     BMI                             A:00 X:78 Y:54 P:27 SP:F9 PPU:201,111
F7DB  60        RTS                             A:00 X:78 Y:54 P:27 SP:F9 PPU:207,111
E220  C8        INY                             A:00 X:78 Y:54 P:27 SP:FB PPU:225,111
E221  A9 AA     LDA                             A:00 X:78 Y:55 P:25 SP:FB PPU:231,111
E223  8D 78 06  STA                             A:AA X:78 Y:55 P:A5 SP:FB PPU:237,111
E226  20 DF F7  JSR                             A:AA X:78 Y:55 P:A5 SP:FB PPU:249,111
F7DF  18        CLC                             A:AA X:78 Y:55 P:A5 SP:F9 PPU:267,111
F7E0  24 01     BIT                             A:AA X:78 Y:55 P:A4 SP:F9 PPU:273,111
F7E2  A9 55     LDA                             A:AA X:78 Y:55 P:E4 SP:F9 PPU:282,111
F7E4  60        RTS                             A:55 X:78 Y:55 P:64 SP:F9 PPU:288,111
E229  3D 00 06  AND                             A:55 X:78 Y:55 P:64 SP:FB PPU:306,111
E22C  20 E5 F7  JSR                             A:00 X:78 Y:55 P:66 SP:FB PPU:318,111
F7E5  D0 07     BNE                             A:00 X:78 Y:55 P:66 SP:F9 PPU:336,111
F7E7  50 05     BVC                             A:00 X:78 Y:55 P:66 SP:F9 PPU:  1,112
F7E9  B0 03     BCS                             A:00 X:78 Y:55 P:66 SP:F9 PPU:  7,112
F7EB  30 01     BMI                             A:00 X:78 Y:55 P:66 SP:F9 PPU: 13,112
F7ED  60        RTS                             A:00 X:78 Y:55 P:66 SP:F9 PPU: 19,112
E22F  C8        INY                             A:00 X:78 Y:55 P:66 SP:FB PPU: 37,112
E230  A9 EF     LDA                             A:00 X:78 Y:56 P:64 SP:FB PPU: 43,112
E232  8D 78 06  STA                             A:EF X:78 Y:56 P:E4 SP:FB PPU: 49,112
E235  20 F1 F7  JSR                             A:EF X:78 Y:56 P:E4 SP:FB PPU: 61,112
F7F1  38        SEC                             A:EF X:78 Y:56 P:E4 SP:F9 PPU: 79,112
F7F2  B8        CLV                             A:EF X:78 Y:56 P:E5 SP:F9 PPU: 85,112
F7F3  A9 F8     LDA                             A:EF X:78 Y:56 P:A5 SP:F9 PPU: 91,112
F7F5  60        RTS                             A:F8 X:78 Y:56 P:A5 SP:F9 PPU: 97,112
E238  3D 00 06  AND                             A:F8 X:78 Y:56 P:A5 SP:FB PPU:115,112
E23B  20 F6 F7  JSR                             A:E8 X:78 Y:56 P:A5 SP:FB PPU:127,112
F7F6  90 09     BCC                             A:E8 X:78 Y:56 P:A5 SP:F9 PPU:145,112
F7F8  10 07     BPL                             A:E8 X:78 Y:56 P:A5 SP:F9 PPU:151,112
F7FA  C9 E8     CMP                             A:E8 X:78 Y:56 P:A5 SP:F9 PPU:157,112
F7FC  D0 03     BNE                             A:E8 X:78 Y:56 P:27 SP:F9 PPU:163,112
F7FE  70 01     BVS                             A:E8 X:78 Y:56 P:27 SP:F9 PPU:169,112
F800  60        RTS                             A:E8 X:78 Y:56 P:27 SP:F9 PPU:175,112
E23E  C8        INY                             A:E8 X:78 Y:56 P:27 SP:FB PPU:193,112
E23F  A9 AA     LDA                             A:E8 X:78 Y:57 P:25 SP:FB PPU:199,112
E241  8D 78 06  STA                             A:AA X:78 Y:57 P:A5 SP:FB PPU:205,112
E244  20 04 F8  JSR                             A:AA X:78 Y:57 P:A5 SP:FB PPU:217,112
F804  18        CLC                             A:AA X:78 Y:57 P:A5 SP:F9 PPU:235,112
F805  24 01     BIT                             A:AA X:78 Y:57 P:A4 SP:F9 PPU:241,112
F807  A9 5F     LDA                             A:AA X:78 Y:57 P:E4 SP:F9 PPU:250,112
F809  60        RTS                             A:5F X:78 Y:57 P:64 SP:F9 PPU:256,112
E247  5D 00 06  EOR                             A:5F X:78 Y:57 P:64 SP:FB PPU:274,112
E24A  20 0A F8  JSR                             A:F5 X:78 Y:57 P:E4 SP:FB PPU:286,112
F80A  B0 09     BCS                             A:F5 X:78 Y:57 P:E4 SP:F9 PPU:304,112
F80C  10 07     BPL                             A:F5 X:78 Y:57 P:E4 SP:F9 PPU:310,112
F80E  C9 F5     CMP                             A:F5 X:78 Y:57 P:E4 SP:F9 PPU:316,112
F810  D0 03     BNE                             A:F5 X:78 Y:57 P:67 SP:F9 PPU:322,112
F812  50 01     BVC                             A:F5 X:78 Y:57 P:67 SP:F9 PPU:328,112
F814  60        RTS                             A:F5 X:78 Y:57 P:67 SP:F9 PPU:334,112
E24D  C8        INY                             A:F5 X:78 Y:57 P:67 SP:FB PPU: 11,113
E24E  A9 70     LDA                             A:F5 X:78 Y:58 P:65 SP:FB PPU: 17,113
E250  8D 78 06  STA                             A:70 X:78 Y:58 P:65 SP:FB PPU: 23,113
E253  20 18 F8  JSR                             A:70 X:78 Y:58 P:65 SP:FB PPU: 35,113
F818  38        SEC                             A:70 X:78 Y:58 P:65 SP:F9 PPU: 53,113
F819  B8        CLV                             A:70 X:78 Y:58 P:65 SP:F9 PPU: 59,113
F81A  A9 70     LDA                             A:70 X:78 Y:58 P:25 SP:F9 PPU: 65,113
F81C  60        RTS                             A:70 X:78 Y:58 P:25 SP:F9 PPU: 71,113
E256  5D 00 06  EOR                             A:70 X:78 Y:58 P:25 SP:FB PPU: 89,113
E259  20 1D F8  JSR                             A:00 X:78 Y:58 P:27 SP:FB PPU:101,113
F81D  D0 07     BNE                             A:00 X:78 Y:58 P:27 SP:F9 PPU:119,113
F81F  70 05     BVS                             A:00 X:78 Y:58 P:27 SP:F9 PPU:125,113
F821  90 03     BCC                             A:00 X:78 Y:58 P:27 SP:F9 PPU:131,113
F823  30 01     BMI                             A:00 X:78 Y:58 P:27 SP:F9 PPU:137,113
F825  60        RTS                             A:00 X:78 Y:58 P:27 SP:F9 PPU:143,113
E25C  C8        INY                             A:00 X:78 Y:58 P:27 SP:FB PPU:161,113
E25D  A9 69     LDA                             A:00 X:78 Y:59 P:25 SP:FB PPU:167,113
E25F  8D 78 06  STA                             A:69 X:78 Y:59 P:25 SP:FB PPU:173,113
E262  20 29 F8  JSR                             A:69 X:78 Y:59 P:25 SP:FB PPU:185,113
F829  18        CLC                             A:69 X:78 Y:59 P:25 SP:F9 PPU:203,113
F82A  24 01     BIT                             A:69 X:78 Y:59 P:24 SP:F9 PPU:209,113
F82C  A9 00     LDA                             A:69 X:78 Y:59 P:E4 SP:F9 PPU:218,113
F82E  60        RTS                             A:00 X:78 Y:59 P:66 SP:F9 PPU:224,113
E265  7D 00 06  ADC                             A:00 X:78 Y:59 P:66 SP:FB PPU:242,113
E268  20 2F F8  JSR                             A:69 X:78 Y:59 P:24 SP:FB PPU:254,113
F82F  30 09     BMI                             A:69 X:78 Y:59 P:24 SP:F9 PPU:272,113
F831  B0 07     BCS                             A:69 X:78 Y:59 P:24 SP:F9 PPU:278,113
F833  C9 69     CMP                             A:69 X:78 Y:59 P:24 SP:F9 PPU:284,113
F835  D0 03     BNE                             A:69 X:78 Y:59 P:27 SP:F9 PPU:290,113
F837  70 01     BVS                             A:69 X:78 Y:59 P:27 SP:F9 PPU:296,113
F839  60        RTS                             A:69 X:78 Y:59 P:27 SP:F9 PPU:302,113
E26B  C8        INY                             A:69 X:78 Y:59 P:27 SP:FB PPU:320,113
E26C  20 3D F8  JSR                             A:69 X:78 Y:5A P:25 SP:FB PPU:326,113
F83D  38        SEC                             A:69 X:78 Y:5A P:25 SP:F9 PPU:  3,114
F83E  24 01     BIT                             A:69 X:78 Y:5A P:25 SP:F9 PPU:  9,114
F840  A9 00     LDA                             A:69 X:78 Y:5A P:E5 SP:F9 PPU: 18,114
F842  60        RTS                             A:00 X:78 Y:5A P:67 SP:F9 PPU: 24,114
E26F  7D 00 06  ADC                             A:00 X:78 Y:5A P:67 SP:FB PPU: 42,114
E272  20 43 F8  JSR                             A:6A X:78 Y:5A P:24 SP:FB PPU: 54,114
F843  30 09     BMI                             A:6A X:78 Y:5A P:24 SP:F9 PPU: 72,114
F845  B0 07     BCS                             A:6A X:78 Y:5A P:24 SP:F9 PPU: 78,114
F847  C9 6A     CMP                             A:6A X:78 Y:5A P:24 SP:F9 PPU: 84,114
F849  D0 03     BNE                             A:6A X:78 Y:5A P:27 SP:F9 PPU: 90,114
F84B  70 01     BVS                             A:6A X:78 Y:5A P:27 SP:F9 PPU: 96,114
F84D  60        RTS                             A:6A X:78 Y:5A P:27 SP:F9 PPU:102,114
E275  C8        INY                             A:6A X:78 Y:5A P:27 SP:FB PPU:120,114
E276  A9 7F     LDA                             A:6A X:78 Y:5B P:25 SP:FB PPU:126,114
E278  8D 78 06  STA                             A:7F X:78 Y:5B P:25 SP:FB PPU:132,114
E27B  20 51 F8  JSR                             A:7F X:78 Y:5B P:25 SP:FB PPU:144,114
F851  38        SEC                             A:7F X:78 Y:5B P:25 SP:F9 PPU:162,114
F852  B8        CLV                             A:7F X:78 Y:5B P:25 SP:F9 PPU:168,114
F853  A9 7F     LDA                             A:7F X:78 Y:5B P:25 SP:F9 PPU:174,114
F855  60        RTS                             A:7F X:78 Y:5B P:25 SP:F9 PPU:180,114
E27E  7D 00 06  ADC                             A:7F X:78 Y:5B P:25 SP:FB PPU:198,114
E281  20 56 F8  JSR                             A:FF X:78 Y:5B P:E4 SP:FB PPU:210,114
F856  10 09     BPL                             A:FF X:78 Y:5B P:E4 SP:F9 PPU:228,114
F858  B0 07     BCS                             A:FF X:78 Y:5B P:E4 SP:F9 PPU:234,114
F85A  C9 FF     CMP                             A:FF X:78 Y:5B P:E4 SP:F9 PPU:240,114
F85C  D0 03     BNE                             A:FF X:78 Y:5B P:67 SP:F9 PPU:246,114
F85E  50 01     BVC                             A:FF X:78 Y:5B P:67 SP:F9 PPU:252,114
F860  60        RTS                             A:FF X:78 Y:5B P:67 SP:F9 PPU:258,114
E284  C8        INY                             A:FF X:78 Y:5B P:67 SP:FB PPU:276,114
E285  A9 80     LDA                             A:FF X:78 Y:5C P:65 SP:FB PPU:282,114
E287  8D 78 06  STA                             A:80 X:78 Y:5C P:E5 SP:FB PPU:288,114
E28A  20 64 F8  JSR                             A:80 X:78 Y:5C P:E5 SP:FB PPU:300,114
F864  18        CLC                             A:80 X:78 Y:5C P:E5 SP:F9 PPU:318,114
F865  24 01     BIT                             A:80 X:78 Y:5C P:E4 SP:F9 PPU:324,114
F867  A9 7F     LDA                             A:80 X:78 Y:5C P:E4 SP:F9 PPU:333,114
F869  60        RTS                             A:7F X:78 Y:5C P:64 SP:F9 PPU:339,114
E28D  7D 00 06  ADC                             A:7F X:78 Y:5C P:64 SP:FB PPU: 16,115
E290  20 6A F8  JSR                             A:FF X:78 Y:5C P:A4 SP:FB PPU: 28,115
F86A  10 09     BPL                             A:FF X:78 Y:5C P:A4 SP:F9 PPU: 46,115
F86C  B0 07     BCS                             A:FF X:78 Y:5C P:A4 SP:F9 PPU: 52,115
F86E  C9 FF     CMP                             A:FF X:78 Y:5C P:A4 SP:F9 PPU: 58,115
F870  D0 03     BNE                             A:FF X:78 Y:5C P:27 SP:F9 PPU: 64,115
F872  70 01     BVS                             A:FF X:78 Y:5C P:27 SP:F9 PPU: 70,115
F874  60        RTS                             A:FF X:78 Y:5C P:27 SP:F9 PPU: 76,115
E293  C8        INY                             A:FF X:78 Y:5C P:27 SP:FB PPU: 94,115
E294  20 78 F8  JSR                             A:FF X:78 Y:5D P:25 SP:FB PPU:100,115
F878  38        SEC                             A:FF X:78 Y:5D P:25 SP:F9 PPU:118,115
F879  B8        CLV                             A:FF X:78 Y:5D P:25 SP:F9 PPU:124,115
F87A  A9 7F     LDA                             A:FF X:78 Y:5D P:25 SP:F9 PPU:130,115
F87C  60        RTS                             A:7F X:78 Y:5D P:25 SP:F9 PPU:136,115
E297  7D 00 06  ADC                             A:7F X:78 Y:5D P:25 SP:FB PPU:154,115
E29A  20 7D F8  JSR                             A:00 X:78 Y:5D P:27 SP:FB PPU:166,115
F87D  D0 07     BNE                             A:00 X:78 Y:5D P:27 SP:F9 PPU:184,115
F87F  30 05     BMI                             A:00 X:78 Y:5D P:27 SP:F9 PPU:190,115
F881  70 03     BVS                             A:00 X:78 Y:5D P:27 SP:F9 PPU:196,115
F883  90 01     BCC                             A:00 X:78 Y:5D P:27 SP:F9 PPU:202,115
F885  60        RTS                             A:00 X:78 Y:5D P:27 SP:F9 PPU:208,115
E29D  C8        INY                             A:00 X:78 Y:5D P:27 SP:FB PPU:226,115
E29E  A9 40     LDA                             A:00 X:78 Y:5E P:25 SP:FB PPU:232,115
E2A0  8D 78 06  STA                             A:40 X:78 Y:5E P:25 SP:FB PPU:238,115
E2A3  20 89 F8  JSR                             A:40 X:78 Y:5E P:25 SP:FB PPU:250,115
F889  24 01     BIT                             A:40 X:78 Y:5E P:25 SP:F9 PPU:268,115
F88B  A9 40     LDA                             A:40 X:78 Y:5E P:E5 SP:F9 PPU:277,115
F88D  60        RTS                             A:40 X:78 Y:5E P:65 SP:F9 PPU:283,115
E2A6  DD 00 06  CMP                             A:40 X:78 Y:5E P:65 SP:FB PPU:301,115
E2A9  20 8E F8  JSR                             A:40 X:78 Y:5E P:67 SP:FB PPU:313,115
F88E  30 07     BMI                             A:40 X:78 Y:5E P:67 SP:F9 PPU:331,115
F890  90 05     BCC                             A:40 X:78 Y:5E P:67 SP:F9 PPU:337,115
F892  D0 03     BNE                             A:40 X:78 Y:5E P:67 SP:F9 PPU:  2,116
F894  50 01     BVC                             A:40 X:78 Y:5E P:67 SP:F9 PPU:  8,116
F896  60        RTS                             A:40 X:78 Y:5E P:67 SP:F9 PPU: 14,116
E2AC  C8        INY                             A:40 X:78 Y:5E P:67 SP:FB PPU: 32,116
E2AD  48        PHA                             A:40 X:78 Y:5F P:65 SP:FB PPU: 38,116
E2AE  A9 3F     LDA                             A:40 X:78 Y:5F P:65 SP:FA PPU: 47,116
E2B0  8D 78 06  STA                             A:3F X:78 Y:5F P:65 SP:FA PPU: 53,116
E2B3  68        PLA                             A:3F X:78 Y:5F P:65 SP:FA PPU: 65,116
E2B4  20 9A F8  JSR                             A:40 X:78 Y:5F P:65 SP:FB PPU: 77,116
F89A  B8        CLV                             A:40 X:78 Y:5F P:65 SP:F9 PPU: 95,116
F89B  60        RTS                             A:40 X:78 Y:5F P:25 SP:F9 PPU:101,116
E2B7  DD 00 06  CMP                             A:40 X:78 Y:5F P:25 SP:FB PPU:119,116
E2BA  20 9C F8  JSR                             A:40 X:78 Y:5F P:25 SP:FB PPU:131,116
F89C  F0 07     BEQ                             A:40 X:78 Y:5F P:25 SP:F9 PPU:149,116
F89E  30 05     BMI                             A:40 X:78 Y:5F P:25 SP:F9 PPU:155,116
F8A0  90 03     BCC                             A:40 X:78 Y:5F P:25 SP:F9 PPU:161,116
F8A2  70 01     BVS                             A:40 X:78 Y:5F P:25 SP:F9 PPU:167,116
F8A4  60        RTS                             A:40 X:78 Y:5F P:25 SP:F9 PPU:173,116
E2BD  C8        INY                             A:40 X:78 Y:5F P:25 SP:FB PPU:191,116
E2BE  48        PHA                             A:40 X:78 Y:60 P:25 SP:FB PPU:197,116
E2BF  A9 41     LDA                             A:40 X:78 Y:60 P:25 SP:FA PPU:206,116
E2C1  8D 78 06  STA                             A:41 X:78 Y:60 P:25 SP:FA PPU:212,116
E2C4  68        PLA                             A:41 X:78 Y:60 P:25 SP:FA PPU:224,116
E2C5  DD 00 06  CMP                             A:40 X:78 Y:60 P:25 SP:FB PPU:236,116
E2C8  20 A8 F8  JSR                             A:40 X:78 Y:60 P:A4 SP:FB PPU:248,116
F8A8  F0 05     BEQ                             A:40 X:78 Y:60 P:A4 SP:F9 PPU:266,116
F8AA  10 03     BPL                             A:40 X:78 Y:60 P:A4 SP:F9 PPU:272,116
F8AC  10 01     BPL                             A:40 X:78 Y:60 P:A4 SP:F9 PPU:278,116
F8AE  60        RTS                             A:40 X:78 Y:60 P:A4 SP:F9 PPU:284,116
E2CB  C8        INY                             A:40 X:78 Y:60 P:A4 SP:FB PPU:302,116
E2CC  48        PHA                             A:40 X:78 Y:61 P:24 SP:FB PPU:308,116
E2CD  A9 00     LDA                             A:40 X:78 Y:61 P:24 SP:FA PPU:317,116
E2CF  8D 78 06  STA                             A:00 X:78 Y:61 P:26 SP:FA PPU:323,116
E2D2  68        PLA                             A:00 X:78 Y:61 P:26 SP:FA PPU:335,116
E2D3  20 B2 F8  JSR                             A:40 X:78 Y:61 P:24 SP:FB PPU:  6,117
F8B2  A9 80     LDA                             A:40 X:78 Y:61 P:24 SP:F9 PPU: 24,117
F8B4  60        RTS                             A:80 X:78 Y:61 P:A4 SP:F9 PPU: 30,117
E2D6  DD 00 06  CMP                             A:80 X:78 Y:61 P:A4 SP:FB PPU: 48,117
E2D9  20 B5 F8  JSR                             A:80 X:78 Y:61 P:A5 SP:FB PPU: 60,117
F8B5  F0 05     BEQ                             A:80 X:78 Y:61 P:A5 SP:F9 PPU: 78,117
F8B7  10 03     BPL                             A:80 X:78 Y:61 P:A5 SP:F9 PPU: 84,117
F8B9  90 01     BCC                             A:80 X:78 Y:61 P:A5 SP:F9 PPU: 90,117
F8BB  60        RTS                             A:80 X:78 Y:61 P:A5 SP:F9 PPU: 96,117
E2DC  C8        INY                             A:80 X:78 Y:61 P:A5 SP:FB PPU:114,117
E2DD  48        PHA                             A:80 X:78 Y:62 P:25 SP:FB PPU:120,117
E2DE  A9 80     LDA                             A:80 X:78 Y:62 P:25 SP:FA PPU:129,117
E2E0  8D 78 06  STA                             A:80 X:78 Y:62 P:A5 SP:FA PPU:135,117
E2E3  68        PLA                             A:80 X:78 Y:62 P:A5 SP:FA PPU:147,117
E2E4  DD 00 06  CMP                             A:80 X:78 Y:62 P:A5 SP:FB PPU:159,117
E2E7  20 BF F8  JSR                             A:80 X:78 Y:62 P:27 SP:FB PPU:171,117
F8BF  D0 05     BNE                             A:80 X:78 Y:62 P:27 SP:F9 PPU:189,117
F8C1  30 03     BMI                             A:80 X:78 Y:62 P:27 SP:F9 PPU:195,117
F8C3  90 01     BCC                             A:80 X:78 Y:62 P:27 SP:F9 PPU:201,117
F8C5  60        RTS                             A:80 X:78 Y:62 P:27 SP:F9 PPU:207,117
E2EA  C8        INY                             A:80 X:78 Y:62 P:27 SP:FB PPU:225,117
E2EB  48        PHA                             A:80 X:78 Y:63 P:25 SP:FB PPU:231,117
E2EC  A9 81     LDA                             A:80 X:78 Y:63 P:25 SP:FA PPU:240,117
E2EE  8D 78 06  STA                             A:81 X:78 Y:63 P:A5 SP:FA PPU:246,117
E2F1  68        PLA                             A:81 X:78 Y:63 P:A5 SP:FA PPU:258,117
E2F2  DD 00 06  CMP                             A:80 X:78 Y:63 P:A5 SP:FB PPU:270,117
E2F5  20 C9 F8  JSR                             A:80 X:78 Y:63 P:A4 SP:FB PPU:282,117
F8C9  B0 05     BCS                             A:80 X:78 Y:63 P:A4 SP:F9 PPU:300,117
F8CB  F0 03     BEQ                             A:80 X:78 Y:63 P:A4 SP:F9 PPU:306,117
F8CD  10 01     BPL                             A:80 X:78 Y:63 P:A4 SP:F9 PPU:312,117
F8CF  60        RTS                             A:80 X:78 Y:63 P:A4 SP:F9 PPU:318,117
E2F8  C8        INY                             A:80 X:78 Y:63 P:A4 SP:FB PPU:336,117
E2F9  48        PHA                             A:80 X:78 Y:64 P:24 SP:FB PPU:  1,118
E2FA  A9 7F     LDA                             A:80 X:78 Y:64 P:24 SP:FA PPU: 10,118
E2FC  8D 78 06  STA                             A:7F X:78 Y:64 P:24 SP:FA PPU: 16,118
E2FF  68        PLA                             A:7F X:78 Y:64 P:24 SP:FA PPU: 28,118
E300  DD 00 06  CMP                             A:80 X:78 Y:64 P:A4 SP:FB PPU: 40,118
E303  20 D3 F8  JSR                             A:80 X:78 Y:64 P:25 SP:FB PPU: 52,118
F8D3  90 05     BCC                             A:80 X:78 Y:64 P:25 SP:F9 PPU: 70,118
F8D5  F0 03     BEQ                             A:80 X:78 Y:64 P:25 SP:F9 PPU: 76,118
F8D7  30 01     BMI                             A:80 X:78 Y:64 P:25 SP:F9 PPU: 82,118
F8D9  60        RTS                             A:80 X:78 Y:64 P:25 SP:F9 PPU: 88,118
E306  C8        INY                             A:80 X:78 Y:64 P:25 SP:FB PPU:106,118
E307  A9 40     LDA                             A:80 X:78 Y:65 P:25 SP:FB PPU:112,118
E309  8D 78 06  STA                             A:40 X:78 Y:65 P:25 SP:FB PPU:118,118
E30C  20 31 F9  JSR                             A:40 X:78 Y:65 P:25 SP:FB PPU:130,118
F931  24 01     BIT                             A:40 X:78 Y:65 P:25 SP:F9 PPU:148,118
F933  A9 40     LDA                             A:40 X:78 Y:65 P:E5 SP:F9 PPU:157,118
F935  38        SEC                             A:40 X:78 Y:65 P:65 SP:F9 PPU:163,118
F936  60        RTS                             A:40 X:78 Y:65 P:65 SP:F9 PPU:169,118
E30F  FD 00 06  SBC                             A:40 X:78 Y:65 P:65 SP:FB PPU:187,118
E312  20 37 F9  JSR                             A:00 X:78 Y:65 P:27 SP:FB PPU:199,118
F937  30 0B     BMI                             A:00 X:78 Y:65 P:27 SP:F9 PPU:217,118
F939  90 09     BCC                             A:00 X:78 Y:65 P:27 SP:F9 PPU:223,118
F93B  D0 07     BNE                             A:00 X:78 Y:65 P:27 SP:F9 PPU:229,118
F93D  70 05     BVS                             A:00 X:78 Y:65 P:27 SP:F9 PPU:235,118
F93F  C9 00     CMP                             A:00 X:78 Y:65 P:27 SP:F9 PPU:241,118
F941  D0 01     BNE                             A:00 X:78 Y:65 P:27 SP:F9 PPU:247,118
F943  60        RTS                             A:00 X:78 Y:65 P:27 SP:F9 PPU:253,118
E315  C8        INY                             A:00 X:78 Y:65 P:27 SP:FB PPU:271,118
E316  A9 3F     LDA                             A:00 X:78 Y:66 P:25 SP:FB PPU:277,118
E318  8D 78 06  STA                             A:3F X:78 Y:66 P:25 SP:FB PPU:283,118
E31B  20 47 F9  JSR                             A:3F X:78 Y:66 P:25 SP:FB PPU:295,118
F947  B8        CLV                             A:3F X:78 Y:66 P:25 SP:F9 PPU:313,118
F948  38        SEC                             A:3F X:78 Y:66 P:25 SP:F9 PPU:319,118
F949  A9 40     LDA                             A:3F X:78 Y:66 P:25 SP:F9 PPU:325,118
F94B  60        RTS                             A:40 X:78 Y:66 P:25 SP:F9 PPU:331,118
E31E  FD 00 06  SBC                             A:40 X:78 Y:66 P:25 SP:FB PPU:  8,119
E321  20 4C F9  JSR                             A:01 X:78 Y:66 P:25 SP:FB PPU: 20,119
F94C  F0 0B     BEQ                             A:01 X:78 Y:66 P:25 SP:F9 PPU: 38,119
F94E  30 09     BMI                             A:01 X:78 Y:66 P:25 SP:F9 PPU: 44,119
F950  90 07     BCC                             A:01 X:78 Y:66 P:25 SP:F9 PPU: 50,119
F952  70 05     BVS                             A:01 X:78 Y:66 P:25 SP:F9 PPU: 56,119
F954  C9 01     CMP                             A:01 X:78 Y:66 P:25 SP:F9 PPU: 62,119
F956  D0 01     BNE                             A:01 X:78 Y:66 P:27 SP:F9 PPU: 68,119
F958  60        RTS                             A:01 X:78 Y:66 P:27 SP:F9 PPU: 74,119
E324  C8        INY                             A:01 X:78 Y:66 P:27 SP:FB PPU: 92,119
E325  A9 41     LDA                             A:01 X:78 Y:67 P:25 SP:FB PPU: 98,119
E327  8D 78 06  STA                             A:41 X:78 Y:67 P:25 SP:FB PPU:104,119
E32A  20 5C F9  JSR                             A:41 X:78 Y:67 P:25 SP:FB PPU:116,119
F95C  A9 40     LDA                             A:41 X:78 Y:67 P:25 SP:F9 PPU:134,119
F95E  38        SEC                             A:40 X:78 Y:67 P:25 SP:F9 PPU:140,119
F95F  24 01     BIT                             A:40 X:78 Y:67 P:25 SP:F9 PPU:146,119
F961  60        RTS                             A:40 X:78 Y:67 P:E5 SP:F9 PPU:155,119
E32D  FD 00 06  SBC                             A:40 X:78 Y:67 P:E5 SP:FB PPU:173,119
E330  20 62 F9  JSR                             A:FF X:78 Y:67 P:A4 SP:FB PPU:185,119
F962  B0 0B     BCS                             A:FF X:78 Y:67 P:A4 SP:F9 PPU:203,119
F964  F0 09     BEQ                             A:FF X:78 Y:67 P:A4 SP:F9 PPU:209,119
F966  10 07     BPL                             A:FF X:78 Y:67 P:A4 SP:F9 PPU:215,119
F968  70 05     BVS                             A:FF X:78 Y:67 P:A4 SP:F9 PPU:221,119
F96A  C9 FF     CMP                             A:FF X:78 Y:67 P:A4 SP:F9 PPU:227,119
F96C  D0 01     BNE                             A:FF X:78 Y:67 P:27 SP:F9 PPU:233,119
F96E  60        RTS                             A:FF X:78 Y:67 P:27 SP:F9 PPU:239,119
E333  C8        INY                             A:FF X:78 Y:67 P:27 SP:FB PPU:257,119
E334  A9 00     LDA                             A:FF X:78 Y:68 P:25 SP:FB PPU:263,119
E336  8D 78 06  STA                             A:00 X:78 Y:68 P:27 SP:FB PPU:269,119
E339  20 72 F9  JSR                             A:00 X:78 Y:68 P:27 SP:FB PPU:281,119
F972  18        CLC                             A:00 X:78 Y:68 P:27 SP:F9 PPU:299,119
F973  A9 80     LDA                             A:00 X:78 Y:68 P:26 SP:F9 PPU:305,119
F975  60        RTS                             A:80 X:78 Y:68 P:A4 SP:F9 PPU:311,119
E33C  FD 00 06  SBC                             A:80 X:78 Y:68 P:A4 SP:FB PPU:329,119
E33F  20 76 F9  JSR                             A:7F X:78 Y:68 P:65 SP:FB PPU:  0,120
F976  90 05     BCC                             A:7F X:78 Y:68 P:65 SP:F9 PPU: 18,120
F978  C9 7F     CMP                             A:7F X:78 Y:68 P:65 SP:F9 PPU: 24,120
F97A  D0 01     BNE                             A:7F X:78 Y:68 P:67 SP:F9 PPU: 30,120
F97C  60        RTS                             A:7F X:78 Y:68 P:67 SP:F9 PPU: 36,120
E342  C8        INY                             A:7F X:78 Y:68 P:67 SP:FB PPU: 54,120
E343  A9 7F     LDA                             A:7F X:78 Y:69 P:65 SP:FB PPU: 60,120
E345  8D 78 06  STA                             A:7F X:78 Y:69 P:65 SP:FB PPU: 66,120
E348  20 80 F9  JSR                             A:7F X:78 Y:69 P:65 SP:FB PPU: 78,120
F980  38        SEC                             A:7F X:78 Y:69 P:65 SP:F9 PPU: 96,120
F981  A9 81     LDA                             A:7F X:78 Y:69 P:65 SP:F9 PPU:102,120
F983  60        RTS                             A:81 X:78 Y:69 P:E5 SP:F9 PPU:108,120
E34B  FD 00 06  SBC                             A:81 X:78 Y:69 P:E5 SP:FB PPU:126,120
E34E  20 84 F9  JSR                             A:02 X:78 Y:69 P:65 SP:FB PPU:138,120
F984  50 07     BVC                             A:02 X:78 Y:69 P:65 SP:F9 PPU:156,120
F986  90 05     BCC                             A:02 X:78 Y:69 P:65 SP:F9 PPU:162,120
F988  C9 02     CMP                             A:02 X:78 Y:69 P:65 SP:F9 PPU:168,120
F98A  D0 01     BNE                             A:02 X:78 Y:69 P:67 SP:F9 PPU:174,120
F98C  60        RTS                             A:02 X:78 Y:69 P:67 SP:F9 PPU:180,120
E351  A9 AA     LDA                             A:02 X:78 Y:69 P:67 SP:FB PPU:198,120
E353  8D 33 06  STA                             A:AA X:78 Y:69 P:E5 SP:FB PPU:204,120
E356  A9 BB     LDA                             A:AA X:78 Y:69 P:E5 SP:FB PPU:216,120
E358  8D 89 06  STA                             A:BB X:78 Y:69 P:E5 SP:FB PPU:222,120
E35B  A2 00     LDX                             A:BB X:78 Y:69 P:E5 SP:FB PPU:234,120
E35D  A0 66     LDY                             A:BB X:00 Y:69 P:67 SP:FB PPU:240,120
E35F  24 01     BIT                             A:BB X:00 Y:66 P:65 SP:FB PPU:246,120
E361  38        SEC                             A:BB X:00 Y:66 P:E5 SP:FB PPU:255,120
E362  A9 00     LDA                             A:BB X:00 Y:66 P:E5 SP:FB PPU:261,120
E364  BD 33 06  LDA                             A:00 X:00 Y:66 P:67 SP:FB PPU:267,120
E367  10 12     BPL                             A:AA X:00 Y:66 P:E5 SP:FB PPU:279,120
E369  F0 10     BEQ                             A:AA X:00 Y:66 P:E5 SP:FB PPU:285,120
E36B  50 0E     BVC                             A:AA X:00 Y:66 P:E5 SP:FB PPU:291,120
E36D  90 0C     BCC                             A:AA X:00 Y:66 P:E5 SP:FB PPU:297,120
E36F  C0 66     CPY                             A:AA X:00 Y:66 P:E5 SP:FB PPU:303,120
E371  D0 08     BNE                             A:AA X:00 Y:66 P:67 SP:FB PPU:309,120
E373  E0 00     CPX                             A:AA X:00 Y:66 P:67 SP:FB PPU:315,120
E375  D0 04     BNE                             A:AA X:00 Y:66 P:67 SP:FB PPU:321,120
E377  C9 AA     CMP                             A:AA X:00 Y:66 P:67 SP:FB PPU:327,120
E379  F0 04     BEQ                             A:AA X:00 Y:66 P:67 SP:FB PPU:333,120
E37F  A2 8A     LDX                             A:AA X:00 Y:66 P:67 SP:FB PPU:  1,121
E381  A0 66     LDY                             A:AA X:8A Y:66 P:E5 SP:FB PPU:  7,121
E383  B8        CLV                             A:AA X:8A Y:66 P:65 SP:FB PPU: 13,121
E384  18        CLC                             A:AA X:8A Y:66 P:25 SP:FB PPU: 19,121
E385  A9 00     LDA                             A:AA X:8A Y:66 P:24 SP:FB PPU: 25,121
E387  BD FF 05  LDA                             A:00 X:8A Y:66 P:26 SP:FB PPU: 31,121
E38A  10 12     BPL                             A:BB X:8A Y:66 P:A4 SP:FB PPU: 46,121
E38C  F0 10     BEQ                             A:BB X:8A Y:66 P:A4 SP:FB PPU: 52,121
E38E  70 0E     BVS                             A:BB X:8A Y:66 P:A4 SP:FB PPU: 58,121
E390  B0 0C     BCS                             A:BB X:8A Y:66 P:A4 SP:FB PPU: 64,121
E392  C9 BB     CMP                             A:BB X:8A Y:66 P:A4 SP:FB PPU: 70,121
E394  D0 08     BNE                             A:BB X:8A Y:66 P:27 SP:FB PPU: 76,121
E396  C0 66     CPY                             A:BB X:8A Y:66 P:27 SP:FB PPU: 82,121
E398  D0 04     BNE                             A:BB X:8A Y:66 P:27 SP:FB PPU: 88,121
E39A  E0 8A     CPX                             A:BB X:8A Y:66 P:27 SP:FB PPU: 94,121
E39C  F0 04     BEQ                             A:BB X:8A Y:66 P:27 SP:FB PPU:100,121
E3A2  24 01     BIT                             A:BB X:8A Y:66 P:27 SP:FB PPU:109,121
E3A4  38        SEC                             A:BB X:8A Y:66 P:E5 SP:FB PPU:118,121
E3A5  A9 44     LDA                             A:BB X:8A Y:66 P:E5 SP:FB PPU:124,121
E3A7  A2 00     LDX                             A:44 X:8A Y:66 P:65 SP:FB PPU:130,121
E3A9  9D 33 06  STA                             A:44 X:00 Y:66 P:67 SP:FB PPU:136,121
E3AC  AD 33 06  LDA                             A:44 X:00 Y:66 P:67 SP:FB PPU:151,121
E3AF  90 1A     BCC                             A:44 X:00 Y:66 P:65 SP:FB PPU:163,121
E3B1  C9 44     CMP                             A:44 X:00 Y:66 P:65 SP:FB PPU:169,121
E3B3  D0 16     BNE                             A:44 X:00 Y:66 P:67 SP:FB PPU:175,121
E3B5  50 14     BVC                             A:44 X:00 Y:66 P:67 SP:FB PPU:181,121
E3B7  18        CLC                             A:44 X:00 Y:66 P:67 SP:FB PPU:187,121
E3B8  B8        CLV                             A:44 X:00 Y:66 P:66 SP:FB PPU:193,121
E3B9  A9 99     LDA                             A:44 X:00 Y:66 P:26 SP:FB PPU:199,121
E3BB  A2 80     LDX                             A:99 X:00 Y:66 P:A4 SP:FB PPU:205,121
E3BD  9D 85 05  STA                             A:99 X:80 Y:66 P:A4 SP:FB PPU:211,121
E3C0  AD 05 06  LDA                             A:99 X:80 Y:66 P:A4 SP:FB PPU:226,121
E3C3  B0 06     BCS                             A:99 X:80 Y:66 P:A4 SP:FB PPU:238,121
E3C5  C9 99     CMP                             A:99 X:80 Y:66 P:A4 SP:FB PPU:244,121
E3C7  D0 02     BNE                             A:99 X:80 Y:66 P:27 SP:FB PPU:250,121
E3C9  50 04     BVC                             A:99 X:80 Y:66 P:27 SP:FB PPU:256,121
E3CF  A0 6D     LDY                             A:99 X:80 Y:66 P:27 SP:FB PPU:265,121
E3D1  A2 6D     LDX                             A:99 X:80 Y:6D P:25 SP:FB PPU:271,121
E3D3  20 90 F9  JSR                             A:99 X:6D Y:6D P:25 SP:FB PPU:277,121
F990  A2 55     LDX                             A:99 X:6D Y:6D P:25 SP:F9 PPU:295,121
F992  A9 FF     LDA                             A:99 X:55 Y:6D P:25 SP:F9 PPU:301,121
F994  85 01     STA                             A:FF X:55 Y:6D P:A5 SP:F9 PPU:307,121
F996  EA        NOP                             A:FF X:55 Y:6D P:A5 SP:F9 PPU:316,121
F997  24 01     BIT                             A:FF X:55 Y:6D P:A5 SP:F9 PPU:322,121
F999  38        SEC                             A:FF X:55 Y:6D P:E5 SP:F9 PPU:331,121
F99A  A9 01     LDA                             A:FF X:55 Y:6D P:E5 SP:F9 PPU:337,121
F99C  60        RTS                             A:01 X:55 Y:6D P:65 SP:F9 PPU:  2,122
E3D6  9D 00 06  STA                             A:01 X:55 Y:6D P:65 SP:FB PPU: 20,122
E3D9  5E 00 06  LSR                             A:01 X:55 Y:6D P:65 SP:FB PPU: 35,122
E3DC  BD 00 06  LDA                             A:01 X:55 Y:6D P:67 SP:FB PPU: 56,122
E3DF  20 9D F9  JSR                             A:00 X:55 Y:6D P:67 SP:FB PPU: 68,122
F99D  90 1B     BCC                             A:00 X:55 Y:6D P:67 SP:F9 PPU: 86,122
F99F  D0 19     BNE                             A:00 X:55 Y:6D P:67 SP:F9 PPU: 92,122
F9A1  30 17     BMI                             A:00 X:55 Y:6D P:67 SP:F9 PPU: 98,122
F9A3  50 15     BVC                             A:00 X:55 Y:6D P:67 SP:F9 PPU:104,122
F9A5  C9 00     CMP                             A:00 X:55 Y:6D P:67 SP:F9 PPU:110,122
F9A7  D0 11     BNE                             A:00 X:55 Y:6D P:67 SP:F9 PPU:116,122
F9A9  B8        CLV                             A:00 X:55 Y:6D P:67 SP:F9 PPU:122,122
F9AA  A9 AA     LDA                             A:00 X:55 Y:6D P:27 SP:F9 PPU:128,122
F9AC  60        RTS                             A:AA X:55 Y:6D P:A5 SP:F9 PPU:134,122
E3E2  C8        INY                             A:AA X:55 Y:6D P:A5 SP:FB PPU:152,122
E3E3  9D 00 06  STA                             A:AA X:55 Y:6E P:25 SP:FB PPU:158,122
E3E6  5E 00 06  LSR                             A:AA X:55 Y:6E P:25 SP:FB PPU:173,122
E3E9  BD 00 06  LDA                             A:AA X:55 Y:6E P:24 SP:FB PPU:194,122
E3EC  20 AD F9  JSR                             A:55 X:55 Y:6E P:24 SP:FB PPU:206,122
F9AD  B0 0B     BCS                             A:55 X:55 Y:6E P:24 SP:F9 PPU:224,122
F9AF  F0 09     BEQ                             A:55 X:55 Y:6E P:24 SP:F9 PPU:230,122
F9B1  30 07     BMI                             A:55 X:55 Y:6E P:24 SP:F9 PPU:236,122
F9B3  70 05     BVS                             A:55 X:55 Y:6E P:24 SP:F9 PPU:242,122
F9B5  C9 55     CMP                             A:55 X:55 Y:6E P:24 SP:F9 PPU:248,122
F9B7  D0 01     BNE                             A:55 X:55 Y:6E P:27 SP:F9 PPU:254,122
F9B9  60        RTS                             A:55 X:55 Y:6E P:27 SP:F9 PPU:260,122
E3EF  C8        INY                             A:55 X:55 Y:6E P:27 SP:FB PPU:278,122
E3F0  20 BD F9  JSR                             A:55 X:55 Y:6F P:25 SP:FB PPU:284,122
F9BD  24 01     BIT                             A:55 X:55 Y:6F P:25 SP:F9 PPU:302,122
F9BF  38        SEC                             A:55 X:55 Y:6F P:E5 SP:F9 PPU:311,122
F9C0  A9 80     LDA                             A:55 X:55 Y:6F P:E5 SP:F9 PPU:317,122
F9C2  60        RTS                             A:80 X:55 Y:6F P:E5 SP:F9 PPU:323,122
E3F3  9D 00 06  STA                             A:80 X:55 Y:6F P:E5 SP:FB PPU:  0,123
E3F6  1E 00 06  ASL                             A:80 X:55 Y:6F P:E5 SP:FB PPU: 15,123
E3F9  BD 00 06  LDA                             A:80 X:55 Y:6F P:67 SP:FB PPU: 36,123
E3FC  20 C3 F9  JSR                             A:00 X:55 Y:6F P:67 SP:FB PPU: 48,123
F9C3  90 1C     BCC                             A:00 X:55 Y:6F P:67 SP:F9 PPU: 66,123
F9C5  D0 1A     BNE                             A:00 X:55 Y:6F P:67 SP:F9 PPU: 72,123
F9C7  30 18     BMI                             A:00 X:55 Y:6F P:67 SP:F9 PPU: 78,123
F9C9  50 16     BVC                             A:00 X:55 Y:6F P:67 SP:F9 PPU: 84,123
F9CB  C9 00     CMP                             A:00 X:55 Y:6F P:67 SP:F9 PPU: 90,123
F9CD  D0 12     BNE                             A:00 X:55 Y:6F P:67 SP:F9 PPU: 96,123
F9CF  B8        CLV                             A:00 X:55 Y:6F P:67 SP:F9 PPU:102,123
F9D0  A9 55     LDA                             A:00 X:55 Y:6F P:27 SP:F9 PPU:108,123
F9D2  38        SEC                             A:55 X:55 Y:6F P:25 SP:F9 PPU:114,123
F9D3  60        RTS                             A:55 X:55 Y:6F P:25 SP:F9 PPU:120,123
E3FF  C8        INY                             A:55 X:55 Y:6F P:25 SP:FB PPU:138,123
E400  9D 00 06  STA                             A:55 X:55 Y:70 P:25 SP:FB PPU:144,123
E403  1E 00 06  ASL                             A:55 X:55 Y:70 P:25 SP:FB PPU:159,123
E406  BD 00 06  LDA                             A:55 X:55 Y:70 P:A4 SP:FB PPU:180,123
E409  20 D4 F9  JSR                             A:AA X:55 Y:70 P:A4 SP:FB PPU:192,123
F9D4  B0 0B     BCS                             A:AA X:55 Y:70 P:A4 SP:F9 PPU:210,123
F9D6  F0 09     BEQ                             A:AA X:55 Y:70 P:A4 SP:F9 PPU:216,123
F9D8  10 07     BPL                             A:AA X:55 Y:70 P:A4 SP:F9 PPU:222,123
F9DA  70 05     BVS                             A:AA X:55 Y:70 P:A4 SP:F9 PPU:228,123
F9DC  C9 AA     CMP                             A:AA X:55 Y:70 P:A4 SP:F9 PPU:234,123
F9DE  D0 01     BNE                             A:AA X:55 Y:70 P:27 SP:F9 PPU:240,123
F9E0  60        RTS                             A:AA X:55 Y:70 P:27 SP:F9 PPU:246,123
E40C  C8        INY                             A:AA X:55 Y:70 P:27 SP:FB PPU:264,123
E40D  20 E4 F9  JSR                             A:AA X:55 Y:71 P:25 SP:FB PPU:270,123
F9E4  24 01     BIT                             A:AA X:55 Y:71 P:25 SP:F9 PPU:288,123
F9E6  38        SEC                             A:AA X:55 Y:71 P:E5 SP:F9 PPU:297,123
F9E7  A9 01     LDA                             A:AA X:55 Y:71 P:E5 SP:F9 PPU:303,123
F9E9  60        RTS                             A:01 X:55 Y:71 P:65 SP:F9 PPU:309,123
E410  9D 00 06  STA                             A:01 X:55 Y:71 P:65 SP:FB PPU:327,123
E413  7E 00 06  ROR                             A:01 X:55 Y:71 P:65 SP:FB PPU:  1,124
E416  BD 00 06  LDA                             A:01 X:55 Y:71 P:E5 SP:FB PPU: 22,124
E419  20 EA F9  JSR                             A:80 X:55 Y:71 P:E5 SP:FB PPU: 34,124
F9EA  90 1C     BCC                             A:80 X:55 Y:71 P:E5 SP:F9 PPU: 52,124
F9EC  F0 1A     BEQ                             A:80 X:55 Y:71 P:E5 SP:F9 PPU: 58,124
F9EE  10 18     BPL                             A:80 X:55 Y:71 P:E5 SP:F9 PPU: 64,124
F9F0  50 16     BVC                             A:80 X:55 Y:71 P:E5 SP:F9 PPU: 70,124
F9F2  C9 80     CMP                             A:80 X:55 Y:71 P:E5 SP:F9 PPU: 76,124
F9F4  D0 12     BNE                             A:80 X:55 Y:71 P:67 SP:F9 PPU: 82,124
F9F6  B8        CLV                             A:80 X:55 Y:71 P:67 SP:F9 PPU: 88,124
F9F7  18        CLC                             A:80 X:55 Y:71 P:27 SP:F9 PPU: 94,124
F9F8  A9 55     LDA                             A:80 X:55 Y:71 P:26 SP:F9 PPU:100,124
F9FA  60        RTS                             A:55 X:55 Y:71 P:24 SP:F9 PPU:106,124
E41C  C8        INY                             A:55 X:55 Y:71 P:24 SP:FB PPU:124,124
E41D  9D 00 06  STA                             A:55 X:55 Y:72 P:24 SP:FB PPU:130,124
E420  7E 00 06  ROR                             A:55 X:55 Y:72 P:24 SP:FB PPU:145,124
E423  BD 00 06  LDA                             A:55 X:55 Y:72 P:25 SP:FB PPU:166,124
E426  20 FB F9  JSR                             A:2A X:55 Y:72 P:25 SP:FB PPU:178,124
F9FB  90 0B     BCC                             A:2A X:55 Y:72 P:25 SP:F9 PPU:196,124
F9FD  F0 09     BEQ                             A:2A X:55 Y:72 P:25 SP:F9 PPU:202,124
F9FF  30 07     BMI                             A:2A X:55 Y:72 P:25 SP:F9 PPU:208,124
FA01  70 05     BVS                             A:2A X:55 Y:72 P:25 SP:F9 PPU:214,124
FA03  C9 2A     CMP                             A:2A X:55 Y:72 P:25 SP:F9 PPU:220,124
FA05  D0 01     BNE                             A:2A X:55 Y:72 P:27 SP:F9 PPU:226,124
FA07  60        RTS                             A:2A X:55 Y:72 P:27 SP:F9 PPU:232,124
E429  C8        INY                             A:2A X:55 Y:72 P:27 SP:FB PPU:250,124
E42A  20 0A FA  JSR                             A:2A X:55 Y:73 P:25 SP:FB PPU:256,124
FA0A  24 01     BIT                             A:2A X:55 Y:73 P:25 SP:F9 PPU:274,124
FA0C  38        SEC                             A:2A X:55 Y:73 P:E5 SP:F9 PPU:283,124
FA0D  A9 80     LDA                             A:2A X:55 Y:73 P:E5 SP:F9 PPU:289,124
FA0F  60        RTS                             A:80 X:55 Y:73 P:E5 SP:F9 PPU:295,124
E42D  9D 00 06  STA                             A:80 X:55 Y:73 P:E5 SP:FB PPU:313,124
E430  3E 00 06  ROL                             A:80 X:55 Y:73 P:E5 SP:FB PPU:328,124
E433  BD 00 06  LDA                             A:80 X:55 Y:73 P:65 SP:FB PPU:  8,125
E436  20 10 FA  JSR                             A:01 X:55 Y:73 P:65 SP:FB PPU: 20,125
FA10  90 1C     BCC                             A:01 X:55 Y:73 P:65 SP:F9 PPU: 38,125
FA12  F0 1A     BEQ                             A:01 X:55 Y:73 P:65 SP:F9 PPU: 44,125
FA14  30 18     BMI                             A:01 X:55 Y:73 P:65 SP:F9 PPU: 50,125
FA16  50 16     BVC                             A:01 X:55 Y:73 P:65 SP:F9 PPU: 56,125
FA18  C9 01     CMP                             A:01 X:55 Y:73 P:65 SP:F9 PPU: 62,125
FA1A  D0 12     BNE                             A:01 X:55 Y:73 P:67 SP:F9 PPU: 68,125
FA1C  B8        CLV                             A:01 X:55 Y:73 P:67 SP:F9 PPU: 74,125
FA1D  18        CLC                             A:01 X:55 Y:73 P:27 SP:F9 PPU: 80,125
FA1E  A9 55     LDA                             A:01 X:55 Y:73 P:26 SP:F9 PPU: 86,125
FA20  60        RTS                             A:55 X:55 Y:73 P:24 SP:F9 PPU: 92,125
E439  C8        INY                             A:55 X:55 Y:73 P:24 SP:FB PPU:110,125
E43A  9D 00 06  STA                             A:55 X:55 Y:74 P:24 SP:FB PPU:116,125
E43D  3E 00 06  ROL                             A:55 X:55 Y:74 P:24 SP:FB PPU:131,125
E440  BD 00 06  LDA                             A:55 X:55 Y:74 P:A4 SP:FB PPU:152,125
E443  20 21 FA  JSR                             A:AA X:55 Y:74 P:A4 SP:FB PPU:164,125
FA21  B0 0B     BCS                             A:AA X:55 Y:74 P:A4 SP:F9 PPU:182,125
FA23  F0 09     BEQ                             A:AA X:55 Y:74 P:A4 SP:F9 PPU:188,125
FA25  10 07     BPL                             A:AA X:55 Y:74 P:A4 SP:F9 PPU:194,125
FA27  70 05     BVS                             A:AA X:55 Y:74 P:A4 SP:F9 PPU:200,125
FA29  C9 AA     CMP                             A:AA X:55 Y:74 P:A4 SP:F9 PPU:206,125
FA2B  D0 01     BNE                             A:AA X:55 Y:74 P:27 SP:F9 PPU:212,125
FA2D  60        RTS                             A:AA X:55 Y:74 P:27 SP:F9 PPU:218,125
E446  A9 FF     LDA                             A:AA X:55 Y:74 P:27 SP:FB PPU:236,125
E448  9D 00 06  STA                             A:FF X:55 Y:74 P:A5 SP:FB PPU:242,125
E44B  85 01     STA                             A:FF X:55 Y:74 P:A5 SP:FB PPU:257,125
E44D  24 01     BIT                             A:FF X:55 Y:74 P:A5 SP:FB PPU:266,125
E44F  38        SEC                             A:FF X:55 Y:74 P:E5 SP:FB PPU:275,125
E450  FE 00 06  INC                             A:FF X:55 Y:74 P:E5 SP:FB PPU:281,125
E453  D0 0D     BNE                             A:FF X:55 Y:74 P:67 SP:FB PPU:302,125
E455  30 0B     BMI                             A:FF X:55 Y:74 P:67 SP:FB PPU:308,125
E457  50 09     BVC                             A:FF X:55 Y:74 P:67 SP:FB PPU:314,125
E459  90 07     BCC                             A:FF X:55 Y:74 P:67 SP:FB PPU:320,125
E45B  BD 00 06  LDA                             A:FF X:55 Y:74 P:67 SP:FB PPU:326,125
E45E  C9 00     CMP                             A:00 X:55 Y:74 P:67 SP:FB PPU:338,125
E460  F0 04     BEQ                             A:00 X:55 Y:74 P:67 SP:FB PPU:  3,126
E466  A9 7F     LDA                             A:00 X:55 Y:74 P:67 SP:FB PPU: 12,126
E468  9D 00 06  STA                             A:7F X:55 Y:74 P:65 SP:FB PPU: 18,126
E46B  B8        CLV                             A:7F X:55 Y:74 P:65 SP:FB PPU: 33,126
E46C  18        CLC                             A:7F X:55 Y:74 P:25 SP:FB PPU: 39,126
E46D  FE 00 06  INC                             A:7F X:55 Y:74 P:24 SP:FB PPU: 45,126
E470  F0 0D     BEQ                             A:7F X:55 Y:74 P:A4 SP:FB PPU: 66,126
E472  10 0B     BPL                             A:7F X:55 Y:74 P:A4 SP:FB PPU: 72,126
E474  70 09     BVS                             A:7F X:55 Y:74 P:A4 SP:FB PPU: 78,126
E476  B0 07     BCS                             A:7F X:55 Y:74 P:A4 SP:FB PPU: 84,126
E478  BD 00 06  LDA                             A:7F X:55 Y:74 P:A4 SP:FB PPU: 90,126
E47B  C9 80     CMP                             A:80 X:55 Y:74 P:A4 SP:FB PPU:102,126
E47D  F0 04     BEQ                             A:80 X:55 Y:74 P:27 SP:FB PPU:108,126
E483  A9 00     LDA                             A:80 X:55 Y:74 P:27 SP:FB PPU:117,126
E485  9D 00 06  STA                             A:00 X:55 Y:74 P:27 SP:FB PPU:123,126
E488  24 01     BIT                             A:00 X:55 Y:74 P:27 SP:FB PPU:138,126
E48A  38        SEC                             A:00 X:55 Y:74 P:E7 SP:FB PPU:147,126
E48B  DE 00 06  DEC                             A:00 X:55 Y:74 P:E7 SP:FB PPU:153,126
E48E  F0 0D     BEQ                             A:00 X:55 Y:74 P:E5 SP:FB PPU:174,126
E490  10 0B     BPL                             A:00 X:55 Y:74 P:E5 SP:FB PPU:180,126
E492  50 09     BVC                             A:00 X:55 Y:74 P:E5 SP:FB PPU:186,126
E494  90 07     BCC                             A:00 X:55 Y:74 P:E5 SP:FB PPU:192,126
E496  BD 00 06  LDA                             A:00 X:55 Y:74 P:E5 SP:FB PPU:198,126
E499  C9 FF     CMP                             A:FF X:55 Y:74 P:E5 SP:FB PPU:210,126
E49B  F0 04     BEQ                             A:FF X:55 Y:74 P:67 SP:FB PPU:216,126
E4A1  A9 80     LDA                             A:FF X:55 Y:74 P:67 SP:FB PPU:225,126
E4A3  9D 00 06  STA                             A:80 X:55 Y:74 P:E5 SP:FB PPU:231,126
E4A6  B8        CLV                             A:80 X:55 Y:74 P:E5 SP:FB PPU:246,126
E4A7  18        CLC                             A:80 X:55 Y:74 P:A5 SP:FB PPU:252,126
E4A8  DE 00 06  DEC                             A:80 X:55 Y:74 P:A4 SP:FB PPU:258,126
E4AB  F0 0D     BEQ                             A:80 X:55 Y:74 P:24 SP:FB PPU:279,126
E4AD  30 0B     BMI                             A:80 X:55 Y:74 P:24 SP:FB PPU:285,126
E4AF  70 09     BVS                             A:80 X:55 Y:74 P:24 SP:FB PPU:291,126
E4B1  B0 07     BCS                             A:80 X:55 Y:74 P:24 SP:FB PPU:297,126
E4B3  BD 00 06  LDA                             A:80 X:55 Y:74 P:24 SP:FB PPU:303,126
E4B6  C9 7F     CMP                             A:7F X:55 Y:74 P:24 SP:FB PPU:315,126
E4B8  F0 04     BEQ                             A:7F X:55 Y:74 P:27 SP:FB PPU:321,126
E4BE  A9 01     LDA                             A:7F X:55 Y:74 P:27 SP:FB PPU:330,126
E4C0  9D 00 06  STA                             A:01 X:55 Y:74 P:25 SP:FB PPU:336,126
E4C3  DE 00 06  DEC                             A:01 X:55 Y:74 P:25 SP:FB PPU: 10,127
E4C6  F0 04     BEQ                             A:01 X:55 Y:74 P:27 SP:FB PPU: 31,127
E4CC  A9 33     LDA                             A:01 X:55 Y:74 P:27 SP:FB PPU: 40,127
E4CE  8D 78 06  STA                             A:33 X:55 Y:74 P:25 SP:FB PPU: 46,127
E4D1  A9 44     LDA                             A:33 X:55 Y:74 P:25 SP:FB PPU: 58,127
E4D3  A0 78     LDY                             A:44 X:55 Y:74 P:25 SP:FB PPU: 64,127
E4D5  A2 00     LDX                             A:44 X:55 Y:78 P:25 SP:FB PPU: 70,127
E4D7  38        SEC                             A:44 X:00 Y:78 P:27 SP:FB PPU: 76,127
E4D8  24 01     BIT                             A:44 X:00 Y:78 P:27 SP:FB PPU: 82,127
E4DA  BE 00 06  LDX                             A:44 X:00 Y:78 P:E5 SP:FB PPU: 91,127
E4DD  90 12     BCC                             A:44 X:33 Y:78 P:65 SP:FB PPU:103,127
E4DF  50 10     BVC                             A:44 X:33 Y:78 P:65 SP:FB PPU:109,127
E4E1  30 0E     BMI                             A:44 X:33 Y:78 P:65 SP:FB PPU:115,127
E4E3  F0 0C     BEQ                             A:44 X:33 Y:78 P:65 SP:FB PPU:121,127
E4E5  E0 33     CPX                             A:44 X:33 Y:78 P:65 SP:FB PPU:127,127
E4E7  D0 08     BNE                             A:44 X:33 Y:78 P:67 SP:FB PPU:133,127
E4E9  C0 78     CPY                             A:44 X:33 Y:78 P:67 SP:FB PPU:139,127
E4EB  D0 04     BNE                             A:44 X:33 Y:78 P:67 SP:FB PPU:145,127
E4ED  C9 44     CMP                             A:44 X:33 Y:78 P:67 SP:FB PPU:151,127
E4EF  F0 04     BEQ                             A:44 X:33 Y:78 P:67 SP:FB PPU:157,127
E4F5  A9 97     LDA                             A:44 X:33 Y:78 P:67 SP:FB PPU:166,127
E4F7  8D 7F 06  STA                             A:97 X:33 Y:78 P:E5 SP:FB PPU:172,127
E4FA  A9 47     LDA                             A:97 X:33 Y:78 P:E5 SP:FB PPU:184,127
E4FC  A0 FF     LDY                             A:47 X:33 Y:78 P:65 SP:FB PPU:190,127
E4FE  A2 00     LDX                             A:47 X:33 Y:FF P:E5 SP:FB PPU:196,127
E500  18        CLC                             A:47 X:00 Y:FF P:67 SP:FB PPU:202,127
E501  B8        CLV                             A:47 X:00 Y:FF P:66 SP:FB PPU:208,127
E502  BE 80 05  LDX                             A:47 X:00 Y:FF P:26 SP:FB PPU:214,127
E505  B0 12     BCS                             A:47 X:97 Y:FF P:A4 SP:FB PPU:229,127
E507  70 10     BVS                             A:47 X:97 Y:FF P:A4 SP:FB PPU:235,127
E509  10 0E     BPL                             A:47 X:97 Y:FF P:A4 SP:FB PPU:241,127
E50B  F0 0C     BEQ                             A:47 X:97 Y:FF P:A4 SP:FB PPU:247,127
E50D  E0 97     CPX                             A:47 X:97 Y:FF P:A4 SP:FB PPU:253,127
E50F  D0 08     BNE                             A:47 X:97 Y:FF P:27 SP:FB PPU:259,127
E511  C0 FF     CPY                             A:47 X:97 Y:FF P:27 SP:FB PPU:265,127
E513  D0 04     BNE                             A:47 X:97 Y:FF P:27 SP:FB PPU:271,127
E515  C9 47     CMP                             A:47 X:97 Y:FF P:27 SP:FB PPU:277,127
E517  F0 04     BEQ                             A:47 X:97 Y:FF P:27 SP:FB PPU:283,127
E51D  60        RTS                             A:47 X:97 Y:FF P:27 SP:FB PPU:292,127
C62F  20 A3 C6  JSR                             A:47 X:97 Y:FF P:27 SP:FD PPU:310,127
C6A3  A0 4E     LDY                             A:47 X:97 Y:FF P:27 SP:FB PPU:328,127
C6A5  A9 FF     LDA                             A:47 X:97 Y:4E P:25 SP:FB PPU:334,127
C6A7  85 01     STA                             A:FF X:97 Y:4E P:A5 SP:FB PPU:340,127
C6A9  20 B0 C6  JSR                             A:FF X:97 Y:4E P:A5 SP:FB PPU:  8,128
C6B0  A9 FF     LDA                             A:FF X:97 Y:4E P:A5 SP:F9 PPU: 26,128
C6B2  48        PHA                             A:FF X:97 Y:4E P:A5 SP:F9 PPU: 32,128
C6B3  A9 AA     LDA                             A:FF X:97 Y:4E P:A5 SP:F8 PPU: 41,128
C6B5  D0 05     BNE                             A:AA X:97 Y:4E P:A5 SP:F8 PPU: 47,128
C6BC  28        PLP                             A:AA X:97 Y:4E P:A5 SP:F8 PPU: 56,128
C6BD  04 A9     NOP                             A:AA X:97 Y:4E P:EF SP:F9 PPU: 68,128
C6BF  44 A9     NOP                             A:AA X:97 Y:4E P:EF SP:F9 PPU: 77,128
C6C1  64 A9     NOP                             A:AA X:97 Y:4E P:EF SP:F9 PPU: 86,128
C6C3  EA        NOP                             A:AA X:97 Y:4E P:EF SP:F9 PPU: 95,128
C6C4  EA        NOP                             A:AA X:97 Y:4E P:EF SP:F9 PPU:101,128
C6C5  EA        NOP                             A:AA X:97 Y:4E P:EF SP:F9 PPU:107,128
C6C6  EA        NOP                             A:AA X:97 Y:4E P:EF SP:F9 PPU:113,128
C6C7  08        PHP                             A:AA X:97 Y:4E P:EF SP:F9 PPU:119,128
C6C8  48        PHA                             A:AA X:97 Y:4E P:EF SP:F8 PPU:128,128
C6C9  0C A9 A9  NOP                             A:AA X:97 Y:4E P:EF SP:F7 PPU:137,128
C6CC  EA        NOP                             A:AA X:97 Y:4E P:EF SP:F7 PPU:149,128
C6CD  EA        NOP                             A:AA X:97 Y:4E P:EF SP:F7 PPU:155,128
C6CE  EA        NOP                             A:AA X:97 Y:4E P:EF SP:F7 PPU:161,128
C6CF  EA        NOP                             A:AA X:97 Y:4E P:EF SP:F7 PPU:167,128
C6D0  08        PHP                             A:AA X:97 Y:4E P:EF SP:F7 PPU:173,128
C6D1  48        PHA                             A:AA X:97 Y:4E P:EF SP:F6 PPU:182,128
C6D2  14 A9     NOP                             A:AA X:97 Y:4E P:EF SP:F5 PPU:191,128
C6D4  34 A9     NOP                             A:AA X:97 Y:4E P:EF SP:F5 PPU:203,128
C6D6  54 A9     NOP                             A:AA X:97 Y:4E P:EF SP:F5 PPU:215,128
C6D8  74 A9     NOP                             A:AA X:97 Y:4E P:EF SP:F5 PPU:227,128
C6DA  D4 A9     NOP                             A:AA X:97 Y:4E P:EF SP:F5 PPU:239,128
C6DC  F4 A9     NOP                             A:AA X:97 Y:4E P:EF SP:F5 PPU:251,128
C6DE  EA        NOP                             A:AA X:97 Y:4E P:EF SP:F5 PPU:263,128
C6DF  EA        NOP                             A:AA X:97 Y:4E P:EF SP:F5 PPU:269,128
C6E0  EA        NOP                             A:AA X:97 Y:4E P:EF SP:F5 PPU:275,128
C6E1  EA        NOP                             A:AA X:97 Y:4E P:EF SP:F5 PPU:281,128
C6E2  08        PHP                             A:AA X:97 Y:4E P:EF SP:F5 PPU:287,128
C6E3  48        PHA                             A:AA X:97 Y:4E P:EF SP:F4 PPU:296,128
C6E4  1A        NOP                             A:AA X:97 Y:4E P:EF SP:F3 PPU:305,128
C6E5  3A        NOP                             A:AA X:97 Y:4E P:EF SP:F3 PPU:311,128
C6E6  5A        NOP                             A:AA X:97 Y:4E P:EF SP:F3 PPU:317,128
C6E7  7A        NOP                             A:AA X:97 Y:4E P:EF SP:F3 PPU:323,128
C6E8  DA        NOP                             A:AA X:97 Y:4E P:EF SP:F3 PPU:329,128
C6E9  FA        NOP                             A:AA X:97 Y:4E P:EF SP:F3 PPU:335,128
C6EA  80 89     NOP                             A:AA X:97 Y:4E P:EF SP:F3 PPU:  0,129
C6EC  EA        NOP                             A:AA X:97 Y:4E P:EF SP:F3 PPU:  6,129
C6ED  EA        NOP                             A:AA X:97 Y:4E P:EF SP:F3 PPU: 12,129
C6EE  EA        NOP                             A:AA X:97 Y:4E P:EF SP:F3 PPU: 18,129
C6EF  EA        NOP                             A:AA X:97 Y:4E P:EF SP:F3 PPU: 24,129
C6F0  08        PHP                             A:AA X:97 Y:4E P:EF SP:F3 PPU: 30,129
C6F1  48        PHA                             A:AA X:97 Y:4E P:EF SP:F2 PPU: 39,129
C6F2  1C A9 A9  NOP                             A:AA X:97 Y:4E P:EF SP:F1 PPU: 48,129
C6F5  3C A9 A9  NOP                             A:AA X:97 Y:4E P:EF SP:F1 PPU: 63,129
C6F8  5C A9 A9  NOP                             A:AA X:97 Y:4E P:EF SP:F1 PPU: 78,129
C6FB  7C A9 A9  NOP                             A:AA X:97 Y:4E P:EF SP:F1 PPU: 93,129
C6FE  DC A9 A9  NOP                             A:AA X:97 Y:4E P:EF SP:F1 PPU:108,129
C701  FC A9 A9  NOP                             A:AA X:97 Y:4E P:EF SP:F1 PPU:123,129
C704  EA        NOP                             A:AA X:97 Y:4E P:EF SP:F1 PPU:138,129
C705  EA        NOP                             A:AA X:97 Y:4E P:EF SP:F1 PPU:144,129
C706  EA        NOP                             A:AA X:97 Y:4E P:EF SP:F1 PPU:150,129
C707  EA        NOP                             A:AA X:97 Y:4E P:EF SP:F1 PPU:156,129
C708  08        PHP                             A:AA X:97 Y:4E P:EF SP:F1 PPU:162,129
C709  48        PHA                             A:AA X:97 Y:4E P:EF SP:F0 PPU:171,129
C70A  A2 05     LDX                             A:AA X:97 Y:4E P:EF SP:EF PPU:180,129
C70C  68        PLA                             A:AA X:05 Y:4E P:6D SP:EF PPU:186,129
C70D  C9 55     CMP                             A:AA X:05 Y:4E P:ED SP:F0 PPU:198,129
C70F  F0 0A     BEQ                             A:AA X:05 Y:4E P:6D SP:F0 PPU:204,129
C711  C9 AA     CMP                             A:AA X:05 Y:4E P:6D SP:F0 PPU:210,129
C713  F0 06     BEQ                             A:AA X:05 Y:4E P:6F SP:F0 PPU:216,129
C71B  68        PLA                             A:AA X:05 Y:4E P:6F SP:F0 PPU:225,129
C71C  29 CB     AND                             A:FF X:05 Y:4E P:ED SP:F1 PPU:237,129
C71E  C9 00     CMP                             A:CB X:05 Y:4E P:ED SP:F1 PPU:243,129
C720  F0 06     BEQ                             A:CB X:05 Y:4E P:ED SP:F1 PPU:249,129
C722  C9 CB     CMP                             A:CB X:05 Y:4E P:ED SP:F1 PPU:255,129
C724  F0 02     BEQ                             A:CB X:05 Y:4E P:6F SP:F1 PPU:261,129
C728  C8        INY                             A:CB X:05 Y:4E P:6F SP:F1 PPU:270,129
C729  CA        DEX                             A:CB X:05 Y:4F P:6D SP:F1 PPU:276,129
C72A  D0 E0     BNE                             A:CB X:04 Y:4F P:6D SP:F1 PPU:282,129
C70C  68        PLA                             A:CB X:04 Y:4F P:6D SP:F1 PPU:291,129
C70D  C9 55     CMP                             A:AA X:04 Y:4F P:ED SP:F2 PPU:303,129
C70F  F0 0A     BEQ                             A:AA X:04 Y:4F P:6D SP:F2 PPU:309,129
C711  C9 AA     CMP                             A:AA X:04 Y:4F P:6D SP:F2 PPU:315,129
C713  F0 06     BEQ                             A:AA X:04 Y:4F P:6F SP:F2 PPU:321,129
C71B  68        PLA                             A:AA X:04 Y:4F P:6F SP:F2 PPU:330,129
C71C  29 CB     AND                             A:FF X:04 Y:4F P:ED SP:F3 PPU:  1,130
C71E  C9 00     CMP                             A:CB X:04 Y:4F P:ED SP:F3 PPU:  7,130
C720  F0 06     BEQ                             A:CB X:04 Y:4F P:ED SP:F3 PPU: 13,130
C722  C9 CB     CMP                             A:CB X:04 Y:4F P:ED SP:F3 PPU: 19,130
C724  F0 02     BEQ                             A:CB X:04 Y:4F P:6F SP:F3 PPU: 25,130
C728  C8        INY                             A:CB X:04 Y:4F P:6F SP:F3 PPU: 34,130
C729  CA        DEX                             A:CB X:04 Y:50 P:6D SP:F3 PPU: 40,130
C72A  D0 E0     BNE                             A:CB X:03 Y:50 P:6D SP:F3 PPU: 46,130
C70C  68        PLA                             A:CB X:03 Y:50 P:6D SP:F3 PPU: 55,130
C70D  C9 55     CMP                             A:AA X:03 Y:50 P:ED SP:F4 PPU: 67,130
C70F  F0 0A     BEQ                             A:AA X:03 Y:50 P:6D SP:F4 PPU: 73,130
C711  C9 AA     CMP                             A:AA X:03 Y:50 P:6D SP:F4 PPU: 79,130
C713  F0 06     BEQ                             A:AA X:03 Y:50 P:6F SP:F4 PPU: 85,130
C71B  68        PLA                             A:AA X:03 Y:50 P:6F SP:F4 PPU: 94,130
C71C  29 CB     AND                             A:FF X:03 Y:50 P:ED SP:F5 PPU:106,130
C71E  C9 00     CMP                             A:CB X:03 Y:50 P:ED SP:F5 PPU:112,130
C720  F0 06     BEQ                             A:CB X:03 Y:50 P:ED SP:F5 PPU:118,130
C722  C9 CB     CMP                             A:CB X:03 Y:50 P:ED SP:F5 PPU:124,130
C724  F0 02     BEQ                             A:CB X:03 Y:50 P:6F SP:F5 PPU:130,130
C728  C8        INY                             A:CB X:03 Y:50 P:6F SP:F5 PPU:139,130
C729  CA        DEX                             A:CB X:03 Y:51 P:6D SP:F5 PPU:145,130
C72A  D0 E0     BNE                             A:CB X:02 Y:51 P:6D SP:F5 PPU:151,130
C70C  68        PLA                             A:CB X:02 Y:51 P:6D SP:F5 PPU:160,130
C70D  C9 55     CMP                             A:AA X:02 Y:51 P:ED SP:F6 PPU:172,130
C70F  F0 0A     BEQ                             A:AA X:02 Y:51 P:6D SP:F6 PPU:178,130
C711  C9 AA     CMP                             A:AA X:02 Y:51 P:6D SP:F6 PPU:184,130
C713  F0 06     BEQ                             A:AA X:02 Y:51 P:6F SP:F6 PPU:190,130
C71B  68        PLA                             A:AA X:02 Y:51 P:6F SP:F6 PPU:199,130
C71C  29 CB     AND                             A:FF X:02 Y:51 P:ED SP:F7 PPU:211,130
C71E  C9 00     CMP                             A:CB X:02 Y:51 P:ED SP:F7 PPU:217,130
C720  F0 06     BEQ                             A:CB X:02 Y:51 P:ED SP:F7 PPU:223,130
C722  C9 CB     CMP                             A:CB X:02 Y:51 P:ED SP:F7 PPU:229,130
C724  F0 02     BEQ                             A:CB X:02 Y:51 P:6F SP:F7 PPU:235,130
C728  C8        INY                             A:CB X:02 Y:51 P:6F SP:F7 PPU:244,130
C729  CA        DEX                             A:CB X:02 Y:52 P:6D SP:F7 PPU:250,130
C72A  D0 E0     BNE                             A:CB X:01 Y:52 P:6D SP:F7 PPU:256,130
C70C  68        PLA                             A:CB X:01 Y:52 P:6D SP:F7 PPU:265,130
C70D  C9 55     CMP                             A:AA X:01 Y:52 P:ED SP:F8 PPU:277,130
C70F  F0 0A     BEQ                             A:AA X:01 Y:52 P:6D SP:F8 PPU:283,130
C711  C9 AA     CMP                             A:AA X:01 Y:52 P:6D SP:F8 PPU:289,130
C713  F0 06     BEQ                             A:AA X:01 Y:52 P:6F SP:F8 PPU:295,130
C71B  68        PLA                             A:AA X:01 Y:52 P:6F SP:F8 PPU:304,130
C71C  29 CB     AND                             A:FF X:01 Y:52 P:ED SP:F9 PPU:316,130
C71E  C9 00     CMP                             A:CB X:01 Y:52 P:ED SP:F9 PPU:322,130
C720  F0 06     BEQ                             A:CB X:01 Y:52 P:ED SP:F9 PPU:328,130
C722  C9 CB     CMP                             A:CB X:01 Y:52 P:ED SP:F9 PPU:334,130
C724  F0 02     BEQ                             A:CB X:01 Y:52 P:6F SP:F9 PPU:340,130
C728  C8        INY                             A:CB X:01 Y:52 P:6F SP:F9 PPU:  8,131
C729  CA        DEX                             A:CB X:01 Y:53 P:6D SP:F9 PPU: 14,131
C72A  D0 E0     BNE                             A:CB X:00 Y:53 P:6F SP:F9 PPU: 20,131
C72C  60        RTS                             A:CB X:00 Y:53 P:6F SP:F9 PPU: 26,131
C6AC  20 B7 C6  JSR                             A:CB X:00 Y:53 P:6F SP:FB PPU: 44,131
C6B7  A9 34     LDA                             A:CB X:00 Y:53 P:6F SP:F9 PPU: 62,131
C6B9  48        PHA                             A:34 X:00 Y:53 P:6D SP:F9 PPU: 68,131
C6BA  A9 55     LDA                             A:34 X:00 Y:53 P:6D SP:F8 PPU: 77,131
C6BC  28        PLP                             A:55 X:00 Y:53 P:6D SP:F8 PPU: 83,131
C6BD  04 A9     NOP                             A:55 X:00 Y:53 P:24 SP:F9 PPU: 95,131
C6BF  44 A9     NOP                             A:55 X:00 Y:53 P:24 SP:F9 PPU:104,131
C6C1  64 A9     NOP                             A:55 X:00 Y:53 P:24 SP:F9 PPU:113,131
C6C3  EA        NOP                             A:55 X:00 Y:53 P:24 SP:F9 PPU:122,131
C6C4  EA        NOP                             A:55 X:00 Y:53 P:24 SP:F9 PPU:128,131
C6C5  EA        NOP                             A:55 X:00 Y:53 P:24 SP:F9 PPU:134,131
C6C6  EA        NOP                             A:55 X:00 Y:53 P:24 SP:F9 PPU:140,131
C6C7  08        PHP                             A:55 X:00 Y:53 P:24 SP:F9 PPU:146,131
C6C8  48        PHA                             A:55 X:00 Y:53 P:24 SP:F8 PPU:155,131
C6C9  0C A9 A9  NOP                             A:55 X:00 Y:53 P:24 SP:F7 PPU:164,131
C6CC  EA        NOP                             A:55 X:00 Y:53 P:24 SP:F7 PPU:176,131
C6CD  EA        NOP                             A:55 X:00 Y:53 P:24 SP:F7 PPU:182,131
C6CE  EA        NOP                             A:55 X:00 Y:53 P:24 SP:F7 PPU:188,131
C6CF  EA        NOP                             A:55 X:00 Y:53 P:24 SP:F7 PPU:194,131
C6D0  08        PHP                             A:55 X:00 Y:53 P:24 SP:F7 PPU:200,131
C6D1  48        PHA                             A:55 X:00 Y:53 P:24 SP:F6 PPU:209,131
C6D2  14 A9     NOP                             A:55 X:00 Y:53 P:24 SP:F5 PPU:218,131
C6D4  34 A9     NOP                             A:55 X:00 Y:53 P:24 SP:F5 PPU:230,131
C6D6  54 A9     NOP                             A:55 X:00 Y:53 P:24 SP:F5 PPU:242,131
C6D8  74 A9     NOP                             A:55 X:00 Y:53 P:24 SP:F5 PPU:254,131
C6DA  D4 A9     NOP                             A:55 X:00 Y:53 P:24 SP:F5 PPU:266,131
C6DC  F4 A9     NOP                             A:55 X:00 Y:53 P:24 SP:F5 PPU:278,131
C6DE  EA        NOP                             A:55 X:00 Y:53 P:24 SP:F5 PPU:290,131
C6DF  EA        NOP                             A:55 X:00 Y:53 P:24 SP:F5 PPU:296,131
C6E0  EA        NOP                             A:55 X:00 Y:53 P:24 SP:F5 PPU:302,131
C6E1  EA        NOP                             A:55 X:00 Y:53 P:24 SP:F5 PPU:308,131
C6E2  08        PHP                             A:55 X:00 Y:53 P:24 SP:F5 PPU:314,131
C6E3  48        PHA                             A:55 X:00 Y:53 P:24 SP:F4 PPU:323,131
C6E4  1A        NOP                             A:55 X:00 Y:53 P:24 SP:F3 PPU:332,131
C6E5  3A        NOP                             A:55 X:00 Y:53 P:24 SP:F3 PPU:338,131
C6E6  5A        NOP                             A:55 X:00 Y:53 P:24 SP:F3 PPU:  3,132
C6E7  7A        NOP                             A:55 X:00 Y:53 P:24 SP:F3 PPU:  9,132
C6E8  DA        NOP                             A:55 X:00 Y:53 P:24 SP:F3 PPU: 15,132
C6E9  FA        NOP                             A:55 X:00 Y:53 P:24 SP:F3 PPU: 21,132
C6EA  80 89     NOP                             A:55 X:00 Y:53 P:24 SP:F3 PPU: 27,132
C6EC  EA        NOP                             A:55 X:00 Y:53 P:24 SP:F3 PPU: 33,132
C6ED  EA        NOP                             A:55 X:00 Y:53 P:24 SP:F3 PPU: 39,132
C6EE  EA        NOP                             A:55 X:00 Y:53 P:24 SP:F3 PPU: 45,132
C6EF  EA        NOP                             A:55 X:00 Y:53 P:24 SP:F3 PPU: 51,132
C6F0  08        PHP                             A:55 X:00 Y:53 P:24 SP:F3 PPU: 57,132
C6F1  48        PHA                             A:55 X:00 Y:53 P:24 SP:F2 PPU: 66,132
C6F2  1C A9 A9  NOP                             A:55 X:00 Y:53 P:24 SP:F1 PPU: 75,132
C6F5  3C A9 A9  NOP                             A:55 X:00 Y:53 P:24 SP:F1 PPU: 87,132
C6F8  5C A9 A9  NOP                             A:55 X:00 Y:53 P:24 SP:F1 PPU: 99,132
C6FB  7C A9 A9  NOP                             A:55 X:00 Y:53 P:24 SP:F1 PPU:111,132
C6FE  DC A9 A9  NOP                             A:55 X:00 Y:53 P:24 SP:F1 PPU:123,132
C701  FC A9 A9  NOP                             A:55 X:00 Y:53 P:24 SP:F1 PPU:135,132
C704  EA        NOP                             A:55 X:00 Y:53 P:24 SP:F1 PPU:147,132
C705  EA        NOP                             A:55 X:00 Y:53 P:24 SP:F1 PPU:153,132
C706  EA        NOP                             A:55 X:00 Y:53 P:24 SP:F1 PPU:159,132
C707  EA        NOP                             A:55 X:00 Y:53 P:24 SP:F1 PPU:165,132
C708  08        PHP                             A:55 X:00 Y:53 P:24 SP:F1 PPU:171,132
C709  48        PHA                             A:55 X:00 Y:53 P:24 SP:F0 PPU:180,132
C70A  A2 05     LDX                             A:55 X:00 Y:53 P:24 SP:EF PPU:189,132
C70C  68        PLA                             A:55 X:05 Y:53 P:24 SP:EF PPU:195,132
C70D  C9 55     CMP                             A:55 X:05 Y:53 P:24 SP:F0 PPU:207,132
C70F  F0 0A     BEQ                             A:55 X:05 Y:53 P:27 SP:F0 PPU:213,132
C71B  68        PLA                             A:55 X:05 Y:53 P:27 SP:F0 PPU:222,132
C71C  29 CB     AND                             A:34 X:05 Y:53 P:25 SP:F1 PPU:234,132
C71E  C9 00     CMP                             A:00 X:05 Y:53 P:27 SP:F1 PPU:240,132
C720  F0 06     BEQ                             A:00 X:05 Y:53 P:27 SP:F1 PPU:246,132
C728  C8        INY                             A:00 X:05 Y:53 P:27 SP:F1 PPU:255,132
C729  CA        DEX                             A:00 X:05 Y:54 P:25 SP:F1 PPU:261,132
C72A  D0 E0     BNE                             A:00 X:04 Y:54 P:25 SP:F1 PPU:267,132
C70C  68        PLA                             A:00 X:04 Y:54 P:25 SP:F1 PPU:276,132
C70D  C9 55     CMP                             A:55 X:04 Y:54 P:25 SP:F2 PPU:288,132
C70F  F0 0A     BEQ                             A:55 X:04 Y:54 P:27 SP:F2 PPU:294,132
C71B  68        PLA                             A:55 X:04 Y:54 P:27 SP:F2 PPU:303,132
C71C  29 CB     AND                             A:34 X:04 Y:54 P:25 SP:F3 PPU:315,132
C71E  C9 00     CMP                             A:00 X:04 Y:54 P:27 SP:F3 PPU:321,132
C720  F0 06     BEQ                             A:00 X:04 Y:54 P:27 SP:F3 PPU:327,132
C728  C8        INY                             A:00 X:04 Y:54 P:27 SP:F3 PPU:336,132
C729  CA        DEX                             A:00 X:04 Y:55 P:25 SP:F3 PPU:  1,133
C72A  D0 E0     BNE                             A:00 X:03 Y:55 P:25 SP:F3 PPU:  7,133
C70C  68        PLA                             A:00 X:03 Y:55 P:25 SP:F3 PPU: 16,133
C70D  C9 55     CMP                             A:55 X:03 Y:55 P:25 SP:F4 PPU: 28,133
C70F  F0 0A     BEQ                             A:55 X:03 Y:55 P:27 SP:F4 PPU: 34,133
C71B  68        PLA                             A:55 X:03 Y:55 P:27 SP:F4 PPU: 43,133
C71C  29 CB     AND                             A:34 X:03 Y:55 P:25 SP:F5 PPU: 55,133
C71E  C9 00     CMP                             A:00 X:03 Y:55 P:27 SP:F5 PPU: 61,133
C720  F0 06     BEQ                             A:00 X:03 Y:55 P:27 SP:F5 PPU: 67,133
C728  C8        INY                             A:00 X:03 Y:55 P:27 SP:F5 PPU: 76,133
C729  CA        DEX                             A:00 X:03 Y:56 P:25 SP:F5 PPU: 82,133
C72A  D0 E0     BNE                             A:00 X:02 Y:56 P:25 SP:F5 PPU: 88,133
C70C  68        PLA                             A:00 X:02 Y:56 P:25 SP:F5 PPU: 97,133
C70D  C9 55     CMP                             A:55 X:02 Y:56 P:25 SP:F6 PPU:109,133
C70F  F0 0A     BEQ                             A:55 X:02 Y:56 P:27 SP:F6 PPU:115,133
C71B  68        PLA                             A:55 X:02 Y:56 P:27 SP:F6 PPU:124,133
C71C  29 CB     AND                             A:34 X:02 Y:56 P:25 SP:F7 PPU:136,133
C71E  C9 00     CMP                             A:00 X:02 Y:56 P:27 SP:F7 PPU:142,133
C720  F0 06     BEQ                             A:00 X:02 Y:56 P:27 SP:F7 PPU:148,133
C728  C8        INY                             A:00 X:02 Y:56 P:27 SP:F7 PPU:157,133
C729  CA        DEX                             A:00 X:02 Y:57 P:25 SP:F7 PPU:163,133
C72A  D0 E0     BNE                             A:00 X:01 Y:57 P:25 SP:F7 PPU:169,133
C70C  68        PLA                             A:00 X:01 Y:57 P:25 SP:F7 PPU:178,133
C70D  C9 55     CMP                             A:55 X:01 Y:57 P:25 SP:F8 PPU:190,133
C70F  F0 0A     BEQ                             A:55 X:01 Y:57 P:27 SP:F8 PPU:196,133
C71B  68        PLA                             A:55 X:01 Y:57 P:27 SP:F8 PPU:205,133
C71C  29 CB     AND                             A:34 X:01 Y:57 P:25 SP:F9 PPU:217,133
C71E  C9 00     CMP                             A:00 X:01 Y:57 P:27 SP:F9 PPU:223,133
C720  F0 06     BEQ                             A:00 X:01 Y:57 P:27 SP:F9 PPU:229,133
C728  C8        INY                             A:00 X:01 Y:57 P:27 SP:F9 PPU:238,133
C729  CA        DEX                             A:00 X:01 Y:58 P:25 SP:F9 PPU:244,133
C72A  D0 E0     BNE                             A:00 X:00 Y:58 P:27 SP:F9 PPU:250,133
C72C  60        RTS                             A:00 X:00 Y:58 P:27 SP:F9 PPU:256,133
C6AF  60        RTS                             A:00 X:00 Y:58 P:27 SP:FB PPU:274,133
C632  20 1E E5  JSR                             A:00 X:00 Y:58 P:27 SP:FD PPU:292,133
E51E  A9 55     LDA                             A:00 X:00 Y:58 P:27 SP:FB PPU:310,133
E520  8D 80 05  STA                             A:55 X:00 Y:58 P:25 SP:FB PPU:316,133
E523  A9 AA     LDA                             A:55 X:00 Y:58 P:25 SP:FB PPU:328,133
E525  8D 32 04  STA                             A:AA X:00 Y:58 P:A5 SP:FB PPU:334,133
E528  A9 80     LDA                             A:AA X:00 Y:58 P:A5 SP:FB PPU:  5,134
E52A  85 43     STA                             A:80 X:00 Y:58 P:A5 SP:FB PPU: 11,134
E52C  A9 05     LDA                             A:80 X:00 Y:58 P:A5 SP:FB PPU: 20,134
E52E  85 44     STA                             A:05 X:00 Y:58 P:25 SP:FB PPU: 26,134
E530  A9 32     LDA                             A:05 X:00 Y:58 P:25 SP:FB PPU: 35,134
E532  85 45     STA                             A:32 X:00 Y:58 P:25 SP:FB PPU: 41,134
E534  A9 04     LDA                             A:32 X:00 Y:58 P:25 SP:FB PPU: 50,134
E536  85 46     STA                             A:04 X:00 Y:58 P:25 SP:FB PPU: 56,134
E538  A2 03     LDX                             A:04 X:00 Y:58 P:25 SP:FB PPU: 65,134
E53A  A0 77     LDY                             A:04 X:03 Y:58 P:25 SP:FB PPU: 71,134
E53C  A9 FF     LDA                             A:04 X:03 Y:77 P:25 SP:FB PPU: 77,134
E53E  85 01     STA                             A:FF X:03 Y:77 P:A5 SP:FB PPU: 83,134
E540  24 01     BIT                             A:FF X:03 Y:77 P:A5 SP:FB PPU: 92,134
E542  38        SEC                             A:FF X:03 Y:77 P:E5 SP:FB PPU:101,134
E543  A9 00     LDA                             A:FF X:03 Y:77 P:E5 SP:FB PPU:107,134
E545  A3 40     LAX                             A:00 X:03 Y:77 P:67 SP:FB PPU:113,134
E547  EA        NOP                             A:55 X:55 Y:77 P:65 SP:FB PPU:131,134
E548  EA        NOP                             A:55 X:55 Y:77 P:65 SP:FB PPU:137,134
E549  EA        NOP                             A:55 X:55 Y:77 P:65 SP:FB PPU:143,134
E54A  EA        NOP                             A:55 X:55 Y:77 P:65 SP:FB PPU:149,134
E54B  F0 12     BEQ                             A:55 X:55 Y:77 P:65 SP:FB PPU:155,134
E54D  30 10     BMI                             A:55 X:55 Y:77 P:65 SP:FB PPU:161,134
E54F  50 0E     BVC                             A:55 X:55 Y:77 P:65 SP:FB PPU:167,134
E551  90 0C     BCC                             A:55 X:55 Y:77 P:65 SP:FB PPU:173,134
E553  C9 55     CMP                             A:55 X:55 Y:77 P:65 SP:FB PPU:179,134
E555  D0 08     BNE                             A:55 X:55 Y:77 P:67 SP:FB PPU:185,134
E557  E0 55     CPX                             A:55 X:55 Y:77 P:67 SP:FB PPU:191,134
E559  D0 04     BNE                             A:55 X:55 Y:77 P:67 SP:FB PPU:197,134
E55B  C0 77     CPY                             A:55 X:55 Y:77 P:67 SP:FB PPU:203,134
E55D  F0 04     BEQ                             A:55 X:55 Y:77 P:67 SP:FB PPU:209,134
E563  A2 05     LDX                             A:55 X:55 Y:77 P:67 SP:FB PPU:218,134
E565  A0 33     LDY                             A:55 X:05 Y:77 P:65 SP:FB PPU:224,134
E567  B8        CLV                             A:55 X:05 Y:33 P:65 SP:FB PPU:230,134
E568  18        CLC                             A:55 X:05 Y:33 P:25 SP:FB PPU:236,134
E569  A9 00     LDA                             A:55 X:05 Y:33 P:24 SP:FB PPU:242,134
E56B  A3 40     LAX                             A:00 X:05 Y:33 P:26 SP:FB PPU:248,134
E56D  EA        NOP                             A:AA X:AA Y:33 P:A4 SP:FB PPU:266,134
E56E  EA        NOP                             A:AA X:AA Y:33 P:A4 SP:FB PPU:272,134
E56F  EA        NOP                             A:AA X:AA Y:33 P:A4 SP:FB PPU:278,134
E570  EA        NOP                             A:AA X:AA Y:33 P:A4 SP:FB PPU:284,134
E571  F0 12     BEQ                             A:AA X:AA Y:33 P:A4 SP:FB PPU:290,134
E573  10 10     BPL                             A:AA X:AA Y:33 P:A4 SP:FB PPU:296,134
E575  70 0E     BVS                             A:AA X:AA Y:33 P:A4 SP:FB PPU:302,134
E577  B0 0C     BCS                             A:AA X:AA Y:33 P:A4 SP:FB PPU:308,134
E579  C9 AA     CMP                             A:AA X:AA Y:33 P:A4 SP:FB PPU:314,134
E57B  D0 08     BNE                             A:AA X:AA Y:33 P:27 SP:FB PPU:320,134
E57D  E0 AA     CPX                             A:AA X:AA Y:33 P:27 SP:FB PPU:326,134
E57F  D0 04     BNE                             A:AA X:AA Y:33 P:27 SP:FB PPU:332,134
E581  C0 33     CPY                             A:AA X:AA Y:33 P:27 SP:FB PPU:338,134
E583  F0 04     BEQ                             A:AA X:AA Y:33 P:27 SP:FB PPU:  3,135
E589  A9 87     LDA                             A:AA X:AA Y:33 P:27 SP:FB PPU: 12,135
E58B  85 67     STA                             A:87 X:AA Y:33 P:A5 SP:FB PPU: 18,135
E58D  A9 32     LDA                             A:87 X:AA Y:33 P:A5 SP:FB PPU: 27,135
E58F  85 68     STA                             A:32 X:AA Y:33 P:25 SP:FB PPU: 33,135
E591  A0 57     LDY                             A:32 X:AA Y:33 P:25 SP:FB PPU: 42,135
E593  24 01     BIT                             A:32 X:AA Y:57 P:25 SP:FB PPU: 48,135
E595  38        SEC                             A:32 X:AA Y:57 P:E5 SP:FB PPU: 57,135
E596  A9 00     LDA                             A:32 X:AA Y:57 P:E5 SP:FB PPU: 63,135
E598  A7 67     LAX                             A:00 X:AA Y:57 P:67 SP:FB PPU: 69,135
E59A  EA        NOP                             A:87 X:87 Y:57 P:E5 SP:FB PPU: 78,135
E59B  EA        NOP                             A:87 X:87 Y:57 P:E5 SP:FB PPU: 84,135
E59C  EA        NOP                             A:87 X:87 Y:57 P:E5 SP:FB PPU: 90,135
E59D  EA        NOP                             A:87 X:87 Y:57 P:E5 SP:FB PPU: 96,135
E59E  F0 12     BEQ                             A:87 X:87 Y:57 P:E5 SP:FB PPU:102,135
E5A0  10 10     BPL                             A:87 X:87 Y:57 P:E5 SP:FB PPU:108,135
E5A2  50 0E     BVC                             A:87 X:87 Y:57 P:E5 SP:FB PPU:114,135
E5A4  90 0C     BCC                             A:87 X:87 Y:57 P:E5 SP:FB PPU:120,135
E5A6  C9 87     CMP                             A:87 X:87 Y:57 P:E5 SP:FB PPU:126,135
E5A8  D0 08     BNE                             A:87 X:87 Y:57 P:67 SP:FB PPU:132,135
E5AA  E0 87     CPX                             A:87 X:87 Y:57 P:67 SP:FB PPU:138,135
E5AC  D0 04     BNE                             A:87 X:87 Y:57 P:67 SP:FB PPU:144,135
E5AE  C0 57     CPY                             A:87 X:87 Y:57 P:67 SP:FB PPU:150,135
E5B0  F0 04     BEQ                             A:87 X:87 Y:57 P:67 SP:FB PPU:156,135
E5B6  A0 53     LDY                             A:87 X:87 Y:57 P:67 SP:FB PPU:165,135
E5B8  B8        CLV                             A:87 X:87 Y:53 P:65 SP:FB PPU:171,135
E5B9  18        CLC                             A:87 X:87 Y:53 P:25 SP:FB PPU:177,135
E5BA  A9 00     LDA                             A:87 X:87 Y:53 P:24 SP:FB PPU:183,135
E5BC  A7 68     LAX                             A:00 X:87 Y:53 P:26 SP:FB PPU:189,135
E5BE  EA        NOP                             A:32 X:32 Y:53 P:24 SP:FB PPU:198,135
E5BF  EA        NOP                             A:32 X:32 Y:53 P:24 SP:FB PPU:204,135
E5C0  EA        NOP                             A:32 X:32 Y:53 P:24 SP:FB PPU:210,135
E5C1  EA        NOP                             A:32 X:32 Y:53 P:24 SP:FB PPU:216,135
E5C2  F0 12     BEQ                             A:32 X:32 Y:53 P:24 SP:FB PPU:222,135
E5C4  30 10     BMI                             A:32 X:32 Y:53 P:24 SP:FB PPU:228,135
E5C6  70 0E     BVS                             A:32 X:32 Y:53 P:24 SP:FB PPU:234,135
E5C8  B0 0C     BCS                             A:32 X:32 Y:53 P:24 SP:FB PPU:240,135
E5CA  C9 32     CMP                             A:32 X:32 Y:53 P:24 SP:FB PPU:246,135
E5CC  D0 08     BNE                             A:32 X:32 Y:53 P:27 SP:FB PPU:252,135
E5CE  E0 32     CPX                             A:32 X:32 Y:53 P:27 SP:FB PPU:258,135
E5D0  D0 04     BNE                             A:32 X:32 Y:53 P:27 SP:FB PPU:264,135
E5D2  C0 53     CPY                             A:32 X:32 Y:53 P:27 SP:FB PPU:270,135
E5D4  F0 04     BEQ                             A:32 X:32 Y:53 P:27 SP:FB PPU:276,135
E5DA  A9 87     LDA                             A:32 X:32 Y:53 P:27 SP:FB PPU:285,135
E5DC  8D 77 05  STA                             A:87 X:32 Y:53 P:A5 SP:FB PPU:291,135
E5DF  A9 32     LDA                             A:87 X:32 Y:53 P:A5 SP:FB PPU:303,135
E5E1  8D 78 05  STA                             A:32 X:32 Y:53 P:25 SP:FB PPU:309,135
E5E4  A0 57     LDY                             A:32 X:32 Y:53 P:25 SP:FB PPU:321,135
E5E6  24 01     BIT                             A:32 X:32 Y:57 P:25 SP:FB PPU:327,135
E5E8  38        SEC                             A:32 X:32 Y:57 P:E5 SP:FB PPU:336,135
E5E9  A9 00     LDA                             A:32 X:32 Y:57 P:E5 SP:FB PPU:  1,136
E5EB  AF 77 05  LAX                             A:00 X:32 Y:57 P:67 SP:FB PPU:  7,136
E5EE  EA        NOP                             A:87 X:87 Y:57 P:E5 SP:FB PPU: 19,136
E5EF  EA        NOP                             A:87 X:87 Y:57 P:E5 SP:FB PPU: 25,136
E5F0  EA        NOP                             A:87 X:87 Y:57 P:E5 SP:FB PPU: 31,136
E5F1  EA        NOP                             A:87 X:87 Y:57 P:E5 SP:FB PPU: 37,136
E5F2  F0 12     BEQ                             A:87 X:87 Y:57 P:E5 SP:FB PPU: 43,136
E5F4  10 10     BPL                             A:87 X:87 Y:57 P:E5 SP:FB PPU: 49,136
E5F6  50 0E     BVC                             A:87 X:87 Y:57 P:E5 SP:FB PPU: 55,136
E5F8  90 0C     BCC                             A:87 X:87 Y:57 P:E5 SP:FB PPU: 61,136
E5FA  C9 87     CMP                             A:87 X:87 Y:57 P:E5 SP:FB PPU: 67,136
E5FC  D0 08     BNE                             A:87 X:87 Y:57 P:67 SP:FB PPU: 73,136
E5FE  E0 87     CPX                             A:87 X:87 Y:57 P:67 SP:FB PPU: 79,136
E600  D0 04     BNE                             A:87 X:87 Y:57 P:67 SP:FB PPU: 85,136
E602  C0 57     CPY                             A:87 X:87 Y:57 P:67 SP:FB PPU: 91,136
E604  F0 04     BEQ                             A:87 X:87 Y:57 P:67 SP:FB PPU: 97,136
E60A  A0 53     LDY                             A:87 X:87 Y:57 P:67 SP:FB PPU:106,136
E60C  B8        CLV                             A:87 X:87 Y:53 P:65 SP:FB PPU:112,136
E60D  18        CLC                             A:87 X:87 Y:53 P:25 SP:FB PPU:118,136
E60E  A9 00     LDA                             A:87 X:87 Y:53 P:24 SP:FB PPU:124,136
E610  AF 78 05  LAX                             A:00 X:87 Y:53 P:26 SP:FB PPU:130,136
E613  EA        NOP                             A:32 X:32 Y:53 P:24 SP:FB PPU:142,136
E614  EA        NOP                             A:32 X:32 Y:53 P:24 SP:FB PPU:148,136
E615  EA        NOP                             A:32 X:32 Y:53 P:24 SP:FB PPU:154,136
E616  EA        NOP                             A:32 X:32 Y:53 P:24 SP:FB PPU:160,136
E617  F0 12     BEQ                             A:32 X:32 Y:53 P:24 SP:FB PPU:166,136
E619  30 10     BMI                             A:32 X:32 Y:53 P:24 SP:FB PPU:172,136
E61B  70 0E     BVS                             A:32 X:32 Y:53 P:24 SP:FB PPU:178,136
E61D  B0 0C     BCS                             A:32 X:32 Y:53 P:24 SP:FB PPU:184,136
E61F  C9 32     CMP                             A:32 X:32 Y:53 P:24 SP:FB PPU:190,136
E621  D0 08     BNE                             A:32 X:32 Y:53 P:27 SP:FB PPU:196,136
E623  E0 32     CPX                             A:32 X:32 Y:53 P:27 SP:FB PPU:202,136
E625  D0 04     BNE                             A:32 X:32 Y:53 P:27 SP:FB PPU:208,136
E627  C0 53     CPY                             A:32 X:32 Y:53 P:27 SP:FB PPU:214,136
E629  F0 04     BEQ                             A:32 X:32 Y:53 P:27 SP:FB PPU:220,136
E62F  A9 FF     LDA                             A:32 X:32 Y:53 P:27 SP:FB PPU:229,136
E631  85 43     STA                             A:FF X:32 Y:53 P:A5 SP:FB PPU:235,136
E633  A9 04     LDA                             A:FF X:32 Y:53 P:A5 SP:FB PPU:244,136
E635  85 44     STA                             A:04 X:32 Y:53 P:25 SP:FB PPU:250,136
E637  A9 32     LDA                             A:04 X:32 Y:53 P:25 SP:FB PPU:259,136
E639  85 45     STA                             A:32 X:32 Y:53 P:25 SP:FB PPU:265,136
E63B  A9 04     LDA                             A:32 X:32 Y:53 P:25 SP:FB PPU:274,136
E63D  85 46     STA                             A:04 X:32 Y:53 P:25 SP:FB PPU:280,136
E63F  A9 55     LDA                             A:04 X:32 Y:53 P:25 SP:FB PPU:289,136
E641  8D 80 05  STA                             A:55 X:32 Y:53 P:25 SP:FB PPU:295,136
E644  A9 AA     LDA                             A:55 X:32 Y:53 P:25 SP:FB PPU:307,136
E646  8D 32 04  STA                             A:AA X:32 Y:53 P:A5 SP:FB PPU:313,136
E649  A2 03     LDX                             A:AA X:32 Y:53 P:A5 SP:FB PPU:325,136
E64B  A0 81     LDY                             A:AA X:03 Y:53 P:25 SP:FB PPU:331,136
E64D  24 01     BIT                             A:AA X:03 Y:81 P:A5 SP:FB PPU:337,136
E64F  38        SEC                             A:AA X:03 Y:81 P:E5 SP:FB PPU:  5,137
E650  A9 00     LDA                             A:AA X:03 Y:81 P:E5 SP:FB PPU: 11,137
E652  B3 43     LAX                             A:00 X:03 Y:81 P:67 SP:FB PPU: 17,137
E654  EA        NOP                             A:55 X:55 Y:81 P:65 SP:FB PPU: 35,137
E655  EA        NOP                             A:55 X:55 Y:81 P:65 SP:FB PPU: 41,137
E656  EA        NOP                             A:55 X:55 Y:81 P:65 SP:FB PPU: 47,137
E657  EA        NOP                             A:55 X:55 Y:81 P:65 SP:FB PPU: 53,137
E658  F0 12     BEQ                             A:55 X:55 Y:81 P:65 SP:FB PPU: 59,137
E65A  30 10     BMI                             A:55 X:55 Y:81 P:65 SP:FB PPU: 65,137
E65C  50 0E     BVC                             A:55 X:55 Y:81 P:65 SP:FB PPU: 71,137
E65E  90 0C     BCC                             A:55 X:55 Y:81 P:65 SP:FB PPU: 77,137
E660  C9 55     CMP                             A:55 X:55 Y:81 P:65 SP:FB PPU: 83,137
E662  D0 08     BNE                             A:55 X:55 Y:81 P:67 SP:FB PPU: 89,137
E664  E0 55     CPX                             A:55 X:55 Y:81 P:67 SP:FB PPU: 95,137
E666  D0 04     BNE                             A:55 X:55 Y:81 P:67 SP:FB PPU:101,137
E668  C0 81     CPY                             A:55 X:55 Y:81 P:67 SP:FB PPU:107,137
E66A  F0 04     BEQ                             A:55 X:55 Y:81 P:67 SP:FB PPU:113,137
E670  A2 05     LDX                             A:55 X:55 Y:81 P:67 SP:FB PPU:122,137
E672  A0 00     LDY                             A:55 X:05 Y:81 P:65 SP:FB PPU:128,137
E674  B8        CLV                             A:55 X:05 Y:00 P:67 SP:FB PPU:134,137
E675  18        CLC                             A:55 X:05 Y:00 P:27 SP:FB PPU:140,137
E676  A9 00     LDA                             A:55 X:05 Y:00 P:26 SP:FB PPU:146,137
E678  B3 45     LAX                             A:00 X:05 Y:00 P:26 SP:FB PPU:152,137
E67A  EA        NOP                             A:AA X:AA Y:00 P:A4 SP:FB PPU:167,137
E67B  EA        NOP                             A:AA X:AA Y:00 P:A4 SP:FB PPU:173,137
E67C  EA        NOP                             A:AA X:AA Y:00 P:A4 SP:FB PPU:179,137
E67D  EA        NOP                             A:AA X:AA Y:00 P:A4 SP:FB PPU:185,137
E67E  F0 12     BEQ                             A:AA X:AA Y:00 P:A4 SP:FB PPU:191,137
E680  10 10     BPL                             A:AA X:AA Y:00 P:A4 SP:FB PPU:197,137
E682  70 0E     BVS                             A:AA X:AA Y:00 P:A4 SP:FB PPU:203,137
E684  B0 0C     BCS                             A:AA X:AA Y:00 P:A4 SP:FB PPU:209,137
E686  C9 AA     CMP                             A:AA X:AA Y:00 P:A4 SP:FB PPU:215,137
E688  D0 08     BNE                             A:AA X:AA Y:00 P:27 SP:FB PPU:221,137
E68A  E0 AA     CPX                             A:AA X:AA Y:00 P:27 SP:FB PPU:227,137
E68C  D0 04     BNE                             A:AA X:AA Y:00 P:27 SP:FB PPU:233,137
E68E  C0 00     CPY                             A:AA X:AA Y:00 P:27 SP:FB PPU:239,137
E690  F0 04     BEQ                             A:AA X:AA Y:00 P:27 SP:FB PPU:245,137
E696  A9 87     LDA                             A:AA X:AA Y:00 P:27 SP:FB PPU:254,137
E698  85 67     STA                             A:87 X:AA Y:00 P:A5 SP:FB PPU:260,137
E69A  A9 32     LDA                             A:87 X:AA Y:00 P:A5 SP:FB PPU:269,137
E69C  85 68     STA                             A:32 X:AA Y:00 P:25 SP:FB PPU:275,137
E69E  A0 57     LDY                             A:32 X:AA Y:00 P:25 SP:FB PPU:284,137
E6A0  24 01     BIT                             A:32 X:AA Y:57 P:25 SP:FB PPU:290,137
E6A2  38        SEC                             A:32 X:AA Y:57 P:E5 SP:FB PPU:299,137
E6A3  A9 00     LDA                             A:32 X:AA Y:57 P:E5 SP:FB PPU:305,137
E6A5  B7 10     LAX                             A:00 X:AA Y:57 P:67 SP:FB PPU:311,137
E6A7  EA        NOP                             A:87 X:87 Y:57 P:E5 SP:FB PPU:323,137
E6A8  EA        NOP                             A:87 X:87 Y:57 P:E5 SP:FB PPU:329,137
E6A9  EA        NOP                             A:87 X:87 Y:57 P:E5 SP:FB PPU:335,137
E6AA  EA        NOP                             A:87 X:87 Y:57 P:E5 SP:FB PPU:  0,138
E6AB  F0 12     BEQ                             A:87 X:87 Y:57 P:E5 SP:FB PPU:  6,138
E6AD  10 10     BPL                             A:87 X:87 Y:57 P:E5 SP:FB PPU: 12,138
E6AF  50 0E     BVC                             A:87 X:87 Y:57 P:E5 SP:FB PPU: 18,138
E6B1  90 0C     BCC                             A:87 X:87 Y:57 P:E5 SP:FB PPU: 24,138
E6B3  C9 87     CMP                             A:87 X:87 Y:57 P:E5 SP:FB PPU: 30,138
E6B5  D0 08     BNE                             A:87 X:87 Y:57 P:67 SP:FB PPU: 36,138
E6B7  E0 87     CPX                             A:87 X:87 Y:57 P:67 SP:FB PPU: 42,138
E6B9  D0 04     BNE                             A:87 X:87 Y:57 P:67 SP:FB PPU: 48,138
E6BB  C0 57     CPY                             A:87 X:87 Y:57 P:67 SP:FB PPU: 54,138
E6BD  F0 04     BEQ                             A:87 X:87 Y:57 P:67 SP:FB PPU: 60,138
E6C3  A0 FF     LDY                             A:87 X:87 Y:57 P:67 SP:FB PPU: 69,138
E6C5  B8        CLV                             A:87 X:87 Y:FF P:E5 SP:FB PPU: 75,138
E6C6  18        CLC                             A:87 X:87 Y:FF P:A5 SP:FB PPU: 81,138
E6C7  A9 00     LDA                             A:87 X:87 Y:FF P:A4 SP:FB PPU: 87,138
E6C9  B7 69     LAX                             A:00 X:87 Y:FF P:26 SP:FB PPU: 93,138
E6CB  EA        NOP                             A:32 X:32 Y:FF P:24 SP:FB PPU:105,138
E6CC  EA        NOP                             A:32 X:32 Y:FF P:24 SP:FB PPU:111,138
E6CD  EA        NOP                             A:32 X:32 Y:FF P:24 SP:FB PPU:117,138
E6CE  EA        NOP                             A:32 X:32 Y:FF P:24 SP:FB PPU:123,138
E6CF  F0 12     BEQ                             A:32 X:32 Y:FF P:24 SP:FB PPU:129,138
E6D1  30 10     BMI                             A:32 X:32 Y:FF P:24 SP:FB PPU:135,138
E6D3  70 0E     BVS                             A:32 X:32 Y:FF P:24 SP:FB PPU:141,138
E6D5  B0 0C     BCS                             A:32 X:32 Y:FF P:24 SP:FB PPU:147,138
E6D7  C9 32     CMP                             A:32 X:32 Y:FF P:24 SP:FB PPU:153,138
E6D9  D0 08     BNE                             A:32 X:32 Y:FF P:27 SP:FB PPU:159,138
E6DB  E0 32     CPX                             A:32 X:32 Y:FF P:27 SP:FB PPU:165,138
E6DD  D0 04     BNE                             A:32 X:32 Y:FF P:27 SP:FB PPU:171,138
E6DF  C0 FF     CPY                             A:32 X:32 Y:FF P:27 SP:FB PPU:177,138
E6E1  F0 04     BEQ                             A:32 X:32 Y:FF P:27 SP:FB PPU:183,138
E6E7  A9 87     LDA                             A:32 X:32 Y:FF P:27 SP:FB PPU:192,138
E6E9  8D 87 05  STA                             A:87 X:32 Y:FF P:A5 SP:FB PPU:198,138
E6EC  A9 32     LDA                             A:87 X:32 Y:FF P:A5 SP:FB PPU:210,138
E6EE  8D 88 05  STA                             A:32 X:32 Y:FF P:25 SP:FB PPU:216,138
E6F1  A0 30     LDY                             A:32 X:32 Y:FF P:25 SP:FB PPU:228,138
E6F3  24 01     BIT                             A:32 X:32 Y:30 P:25 SP:FB PPU:234,138
E6F5  38        SEC                             A:32 X:32 Y:30 P:E5 SP:FB PPU:243,138
E6F6  A9 00     LDA                             A:32 X:32 Y:30 P:E5 SP:FB PPU:249,138
E6F8  BF 57 05  LAX                             A:00 X:32 Y:30 P:67 SP:FB PPU:255,138
E6FB  EA        NOP                             A:87 X:87 Y:30 P:E5 SP:FB PPU:267,138
E6FC  EA        NOP                             A:87 X:87 Y:30 P:E5 SP:FB PPU:273,138
E6FD  EA        NOP                             A:87 X:87 Y:30 P:E5 SP:FB PPU:279,138
E6FE  EA        NOP                             A:87 X:87 Y:30 P:E5 SP:FB PPU:285,138
E6FF  F0 12     BEQ                             A:87 X:87 Y:30 P:E5 SP:FB PPU:291,138
E701  10 10     BPL                             A:87 X:87 Y:30 P:E5 SP:FB PPU:297,138
E703  50 0E     BVC                             A:87 X:87 Y:30 P:E5 SP:FB PPU:303,138
E705  90 0C     BCC                             A:87 X:87 Y:30 P:E5 SP:FB PPU:309,138
E707  C9 87     CMP                             A:87 X:87 Y:30 P:E5 SP:FB PPU:315,138
E709  D0 08     BNE                             A:87 X:87 Y:30 P:67 SP:FB PPU:321,138
E70B  E0 87     CPX                             A:87 X:87 Y:30 P:67 SP:FB PPU:327,138
E70D  D0 04     BNE                             A:87 X:87 Y:30 P:67 SP:FB PPU:333,138
E70F  C0 30     CPY                             A:87 X:87 Y:30 P:67 SP:FB PPU:339,138
E711  F0 04     BEQ                             A:87 X:87 Y:30 P:67 SP:FB PPU:  4,139
E717  A0 40     LDY                             A:87 X:87 Y:30 P:67 SP:FB PPU: 13,139
E719  B8        CLV                             A:87 X:87 Y:40 P:65 SP:FB PPU: 19,139
E71A  18        CLC                             A:87 X:87 Y:40 P:25 SP:FB PPU: 25,139
E71B  A9 00     LDA                             A:87 X:87 Y:40 P:24 SP:FB PPU: 31,139
E71D  BF 48 05  LAX                             A:00 X:87 Y:40 P:26 SP:FB PPU: 37,139
E720  EA        NOP                             A:32 X:32 Y:40 P:24 SP:FB PPU: 49,139
E721  EA        NOP                             A:32 X:32 Y:40 P:24 SP:FB PPU: 55,139
E722  EA        NOP                             A:32 X:32 Y:40 P:24 SP:FB PPU: 61,139
E723  EA        NOP                             A:32 X:32 Y:40 P:24 SP:FB PPU: 67,139
E724  F0 12     BEQ                             A:32 X:32 Y:40 P:24 SP:FB PPU: 73,139
E726  30 10     BMI                             A:32 X:32 Y:40 P:24 SP:FB PPU: 79,139
E728  70 0E     BVS                             A:32 X:32 Y:40 P:24 SP:FB PPU: 85,139
E72A  B0 0C     BCS                             A:32 X:32 Y:40 P:24 SP:FB PPU: 91,139
E72C  C9 32     CMP                             A:32 X:32 Y:40 P:24 SP:FB PPU: 97,139
E72E  D0 08     BNE                             A:32 X:32 Y:40 P:27 SP:FB PPU:103,139
E730  E0 32     CPX                             A:32 X:32 Y:40 P:27 SP:FB PPU:109,139
E732  D0 04     BNE                             A:32 X:32 Y:40 P:27 SP:FB PPU:115,139
E734  C0 40     CPY                             A:32 X:32 Y:40 P:27 SP:FB PPU:121,139
E736  F0 04     BEQ                             A:32 X:32 Y:40 P:27 SP:FB PPU:127,139
E73C  60        RTS                             A:32 X:32 Y:40 P:27 SP:FB PPU:136,139
C635  20 3D E7  JSR                             A:32 X:32 Y:40 P:27 SP:FD PPU:154,139
E73D  A9 C0     LDA                             A:32 X:32 Y:40 P:27 SP:FB PPU:172,139
E73F  85 01     STA                             A:C0 X:32 Y:40 P:A5 SP:FB PPU:178,139
E741  A9 00     LDA                             A:C0 X:32 Y:40 P:A5 SP:FB PPU:187,139
E743  8D 89 04  STA                             A:00 X:32 Y:40 P:27 SP:FB PPU:193,139
E746  A9 89     LDA                             A:00 X:32 Y:40 P:27 SP:FB PPU:205,139
E748  85 60     STA                             A:89 X:32 Y:40 P:A5 SP:FB PPU:211,139
E74A  A9 04     LDA                             A:89 X:32 Y:40 P:A5 SP:FB PPU:220,139
E74C  85 61     STA                             A:04 X:32 Y:40 P:25 SP:FB PPU:226,139
E74E  A0 44     LDY                             A:04 X:32 Y:40 P:25 SP:FB PPU:235,139
E750  A2 17     LDX                             A:04 X:32 Y:44 P:25 SP:FB PPU:241,139
E752  A9 3E     LDA                             A:04 X:17 Y:44 P:25 SP:FB PPU:247,139
E754  24 01     BIT                             A:3E X:17 Y:44 P:25 SP:FB PPU:253,139
E756  18        CLC                             A:3E X:17 Y:44 P:E7 SP:FB PPU:262,139
E757  83 49     SAX                             A:3E X:17 Y:44 P:E6 SP:FB PPU:268,139
E759  EA        NOP                             A:3E X:17 Y:44 P:E6 SP:FB PPU:286,139
E75A  EA        NOP                             A:3E X:17 Y:44 P:E6 SP:FB PPU:292,139
E75B  EA        NOP                             A:3E X:17 Y:44 P:E6 SP:FB PPU:298,139
E75C  EA        NOP                             A:3E X:17 Y:44 P:E6 SP:FB PPU:304,139
E75D  D0 19     BNE                             A:3E X:17 Y:44 P:E6 SP:FB PPU:310,139
E75F  B0 17     BCS                             A:3E X:17 Y:44 P:E6 SP:FB PPU:316,139
E761  50 15     BVC                             A:3E X:17 Y:44 P:E6 SP:FB PPU:322,139
E763  10 13     BPL                             A:3E X:17 Y:44 P:E6 SP:FB PPU:328,139
E765  C9 3E     CMP                             A:3E X:17 Y:44 P:E6 SP:FB PPU:334,139
E767  D0 0F     BNE                             A:3E X:17 Y:44 P:67 SP:FB PPU:340,139
E769  C0 44     CPY                             A:3E X:17 Y:44 P:67 SP:FB PPU:  5,140
E76B  D0 0B     BNE                             A:3E X:17 Y:44 P:67 SP:FB PPU: 11,140
E76D  E0 17     CPX                             A:3E X:17 Y:44 P:67 SP:FB PPU: 17,140
E76F  D0 07     BNE                             A:3E X:17 Y:44 P:67 SP:FB PPU: 23,140
E771  AD 89 04  LDA                             A:3E X:17 Y:44 P:67 SP:FB PPU: 29,140
E774  C9 16     CMP                             A:16 X:17 Y:44 P:65 SP:FB PPU: 41,140
E776  F0 04     BEQ                             A:16 X:17 Y:44 P:67 SP:FB PPU: 47,140
E77C  A0 44     LDY                             A:16 X:17 Y:44 P:67 SP:FB PPU: 56,140
E77E  A2 7A     LDX                             A:16 X:17 Y:44 P:65 SP:FB PPU: 62,140
E780  A9 66     LDA                             A:16 X:7A Y:44 P:65 SP:FB PPU: 68,140
E782  38        SEC                             A:66 X:7A Y:44 P:65 SP:FB PPU: 74,140
E783  B8        CLV                             A:66 X:7A Y:44 P:65 SP:FB PPU: 80,140
E784  83 E6     SAX                             A:66 X:7A Y:44 P:25 SP:FB PPU: 86,140
E786  EA        NOP                             A:66 X:7A Y:44 P:25 SP:FB PPU:104,140
E787  EA        NOP                             A:66 X:7A Y:44 P:25 SP:FB PPU:110,140
E788  EA        NOP                             A:66 X:7A Y:44 P:25 SP:FB PPU:116,140
E789  EA        NOP                             A:66 X:7A Y:44 P:25 SP:FB PPU:122,140
E78A  F0 19     BEQ                             A:66 X:7A Y:44 P:25 SP:FB PPU:128,140
E78C  90 17     BCC                             A:66 X:7A Y:44 P:25 SP:FB PPU:134,140
E78E  70 15     BVS                             A:66 X:7A Y:44 P:25 SP:FB PPU:140,140
E790  30 13     BMI                             A:66 X:7A Y:44 P:25 SP:FB PPU:146,140
E792  C9 66     CMP                             A:66 X:7A Y:44 P:25 SP:FB PPU:152,140
E794  D0 0F     BNE                             A:66 X:7A Y:44 P:27 SP:FB PPU:158,140
E796  C0 44     CPY                             A:66 X:7A Y:44 P:27 SP:FB PPU:164,140
E798  D0 0B     BNE                             A:66 X:7A Y:44 P:27 SP:FB PPU:170,140
E79A  E0 7A     CPX                             A:66 X:7A Y:44 P:27 SP:FB PPU:176,140
E79C  D0 07     BNE                             A:66 X:7A Y:44 P:27 SP:FB PPU:182,140
E79E  AD 89 04  LDA                             A:66 X:7A Y:44 P:27 SP:FB PPU:188,140
E7A1  C9 62     CMP                             A:62 X:7A Y:44 P:25 SP:FB PPU:200,140
E7A3  F0 04     BEQ                             A:62 X:7A Y:44 P:27 SP:FB PPU:206,140
E7A9  A9 FF     LDA                             A:62 X:7A Y:44 P:27 SP:FB PPU:215,140
E7AB  85 49     STA                             A:FF X:7A Y:44 P:A5 SP:FB PPU:221,140
E7AD  A0 44     LDY                             A:FF X:7A Y:44 P:A5 SP:FB PPU:230,140
E7AF  A2 AA     LDX                             A:FF X:7A Y:44 P:25 SP:FB PPU:236,140
E7B1  A9 55     LDA                             A:FF X:AA Y:44 P:A5 SP:FB PPU:242,140
E7B3  24 01     BIT                             A:55 X:AA Y:44 P:25 SP:FB PPU:248,140
E7B5  18        CLC                             A:55 X:AA Y:44 P:E5 SP:FB PPU:257,140
E7B6  87 49     SAX                             A:55 X:AA Y:44 P:E4 SP:FB PPU:263,140
E7B8  EA        NOP                             A:55 X:AA Y:44 P:E4 SP:FB PPU:272,140
E7B9  EA        NOP                             A:55 X:AA Y:44 P:E4 SP:FB PPU:278,140
E7BA  EA        NOP                             A:55 X:AA Y:44 P:E4 SP:FB PPU:284,140
E7BB  EA        NOP                             A:55 X:AA Y:44 P:E4 SP:FB PPU:290,140
E7BC  F0 18     BEQ                             A:55 X:AA Y:44 P:E4 SP:FB PPU:296,140
E7BE  B0 16     BCS                             A:55 X:AA Y:44 P:E4 SP:FB PPU:302,140
E7C0  50 14     BVC                             A:55 X:AA Y:44 P:E4 SP:FB PPU:308,140
E7C2  10 12     BPL                             A:55 X:AA Y:44 P:E4 SP:FB PPU:314,140
E7C4  C9 55     CMP                             A:55 X:AA Y:44 P:E4 SP:FB PPU:320,140
E7C6  D0 0E     BNE                             A:55 X:AA Y:44 P:67 SP:FB PPU:326,140
E7C8  C0 44     CPY                             A:55 X:AA Y:44 P:67 SP:FB PPU:332,140
E7CA  D0 0A     BNE                             A:55 X:AA Y:44 P:67 SP:FB PPU:338,140
E7CC  E0 AA     CPX                             A:55 X:AA Y:44 P:67 SP:FB PPU:  3,141
E7CE  D0 06     BNE                             A:55 X:AA Y:44 P:67 SP:FB PPU:  9,141
E7D0  A5 49     LDA                             A:55 X:AA Y:44 P:67 SP:FB PPU: 15,141
E7D2  C9 00     CMP                             A:00 X:AA Y:44 P:67 SP:FB PPU: 24,141
E7D4  F0 04     BEQ                             A:00 X:AA Y:44 P:67 SP:FB PPU: 30,141
E7DA  A9 00     LDA                             A:00 X:AA Y:44 P:67 SP:FB PPU: 39,141
E7DC  85 56     STA                             A:00 X:AA Y:44 P:67 SP:FB PPU: 45,141
E7DE  A0 58     LDY                             A:00 X:AA Y:44 P:67 SP:FB PPU: 54,141
E7E0  A2 EF     LDX                             A:00 X:AA Y:58 P:65 SP:FB PPU: 60,141
E7E2  A9 66     LDA                             A:00 X:EF Y:58 P:E5 SP:FB PPU: 66,141
E7E4  38        SEC                             A:66 X:EF Y:58 P:65 SP:FB PPU: 72,141
E7E5  B8        CLV                             A:66 X:EF Y:58 P:65 SP:FB PPU: 78,141
E7E6  87 56     SAX                             A:66 X:EF Y:58 P:25 SP:FB PPU: 84,141
E7E8  EA        NOP                             A:66 X:EF Y:58 P:25 SP:FB PPU: 93,141
E7E9  EA        NOP                             A:66 X:EF Y:58 P:25 SP:FB PPU: 99,141
E7EA  EA        NOP                             A:66 X:EF Y:58 P:25 SP:FB PPU:105,141
E7EB  EA        NOP                             A:66 X:EF Y:58 P:25 SP:FB PPU:111,141
E7EC  F0 18     BEQ                             A:66 X:EF Y:58 P:25 SP:FB PPU:117,141
E7EE  90 16     BCC                             A:66 X:EF Y:58 P:25 SP:FB PPU:123,141
E7F0  70 14     BVS                             A:66 X:EF Y:58 P:25 SP:FB PPU:129,141
E7F2  30 12     BMI                             A:66 X:EF Y:58 P:25 SP:FB PPU:135,141
E7F4  C9 66     CMP                             A:66 X:EF Y:58 P:25 SP:FB PPU:141,141
E7F6  D0 0E     BNE                             A:66 X:EF Y:58 P:27 SP:FB PPU:147,141
E7F8  C0 58     CPY                             A:66 X:EF Y:58 P:27 SP:FB PPU:153,141
E7FA  D0 0A     BNE                             A:66 X:EF Y:58 P:27 SP:FB PPU:159,141
E7FC  E0 EF     CPX                             A:66 X:EF Y:58 P:27 SP:FB PPU:165,141
E7FE  D0 06     BNE                             A:66 X:EF Y:58 P:27 SP:FB PPU:171,141
E800  A5 56     LDA                             A:66 X:EF Y:58 P:27 SP:FB PPU:177,141
E802  C9 66     CMP                             A:66 X:EF Y:58 P:25 SP:FB PPU:186,141
E804  F0 04     BEQ                             A:66 X:EF Y:58 P:27 SP:FB PPU:192,141
E80A  A9 FF     LDA                             A:66 X:EF Y:58 P:27 SP:FB PPU:201,141
E80C  8D 49 05  STA                             A:FF X:EF Y:58 P:A5 SP:FB PPU:207,141
E80F  A0 E5     LDY                             A:FF X:EF Y:58 P:A5 SP:FB PPU:219,141
E811  A2 AF     LDX                             A:FF X:EF Y:E5 P:A5 SP:FB PPU:225,141
E813  A9 F5     LDA                             A:FF X:AF Y:E5 P:A5 SP:FB PPU:231,141
E815  24 01     BIT                             A:F5 X:AF Y:E5 P:A5 SP:FB PPU:237,141
E817  18        CLC                             A:F5 X:AF Y:E5 P:E5 SP:FB PPU:246,141
E818  8F 49 05  SAX                             A:F5 X:AF Y:E5 P:E4 SP:FB PPU:252,141
E81B  EA        NOP                             A:F5 X:AF Y:E5 P:E4 SP:FB PPU:264,141
E81C  EA        NOP                             A:F5 X:AF Y:E5 P:E4 SP:FB PPU:270,141
E81D  EA        NOP                             A:F5 X:AF Y:E5 P:E4 SP:FB PPU:276,141
E81E  EA        NOP                             A:F5 X:AF Y:E5 P:E4 SP:FB PPU:282,141
E81F  F0 19     BEQ                             A:F5 X:AF Y:E5 P:E4 SP:FB PPU:288,141
E821  B0 17     BCS                             A:F5 X:AF Y:E5 P:E4 SP:FB PPU:294,141
E823  50 15     BVC                             A:F5 X:AF Y:E5 P:E4 SP:FB PPU:300,141
E825  10 13     BPL                             A:F5 X:AF Y:E5 P:E4 SP:FB PPU:306,141
E827  C9 F5     CMP                             A:F5 X:AF Y:E5 P:E4 SP:FB PPU:312,141
E829  D0 0F     BNE                             A:F5 X:AF Y:E5 P:67 SP:FB PPU:318,141
E82B  C0 E5     CPY                             A:F5 X:AF Y:E5 P:67 SP:FB PPU:324,141
E82D  D0 0B     BNE                             A:F5 X:AF Y:E5 P:67 SP:FB PPU:330,141
E82F  E0 AF     CPX                             A:F5 X:AF Y:E5 P:67 SP:FB PPU:336,141
E831  D0 07     BNE                             A:F5 X:AF Y:E5 P:67 SP:FB PPU:  1,142
E833  AD 49 05  LDA                             A:F5 X:AF Y:E5 P:67 SP:FB PPU:  7,142
E836  C9 A5     CMP                             A:A5 X:AF Y:E5 P:E5 SP:FB PPU: 19,142
E838  F0 04     BEQ                             A:A5 X:AF Y:E5 P:67 SP:FB PPU: 25,142
E83E  A9 00     LDA                             A:A5 X:AF Y:E5 P:67 SP:FB PPU: 34,142
E840  8D 56 05  STA                             A:00 X:AF Y:E5 P:67 SP:FB PPU: 40,142
E843  A0 58     LDY                             A:00 X:AF Y:E5 P:67 SP:FB PPU: 52,142
E845  A2 B3     LDX                             A:00 X:AF Y:58 P:65 SP:FB PPU: 58,142
E847  A9 97     LDA                             A:00 X:B3 Y:58 P:E5 SP:FB PPU: 64,142
E849  38        SEC                             A:97 X:B3 Y:58 P:E5 SP:FB PPU: 70,142
E84A  B8        CLV                             A:97 X:B3 Y:58 P:E5 SP:FB PPU: 76,142
E84B  8F 56 05  SAX                             A:97 X:B3 Y:58 P:A5 SP:FB PPU: 82,142
E84E  EA        NOP                             A:97 X:B3 Y:58 P:A5 SP:FB PPU: 94,142
E84F  EA        NOP                             A:97 X:B3 Y:58 P:A5 SP:FB PPU:100,142
E850  EA        NOP                             A:97 X:B3 Y:58 P:A5 SP:FB PPU:106,142
E851  EA        NOP                             A:97 X:B3 Y:58 P:A5 SP:FB PPU:112,142
E852  F0 19     BEQ                             A:97 X:B3 Y:58 P:A5 SP:FB PPU:118,142
E854  90 17     BCC                             A:97 X:B3 Y:58 P:A5 SP:FB PPU:124,142
E856  70 15     BVS                             A:97 X:B3 Y:58 P:A5 SP:FB PPU:130,142
E858  10 13     BPL                             A:97 X:B3 Y:58 P:A5 SP:FB PPU:136,142
E85A  C9 97     CMP                             A:97 X:B3 Y:58 P:A5 SP:FB PPU:142,142
E85C  D0 0F     BNE                             A:97 X:B3 Y:58 P:27 SP:FB PPU:148,142
E85E  C0 58     CPY                             A:97 X:B3 Y:58 P:27 SP:FB PPU:154,142
E860  D0 0B     BNE                             A:97 X:B3 Y:58 P:27 SP:FB PPU:160,142
E862  E0 B3     CPX                             A:97 X:B3 Y:58 P:27 SP:FB PPU:166,142
E864  D0 07     BNE                             A:97 X:B3 Y:58 P:27 SP:FB PPU:172,142
E866  AD 56 05  LDA                             A:97 X:B3 Y:58 P:27 SP:FB PPU:178,142
E869  C9 93     CMP                             A:93 X:B3 Y:58 P:A5 SP:FB PPU:190,142
E86B  F0 04     BEQ                             A:93 X:B3 Y:58 P:27 SP:FB PPU:196,142
E871  A9 FF     LDA                             A:93 X:B3 Y:58 P:27 SP:FB PPU:205,142
E873  85 49     STA                             A:FF X:B3 Y:58 P:A5 SP:FB PPU:211,142
E875  A0 FF     LDY                             A:FF X:B3 Y:58 P:A5 SP:FB PPU:220,142
E877  A2 AA     LDX                             A:FF X:B3 Y:FF P:A5 SP:FB PPU:226,142
E879  A9 55     LDA                             A:FF X:AA Y:FF P:A5 SP:FB PPU:232,142
E87B  24 01     BIT                             A:55 X:AA Y:FF P:25 SP:FB PPU:238,142
E87D  18        CLC                             A:55 X:AA Y:FF P:E5 SP:FB PPU:247,142
E87E  97 4A     SAX                             A:55 X:AA Y:FF P:E4 SP:FB PPU:253,142
E880  EA        NOP                             A:55 X:AA Y:FF P:E4 SP:FB PPU:265,142
E881  EA        NOP                             A:55 X:AA Y:FF P:E4 SP:FB PPU:271,142
E882  EA        NOP                             A:55 X:AA Y:FF P:E4 SP:FB PPU:277,142
E883  EA        NOP                             A:55 X:AA Y:FF P:E4 SP:FB PPU:283,142
E884  F0 18     BEQ                             A:55 X:AA Y:FF P:E4 SP:FB PPU:289,142
E886  B0 16     BCS                             A:55 X:AA Y:FF P:E4 SP:FB PPU:295,142
E888  50 14     BVC                             A:55 X:AA Y:FF P:E4 SP:FB PPU:301,142
E88A  10 12     BPL                             A:55 X:AA Y:FF P:E4 SP:FB PPU:307,142
E88C  C9 55     CMP                             A:55 X:AA Y:FF P:E4 SP:FB PPU:313,142
E88E  D0 0E     BNE                             A:55 X:AA Y:FF P:67 SP:FB PPU:319,142
E890  C0 FF     CPY                             A:55 X:AA Y:FF P:67 SP:FB PPU:325,142
E892  D0 0A     BNE                             A:55 X:AA Y:FF P:67 SP:FB PPU:331,142
E894  E0 AA     CPX                             A:55 X:AA Y:FF P:67 SP:FB PPU:337,142
E896  D0 06     BNE                             A:55 X:AA Y:FF P:67 SP:FB PPU:  2,143
E898  A5 49     LDA                             A:55 X:AA Y:FF P:67 SP:FB PPU:  8,143
E89A  C9 00     CMP                             A:00 X:AA Y:FF P:67 SP:FB PPU: 17,143
E89C  F0 04     BEQ                             A:00 X:AA Y:FF P:67 SP:FB PPU: 23,143
E8A2  A9 00     LDA                             A:00 X:AA Y:FF P:67 SP:FB PPU: 32,143
E8A4  85 56     STA                             A:00 X:AA Y:FF P:67 SP:FB PPU: 38,143
E8A6  A0 06     LDY                             A:00 X:AA Y:FF P:67 SP:FB PPU: 47,143
E8A8  A2 EF     LDX                             A:00 X:AA Y:06 P:65 SP:FB PPU: 53,143
E8AA  A9 66     LDA                             A:00 X:EF Y:06 P:E5 SP:FB PPU: 59,143
E8AC  38        SEC                             A:66 X:EF Y:06 P:65 SP:FB PPU: 65,143
E8AD  B8        CLV                             A:66 X:EF Y:06 P:65 SP:FB PPU: 71,143
E8AE  97 50     SAX                             A:66 X:EF Y:06 P:25 SP:FB PPU: 77,143
E8B0  EA        NOP                             A:66 X:EF Y:06 P:25 SP:FB PPU: 89,143
E8B1  EA        NOP                             A:66 X:EF Y:06 P:25 SP:FB PPU: 95,143
E8B2  EA        NOP                             A:66 X:EF Y:06 P:25 SP:FB PPU:101,143
E8B3  EA        NOP                             A:66 X:EF Y:06 P:25 SP:FB PPU:107,143
E8B4  F0 18     BEQ                             A:66 X:EF Y:06 P:25 SP:FB PPU:113,143
E8B6  90 16     BCC                             A:66 X:EF Y:06 P:25 SP:FB PPU:119,143
E8B8  70 14     BVS                             A:66 X:EF Y:06 P:25 SP:FB PPU:125,143
E8BA  30 12     BMI                             A:66 X:EF Y:06 P:25 SP:FB PPU:131,143
E8BC  C9 66     CMP                             A:66 X:EF Y:06 P:25 SP:FB PPU:137,143
E8BE  D0 0E     BNE                             A:66 X:EF Y:06 P:27 SP:FB PPU:143,143
E8C0  C0 06     CPY                             A:66 X:EF Y:06 P:27 SP:FB PPU:149,143
E8C2  D0 0A     BNE                             A:66 X:EF Y:06 P:27 SP:FB PPU:155,143
E8C4  E0 EF     CPX                             A:66 X:EF Y:06 P:27 SP:FB PPU:161,143
E8C6  D0 06     BNE                             A:66 X:EF Y:06 P:27 SP:FB PPU:167,143
E8C8  A5 56     LDA                             A:66 X:EF Y:06 P:27 SP:FB PPU:173,143
E8CA  C9 66     CMP                             A:66 X:EF Y:06 P:25 SP:FB PPU:182,143
E8CC  F0 04     BEQ                             A:66 X:EF Y:06 P:27 SP:FB PPU:188,143
E8D2  60        RTS                             A:66 X:EF Y:06 P:27 SP:FB PPU:197,143
C638  20 D3 E8  JSR                             A:66 X:EF Y:06 P:27 SP:FD PPU:215,143
E8D3  A0 90     LDY                             A:66 X:EF Y:06 P:27 SP:FB PPU:233,143
E8D5  20 31 F9  JSR                             A:66 X:EF Y:90 P:A5 SP:FB PPU:239,143
F931  24 01     BIT                             A:66 X:EF Y:90 P:A5 SP:F9 PPU:257,143
F933  A9 40     LDA                             A:66 X:EF Y:90 P:E5 SP:F9 PPU:266,143
F935  38        SEC                             A:40 X:EF Y:90 P:65 SP:F9 PPU:272,143
F936  60        RTS                             A:40 X:EF Y:90 P:65 SP:F9 PPU:278,143
E8D8  EB 40     SBC                             A:40 X:EF Y:90 P:65 SP:FB PPU:296,143
E8DA  EA        NOP                             A:00 X:EF Y:90 P:27 SP:FB PPU:302,143
E8DB  EA        NOP                             A:00 X:EF Y:90 P:27 SP:FB PPU:308,143
E8DC  EA        NOP                             A:00 X:EF Y:90 P:27 SP:FB PPU:314,143
E8DD  EA        NOP                             A:00 X:EF Y:90 P:27 SP:FB PPU:320,143
E8DE  20 37 F9  JSR                             A:00 X:EF Y:90 P:27 SP:FB PPU:326,143
F937  30 0B     BMI                             A:00 X:EF Y:90 P:27 SP:F9 PPU:  3,144
F939  90 09     BCC                             A:00 X:EF Y:90 P:27 SP:F9 PPU:  9,144
F93B  D0 07     BNE                             A:00 X:EF Y:90 P:27 SP:F9 PPU: 15,144
F93D  70 05     BVS                             A:00 X:EF Y:90 P:27 SP:F9 PPU: 21,144
F93F  C9 00     CMP                             A:00 X:EF Y:90 P:27 SP:F9 PPU: 27,144
F941  D0 01     BNE                             A:00 X:EF Y:90 P:27 SP:F9 PPU: 33,144
F943  60        RTS                             A:00 X:EF Y:90 P:27 SP:F9 PPU: 39,144
E8E1  C8        INY                             A:00 X:EF Y:90 P:27 SP:FB PPU: 57,144
E8E2  20 47 F9  JSR                             A:00 X:EF Y:91 P:A5 SP:FB PPU: 63,144
F947  B8        CLV                             A:00 X:EF Y:91 P:A5 SP:F9 PPU: 81,144
F948  38        SEC                             A:00 X:EF Y:91 P:A5 SP:F9 PPU: 87,144
F949  A9 40     LDA                             A:00 X:EF Y:91 P:A5 SP:F9 PPU: 93,144
F94B  60        RTS                             A:40 X:EF Y:91 P:25 SP:F9 PPU: 99,144
E8E5  EB 3F     SBC                             A:40 X:EF Y:91 P:25 SP:FB PPU:117,144
E8E7  EA        NOP                             A:01 X:EF Y:91 P:25 SP:FB PPU:123,144
E8E8  EA        NOP                             A:01 X:EF Y:91 P:25 SP:FB PPU:129,144
E8E9  EA        NOP                             A:01 X:EF Y:91 P:25 SP:FB PPU:135,144
E8EA  EA        NOP                             A:01 X:EF Y:91 P:25 SP:FB PPU:141,144
E8EB  20 4C F9  JSR                             A:01 X:EF Y:91 P:25 SP:FB PPU:147,144
F94C  F0 0B     BEQ                             A:01 X:EF Y:91 P:25 SP:F9 PPU:165,144
F94E  30 09     BMI                             A:01 X:EF Y:91 P:25 SP:F9 PPU:171,144
F950  90 07     BCC                             A:01 X:EF Y:91 P:25 SP:F9 PPU:177,144
F952  70 05     BVS                             A:01 X:EF Y:91 P:25 SP:F9 PPU:183,144
F954  C9 01     CMP                             A:01 X:EF Y:91 P:25 SP:F9 PPU:189,144
F956  D0 01     BNE                             A:01 X:EF Y:91 P:27 SP:F9 PPU:195,144
F958  60        RTS                             A:01 X:EF Y:91 P:27 SP:F9 PPU:201,144
E8EE  C8        INY                             A:01 X:EF Y:91 P:27 SP:FB PPU:219,144
E8EF  20 5C F9  JSR                             A:01 X:EF Y:92 P:A5 SP:FB PPU:225,144
F95C  A9 40     LDA                             A:01 X:EF Y:92 P:A5 SP:F9 PPU:243,144
F95E  38        SEC                             A:40 X:EF Y:92 P:25 SP:F9 PPU:249,144
F95F  24 01     BIT                             A:40 X:EF Y:92 P:25 SP:F9 PPU:255,144
F961  60        RTS                             A:40 X:EF Y:92 P:E5 SP:F9 PPU:264,144
E8F2  EB 41     SBC                             A:40 X:EF Y:92 P:E5 SP:FB PPU:282,144
E8F4  EA        NOP                             A:FF X:EF Y:92 P:A4 SP:FB PPU:288,144
E8F5  EA        NOP                             A:FF X:EF Y:92 P:A4 SP:FB PPU:294,144
E8F6  EA        NOP                             A:FF X:EF Y:92 P:A4 SP:FB PPU:300,144
E8F7  EA        NOP                             A:FF X:EF Y:92 P:A4 SP:FB PPU:306,144
E8F8  20 62 F9  JSR                             A:FF X:EF Y:92 P:A4 SP:FB PPU:312,144
F962  B0 0B     BCS                             A:FF X:EF Y:92 P:A4 SP:F9 PPU:330,144
F964  F0 09     BEQ                             A:FF X:EF Y:92 P:A4 SP:F9 PPU:336,144
F966  10 07     BPL                             A:FF X:EF Y:92 P:A4 SP:F9 PPU:  1,145
F968  70 05     BVS                             A:FF X:EF Y:92 P:A4 SP:F9 PPU:  7,145
F96A  C9 FF     CMP                             A:FF X:EF Y:92 P:A4 SP:F9 PPU: 13,145
F96C  D0 01     BNE                             A:FF X:EF Y:92 P:27 SP:F9 PPU: 19,145
F96E  60        RTS                             A:FF X:EF Y:92 P:27 SP:F9 PPU: 25,145
E8FB  C8        INY                             A:FF X:EF Y:92 P:27 SP:FB PPU: 43,145
E8FC  20 72 F9  JSR                             A:FF X:EF Y:93 P:A5 SP:FB PPU: 49,145
F972  18        CLC                             A:FF X:EF Y:93 P:A5 SP:F9 PPU: 67,145
F973  A9 80     LDA                             A:FF X:EF Y:93 P:A4 SP:F9 PPU: 73,145
F975  60        RTS                             A:80 X:EF Y:93 P:A4 SP:F9 PPU: 79,145
E8FF  EB 00     SBC                             A:80 X:EF Y:93 P:A4 SP:FB PPU: 97,145
E901  EA        NOP                             A:7F X:EF Y:93 P:65 SP:FB PPU:103,145
E902  EA        NOP                             A:7F X:EF Y:93 P:65 SP:FB PPU:109,145
E903  EA        NOP                             A:7F X:EF Y:93 P:65 SP:FB PPU:115,145
E904  EA        NOP                             A:7F X:EF Y:93 P:65 SP:FB PPU:121,145
E905  20 76 F9  JSR                             A:7F X:EF Y:93 P:65 SP:FB PPU:127,145
F976  90 05     BCC                             A:7F X:EF Y:93 P:65 SP:F9 PPU:145,145
F978  C9 7F     CMP                             A:7F X:EF Y:93 P:65 SP:F9 PPU:151,145
F97A  D0 01     BNE                             A:7F X:EF Y:93 P:67 SP:F9 PPU:157,145
F97C  60        RTS                             A:7F X:EF Y:93 P:67 SP:F9 PPU:163,145
E908  C8        INY                             A:7F X:EF Y:93 P:67 SP:FB PPU:181,145
E909  20 80 F9  JSR                             A:7F X:EF Y:94 P:E5 SP:FB PPU:187,145
F980  38        SEC                             A:7F X:EF Y:94 P:E5 SP:F9 PPU:205,145
F981  A9 81     LDA                             A:7F X:EF Y:94 P:E5 SP:F9 PPU:211,145
F983  60        RTS                             A:81 X:EF Y:94 P:E5 SP:F9 PPU:217,145
E90C  EB 7F     SBC                             A:81 X:EF Y:94 P:E5 SP:FB PPU:235,145
E90E  EA        NOP                             A:02 X:EF Y:94 P:65 SP:FB PPU:241,145
E90F  EA        NOP                             A:02 X:EF Y:94 P:65 SP:FB PPU:247,145
E910  EA        NOP                             A:02 X:EF Y:94 P:65 SP:FB PPU:253,145
E911  EA        NOP                             A:02 X:EF Y:94 P:65 SP:FB PPU:259,145
E912  20 84 F9  JSR                             A:02 X:EF Y:94 P:65 SP:FB PPU:265,145
F984  50 07     BVC                             A:02 X:EF Y:94 P:65 SP:F9 PPU:283,145
F986  90 05     BCC                             A:02 X:EF Y:94 P:65 SP:F9 PPU:289,145
F988  C9 02     CMP                             A:02 X:EF Y:94 P:65 SP:F9 PPU:295,145
F98A  D0 01     BNE                             A:02 X:EF Y:94 P:67 SP:F9 PPU:301,145
F98C  60        RTS                             A:02 X:EF Y:94 P:67 SP:F9 PPU:307,145
E915  60        RTS                             A:02 X:EF Y:94 P:67 SP:FB PPU:325,145
C63B  20 16 E9  JSR                             A:02 X:EF Y:94 P:67 SP:FD PPU:  2,146
E916  A9 FF     LDA                             A:02 X:EF Y:94 P:67 SP:FB PPU: 20,146
E918  85 01     STA                             A:FF X:EF Y:94 P:E5 SP:FB PPU: 26,146
E91A  A0 95     LDY                             A:FF X:EF Y:94 P:E5 SP:FB PPU: 35,146
E91C  A2 02     LDX                             A:FF X:EF Y:95 P:E5 SP:FB PPU: 41,146
E91E  A9 47     LDA                             A:FF X:02 Y:95 P:65 SP:FB PPU: 47,146
E920  85 47     STA                             A:47 X:02 Y:95 P:65 SP:FB PPU: 53,146
E922  A9 06     LDA                             A:47 X:02 Y:95 P:65 SP:FB PPU: 62,146
E924  85 48     STA                             A:06 X:02 Y:95 P:65 SP:FB PPU: 68,146
E926  A9 EB     LDA                             A:06 X:02 Y:95 P:65 SP:FB PPU: 77,146
E928  8D 47 06  STA                             A:EB X:02 Y:95 P:E5 SP:FB PPU: 83,146
E92B  20 31 FA  JSR                             A:EB X:02 Y:95 P:E5 SP:FB PPU: 95,146
FA31  24 01     BIT                             A:EB X:02 Y:95 P:E5 SP:F9 PPU:113,146
FA33  18        CLC                             A:EB X:02 Y:95 P:E5 SP:F9 PPU:122,146
FA34  A9 40     LDA                             A:EB X:02 Y:95 P:E4 SP:F9 PPU:128,146
FA36  60        RTS                             A:40 X:02 Y:95 P:64 SP:F9 PPU:134,146
E92E  C3 45     DCP                             A:40 X:02 Y:95 P:64 SP:FB PPU:152,146
E930  EA        NOP                             A:40 X:02 Y:95 P:64 SP:FB PPU:176,146
E931  EA        NOP                             A:40 X:02 Y:95 P:64 SP:FB PPU:182,146
E932  EA        NOP                             A:40 X:02 Y:95 P:64 SP:FB PPU:188,146
E933  EA        NOP                             A:40 X:02 Y:95 P:64 SP:FB PPU:194,146
E934  20 37 FA  JSR                             A:40 X:02 Y:95 P:64 SP:FB PPU:200,146
FA37  50 2C     BVC                             A:40 X:02 Y:95 P:64 SP:F9 PPU:218,146
FA39  B0 2A     BCS                             A:40 X:02 Y:95 P:64 SP:F9 PPU:224,146
FA3B  30 28     BMI                             A:40 X:02 Y:95 P:64 SP:F9 PPU:230,146
FA3D  C9 40     CMP                             A:40 X:02 Y:95 P:64 SP:F9 PPU:236,146
FA3F  D0 24     BNE                             A:40 X:02 Y:95 P:67 SP:F9 PPU:242,146
FA41  60        RTS                             A:40 X:02 Y:95 P:67 SP:F9 PPU:248,146
E937  AD 47 06  LDA                             A:40 X:02 Y:95 P:67 SP:FB PPU:266,146
E93A  C9 EA     CMP                             A:EA X:02 Y:95 P:E5 SP:FB PPU:278,146
E93C  F0 02     BEQ                             A:EA X:02 Y:95 P:67 SP:FB PPU:284,146
E940  C8        INY                             A:EA X:02 Y:95 P:67 SP:FB PPU:293,146
E941  A9 00     LDA                             A:EA X:02 Y:96 P:E5 SP:FB PPU:299,146
E943  8D 47 06  STA                             A:00 X:02 Y:96 P:67 SP:FB PPU:305,146
E946  20 42 FA  JSR                             A:00 X:02 Y:96 P:67 SP:FB PPU:317,146
FA42  B8        CLV                             A:00 X:02 Y:96 P:67 SP:F9 PPU:335,146
FA43  38        SEC                             A:00 X:02 Y:96 P:27 SP:F9 PPU:  0,147
FA44  A9 FF     LDA                             A:00 X:02 Y:96 P:27 SP:F9 PPU:  6,147
FA46  60        RTS                             A:FF X:02 Y:96 P:A5 SP:F9 PPU: 12,147
E949  C3 45     DCP                             A:FF X:02 Y:96 P:A5 SP:FB PPU: 30,147
E94B  EA        NOP                             A:FF X:02 Y:96 P:27 SP:FB PPU: 54,147
E94C  EA        NOP                             A:FF X:02 Y:96 P:27 SP:FB PPU: 60,147
E94D  EA        NOP                             A:FF X:02 Y:96 P:27 SP:FB PPU: 66,147
E94E  EA        NOP                             A:FF X:02 Y:96 P:27 SP:FB PPU: 72,147
E94F  20 47 FA  JSR                             A:FF X:02 Y:96 P:27 SP:FB PPU: 78,147
FA47  70 1C     BVS                             A:FF X:02 Y:96 P:27 SP:F9 PPU: 96,147
FA49  D0 1A     BNE                             A:FF X:02 Y:96 P:27 SP:F9 PPU:102,147
FA4B  30 18     BMI                             A:FF X:02 Y:96 P:27 SP:F9 PPU:108,147
FA4D  90 16     BCC                             A:FF X:02 Y:96 P:27 SP:F9 PPU:114,147
FA4F  C9 FF     CMP                             A:FF X:02 Y:96 P:27 SP:F9 PPU:120,147
FA51  D0 12     BNE                             A:FF X:02 Y:96 P:27 SP:F9 PPU:126,147
FA53  60        RTS                             A:FF X:02 Y:96 P:27 SP:F9 PPU:132,147
E952  AD 47 06  LDA                             A:FF X:02 Y:96 P:27 SP:FB PPU:150,147
E955  C9 FF     CMP                             A:FF X:02 Y:96 P:A5 SP:FB PPU:162,147
E957  F0 02     BEQ                             A:FF X:02 Y:96 P:27 SP:FB PPU:168,147
E95B  C8        INY                             A:FF X:02 Y:96 P:27 SP:FB PPU:177,147
E95C  A9 37     LDA                             A:FF X:02 Y:97 P:A5 SP:FB PPU:183,147
E95E  8D 47 06  STA                             A:37 X:02 Y:97 P:25 SP:FB PPU:189,147
E961  20 54 FA  JSR                             A:37 X:02 Y:97 P:25 SP:FB PPU:201,147
FA54  24 01     BIT                             A:37 X:02 Y:97 P:25 SP:F9 PPU:219,147
FA56  A9 F0     LDA                             A:37 X:02 Y:97 P:E5 SP:F9 PPU:228,147
FA58  60        RTS                             A:F0 X:02 Y:97 P:E5 SP:F9 PPU:234,147
E964  C3 45     DCP                             A:F0 X:02 Y:97 P:E5 SP:FB PPU:252,147
E966  EA        NOP                             A:F0 X:02 Y:97 P:E5 SP:FB PPU:276,147
E967  EA        NOP                             A:F0 X:02 Y:97 P:E5 SP:FB PPU:282,147
E968  EA        NOP                             A:F0 X:02 Y:97 P:E5 SP:FB PPU:288,147
E969  EA        NOP                             A:F0 X:02 Y:97 P:E5 SP:FB PPU:294,147
E96A  20 59 FA  JSR                             A:F0 X:02 Y:97 P:E5 SP:FB PPU:300,147
FA59  50 0A     BVC                             A:F0 X:02 Y:97 P:E5 SP:F9 PPU:318,147
FA5B  F0 08     BEQ                             A:F0 X:02 Y:97 P:E5 SP:F9 PPU:324,147
FA5D  10 06     BPL                             A:F0 X:02 Y:97 P:E5 SP:F9 PPU:330,147
FA5F  90 04     BCC                             A:F0 X:02 Y:97 P:E5 SP:F9 PPU:336,147
FA61  C9 F0     CMP                             A:F0 X:02 Y:97 P:E5 SP:F9 PPU:  1,148
FA63  F0 02     BEQ                             A:F0 X:02 Y:97 P:67 SP:F9 PPU:  7,148
FA67  60        RTS                             A:F0 X:02 Y:97 P:67 SP:F9 PPU: 16,148
E96D  AD 47 06  LDA                             A:F0 X:02 Y:97 P:67 SP:FB PPU: 34,148
E970  C9 36     CMP                             A:36 X:02 Y:97 P:65 SP:FB PPU: 46,148
E972  F0 02     BEQ                             A:36 X:02 Y:97 P:67 SP:FB PPU: 52,148
E976  C8        INY                             A:36 X:02 Y:97 P:67 SP:FB PPU: 61,148
E977  A9 EB     LDA                             A:36 X:02 Y:98 P:E5 SP:FB PPU: 67,148
E979  85 47     STA                             A:EB X:02 Y:98 P:E5 SP:FB PPU: 73,148
E97B  20 31 FA  JSR                             A:EB X:02 Y:98 P:E5 SP:FB PPU: 82,148
FA31  24 01     BIT                             A:EB X:02 Y:98 P:E5 SP:F9 PPU:100,148
FA33  18        CLC                             A:EB X:02 Y:98 P:E5 SP:F9 PPU:109,148
FA34  A9 40     LDA                             A:EB X:02 Y:98 P:E4 SP:F9 PPU:115,148
FA36  60        RTS                             A:40 X:02 Y:98 P:64 SP:F9 PPU:121,148
E97E  C7 47     DCP                             A:40 X:02 Y:98 P:64 SP:FB PPU:139,148
E980  EA        NOP                             A:40 X:02 Y:98 P:64 SP:FB PPU:154,148
E981  EA        NOP                             A:40 X:02 Y:98 P:64 SP:FB PPU:160,148
E982  EA        NOP                             A:40 X:02 Y:98 P:64 SP:FB PPU:166,148
E983  EA        NOP                             A:40 X:02 Y:98 P:64 SP:FB PPU:172,148
E984  20 37 FA  JSR                             A:40 X:02 Y:98 P:64 SP:FB PPU:178,148
FA37  50 2C     BVC                             A:40 X:02 Y:98 P:64 SP:F9 PPU:196,148
FA39  B0 2A     BCS                             A:40 X:02 Y:98 P:64 SP:F9 PPU:202,148
FA3B  30 28     BMI                             A:40 X:02 Y:98 P:64 SP:F9 PPU:208,148
FA3D  C9 40     CMP                             A:40 X:02 Y:98 P:64 SP:F9 PPU:214,148
FA3F  D0 24     BNE                             A:40 X:02 Y:98 P:67 SP:F9 PPU:220,148
FA41  60        RTS                             A:40 X:02 Y:98 P:67 SP:F9 PPU:226,148
E987  A5 47     LDA                             A:40 X:02 Y:98 P:67 SP:FB PPU:244,148
E989  C9 EA     CMP                             A:EA X:02 Y:98 P:E5 SP:FB PPU:253,148
E98B  F0 02     BEQ                             A:EA X:02 Y:98 P:67 SP:FB PPU:259,148
E98F  C8        INY                             A:EA X:02 Y:98 P:67 SP:FB PPU:268,148
E990  A9 00     LDA                             A:EA X:02 Y:99 P:E5 SP:FB PPU:274,148
E992  85 47     STA                             A:00 X:02 Y:99 P:67 SP:FB PPU:280,148
E994  20 42 FA  JSR                             A:00 X:02 Y:99 P:67 SP:FB PPU:289,148
FA42  B8        CLV                             A:00 X:02 Y:99 P:67 SP:F9 PPU:307,148
FA43  38        SEC                             A:00 X:02 Y:99 P:27 SP:F9 PPU:313,148
FA44  A9 FF     LDA                             A:00 X:02 Y:99 P:27 SP:F9 PPU:319,148
FA46  60        RTS                             A:FF X:02 Y:99 P:A5 SP:F9 PPU:325,148
E997  C7 47     DCP                             A:FF X:02 Y:99 P:A5 SP:FB PPU:  2,149
E999  EA        NOP                             A:FF X:02 Y:99 P:27 SP:FB PPU: 17,149
E99A  EA        NOP                             A:FF X:02 Y:99 P:27 SP:FB PPU: 23,149
E99B  EA        NOP                             A:FF X:02 Y:99 P:27 SP:FB PPU: 29,149
E99C  EA        NOP                             A:FF X:02 Y:99 P:27 SP:FB PPU: 35,149
E99D  20 47 FA  JSR                             A:FF X:02 Y:99 P:27 SP:FB PPU: 41,149
FA47  70 1C     BVS                             A:FF X:02 Y:99 P:27 SP:F9 PPU: 59,149
FA49  D0 1A     BNE                             A:FF X:02 Y:99 P:27 SP:F9 PPU: 65,149
FA4B  30 18     BMI                             A:FF X:02 Y:99 P:27 SP:F9 PPU: 71,149
FA4D  90 16     BCC                             A:FF X:02 Y:99 P:27 SP:F9 PPU: 77,149
FA4F  C9 FF     CMP                             A:FF X:02 Y:99 P:27 SP:F9 PPU: 83,149
FA51  D0 12     BNE                             A:FF X:02 Y:99 P:27 SP:F9 PPU: 89,149
FA53  60        RTS                             A:FF X:02 Y:99 P:27 SP:F9 PPU: 95,149
E9A0  A5 47     LDA                             A:FF X:02 Y:99 P:27 SP:FB PPU:113,149
E9A2  C9 FF     CMP                             A:FF X:02 Y:99 P:A5 SP:FB PPU:122,149
E9A4  F0 02     BEQ                             A:FF X:02 Y:99 P:27 SP:FB PPU:128,149
E9A8  C8        INY                             A:FF X:02 Y:99 P:27 SP:FB PPU:137,149
E9A9  A9 37     LDA                             A:FF X:02 Y:9A P:A5 SP:FB PPU:143,149
E9AB  85 47     STA                             A:37 X:02 Y:9A P:25 SP:FB PPU:149,149
E9AD  20 54 FA  JSR                             A:37 X:02 Y:9A P:25 SP:FB PPU:158,149
FA54  24 01     BIT                             A:37 X:02 Y:9A P:25 SP:F9 PPU:176,149
FA56  A9 F0     LDA                             A:37 X:02 Y:9A P:E5 SP:F9 PPU:185,149
FA58  60        RTS                             A:F0 X:02 Y:9A P:E5 SP:F9 PPU:191,149
E9B0  C7 47     DCP                             A:F0 X:02 Y:9A P:E5 SP:FB PPU:209,149
E9B2  EA        NOP                             A:F0 X:02 Y:9A P:E5 SP:FB PPU:224,149
E9B3  EA        NOP                             A:F0 X:02 Y:9A P:E5 SP:FB PPU:230,149
E9B4  EA        NOP                             A:F0 X:02 Y:9A P:E5 SP:FB PPU:236,149
E9B5  EA        NOP                             A:F0 X:02 Y:9A P:E5 SP:FB PPU:242,149
E9B6  20 59 FA  JSR                             A:F0 X:02 Y:9A P:E5 SP:FB PPU:248,149
FA59  50 0A     BVC                             A:F0 X:02 Y:9A P:E5 SP:F9 PPU:266,149
FA5B  F0 08     BEQ                             A:F0 X:02 Y:9A P:E5 SP:F9 PPU:272,149
FA5D  10 06     BPL                             A:F0 X:02 Y:9A P:E5 SP:F9 PPU:278,149
FA5F  90 04     BCC                             A:F0 X:02 Y:9A P:E5 SP:F9 PPU:284,149
FA61  C9 F0     CMP                             A:F0 X:02 Y:9A P:E5 SP:F9 PPU:290,149
FA63  F0 02     BEQ                             A:F0 X:02 Y:9A P:67 SP:F9 PPU:296,149
FA67  60        RTS                             A:F0 X:02 Y:9A P:67 SP:F9 PPU:305,149
E9B9  A5 47     LDA                             A:F0 X:02 Y:9A P:67 SP:FB PPU:323,149
E9BB  C9 36     CMP                             A:36 X:02 Y:9A P:65 SP:FB PPU:332,149
E9BD  F0 02     BEQ                             A:36 X:02 Y:9A P:67 SP:FB PPU:338,149
E9C1  C8        INY                             A:36 X:02 Y:9A P:67 SP:FB PPU:  6,150
E9C2  A9 EB     LDA                             A:36 X:02 Y:9B P:E5 SP:FB PPU: 12,150
E9C4  8D 47 06  STA                             A:EB X:02 Y:9B P:E5 SP:FB PPU: 18,150
E9C7  20 31 FA  JSR                             A:EB X:02 Y:9B P:E5 SP:FB PPU: 30,150
FA31  24 01     BIT                             A:EB X:02 Y:9B P:E5 SP:F9 PPU: 48,150
FA33  18        CLC                             A:EB X:02 Y:9B P:E5 SP:F9 PPU: 57,150
FA34  A9 40     LDA                             A:EB X:02 Y:9B P:E4 SP:F9 PPU: 63,150
FA36  60        RTS                             A:40 X:02 Y:9B P:64 SP:F9 PPU: 69,150
E9CA  CF 47 06  DCP                             A:40 X:02 Y:9B P:64 SP:FB PPU: 87,150
E9CD  EA        NOP                             A:40 X:02 Y:9B P:64 SP:FB PPU:105,150
E9CE  EA        NOP                             A:40 X:02 Y:9B P:64 SP:FB PPU:111,150
E9CF  EA        NOP                             A:40 X:02 Y:9B P:64 SP:FB PPU:117,150
E9D0  EA        NOP                             A:40 X:02 Y:9B P:64 SP:FB PPU:123,150
E9D1  20 37 FA  JSR                             A:40 X:02 Y:9B P:64 SP:FB PPU:129,150
FA37  50 2C     BVC                             A:40 X:02 Y:9B P:64 SP:F9 PPU:147,150
FA39  B0 2A     BCS                             A:40 X:02 Y:9B P:64 SP:F9 PPU:153,150
FA3B  30 28     BMI                             A:40 X:02 Y:9B P:64 SP:F9 PPU:159,150
FA3D  C9 40     CMP                             A:40 X:02 Y:9B P:64 SP:F9 PPU:165,150
FA3F  D0 24     BNE                             A:40 X:02 Y:9B P:67 SP:F9 PPU:171,150
FA41  60        RTS                             A:40 X:02 Y:9B P:67 SP:F9 PPU:177,150
E9D4  AD 47 06  LDA                             A:40 X:02 Y:9B P:67 SP:FB PPU:195,150
E9D7  C9 EA     CMP                             A:EA X:02 Y:9B P:E5 SP:FB PPU:207,150
E9D9  F0 02     BEQ                             A:EA X:02 Y:9B P:67 SP:FB PPU:213,150
E9DD  C8        INY                             A:EA X:02 Y:9B P:67 SP:FB PPU:222,150
E9DE  A9 00     LDA                             A:EA X:02 Y:9C P:E5 SP:FB PPU:228,150
E9E0  8D 47 06  STA                             A:00 X:02 Y:9C P:67 SP:FB PPU:234,150
E9E3  20 42 FA  JSR                             A:00 X:02 Y:9C P:67 SP:FB PPU:246,150
FA42  B8        CLV                             A:00 X:02 Y:9C P:67 SP:F9 PPU:264,150
FA43  38        SEC                             A:00 X:02 Y:9C P:27 SP:F9 PPU:270,150
FA44  A9 FF     LDA                             A:00 X:02 Y:9C P:27 SP:F9 PPU:276,150
FA46  60        RTS                             A:FF X:02 Y:9C P:A5 SP:F9 PPU:282,150
E9E6  CF 47 06  DCP                             A:FF X:02 Y:9C P:A5 SP:FB PPU:300,150
E9E9  EA        NOP                             A:FF X:02 Y:9C P:27 SP:FB PPU:318,150
E9EA  EA        NOP                             A:FF X:02 Y:9C P:27 SP:FB PPU:324,150
E9EB  EA        NOP                             A:FF X:02 Y:9C P:27 SP:FB PPU:330,150
E9EC  EA        NOP                             A:FF X:02 Y:9C P:27 SP:FB PPU:336,150
E9ED  20 47 FA  JSR                             A:FF X:02 Y:9C P:27 SP:FB PPU:  1,151
FA47  70 1C     BVS                             A:FF X:02 Y:9C P:27 SP:F9 PPU: 19,151
FA49  D0 1A     BNE                             A:FF X:02 Y:9C P:27 SP:F9 PPU: 25,151
FA4B  30 18     BMI                             A:FF X:02 Y:9C P:27 SP:F9 PPU: 31,151
FA4D  90 16     BCC                             A:FF X:02 Y:9C P:27 SP:F9 PPU: 37,151
FA4F  C9 FF     CMP                             A:FF X:02 Y:9C P:27 SP:F9 PPU: 43,151
FA51  D0 12     BNE                             A:FF X:02 Y:9C P:27 SP:F9 PPU: 49,151
FA53  60        RTS                             A:FF X:02 Y:9C P:27 SP:F9 PPU: 55,151
E9F0  AD 47 06  LDA                             A:FF X:02 Y:9C P:27 SP:FB PPU: 73,151
E9F3  C9 FF     CMP                             A:FF X:02 Y:9C P:A5 SP:FB PPU: 85,151
E9F5  F0 02     BEQ                             A:FF X:02 Y:9C P:27 SP:FB PPU: 91,151
E9F9  C8        INY                             A:FF X:02 Y:9C P:27 SP:FB PPU:100,151
E9FA  A9 37     LDA                             A:FF X:02 Y:9D P:A5 SP:FB PPU:106,151
E9FC  8D 47 06  STA                             A:37 X:02 Y:9D P:25 SP:FB PPU:112,151
E9FF  20 54 FA  JSR                             A:37 X:02 Y:9D P:25 SP:FB PPU:124,151
FA54  24 01     BIT                             A:37 X:02 Y:9D P:25 SP:F9 PPU:142,151
FA56  A9 F0     LDA                             A:37 X:02 Y:9D P:E5 SP:F9 PPU:151,151
FA58  60        RTS                             A:F0 X:02 Y:9D P:E5 SP:F9 PPU:157,151
EA02  CF 47 06  DCP                             A:F0 X:02 Y:9D P:E5 SP:FB PPU:175,151
EA05  EA        NOP                             A:F0 X:02 Y:9D P:E5 SP:FB PPU:193,151
EA06  EA        NOP                             A:F0 X:02 Y:9D P:E5 SP:FB PPU:199,151
EA07  EA        NOP                             A:F0 X:02 Y:9D P:E5 SP:FB PPU:205,151
EA08  EA        NOP                             A:F0 X:02 Y:9D P:E5 SP:FB PPU:211,151
EA09  20 59 FA  JSR                             A:F0 X:02 Y:9D P:E5 SP:FB PPU:217,151
FA59  50 0A     BVC                             A:F0 X:02 Y:9D P:E5 SP:F9 PPU:235,151
FA5B  F0 08     BEQ                             A:F0 X:02 Y:9D P:E5 SP:F9 PPU:241,151
FA5D  10 06     BPL                             A:F0 X:02 Y:9D P:E5 SP:F9 PPU:247,151
FA5F  90 04     BCC                             A:F0 X:02 Y:9D P:E5 SP:F9 PPU:253,151
FA61  C9 F0     CMP                             A:F0 X:02 Y:9D P:E5 SP:F9 PPU:259,151
FA63  F0 02     BEQ                             A:F0 X:02 Y:9D P:67 SP:F9 PPU:265,151
FA67  60        RTS                             A:F0 X:02 Y:9D P:67 SP:F9 PPU:274,151
EA0C  AD 47 06  LDA                             A:F0 X:02 Y:9D P:67 SP:FB PPU:292,151
EA0F  C9 36     CMP                             A:36 X:02 Y:9D P:65 SP:FB PPU:304,151
EA11  F0 02     BEQ                             A:36 X:02 Y:9D P:67 SP:FB PPU:310,151
EA15  A9 EB     LDA                             A:36 X:02 Y:9D P:67 SP:FB PPU:319,151
EA17  8D 47 06  STA                             A:EB X:02 Y:9D P:E5 SP:FB PPU:325,151
EA1A  A9 48     LDA                             A:EB X:02 Y:9D P:E5 SP:FB PPU:337,151
EA1C  85 45     STA                             A:48 X:02 Y:9D P:65 SP:FB PPU:  2,152
EA1E  A9 05     LDA                             A:48 X:02 Y:9D P:65 SP:FB PPU: 11,152
EA20  85 46     STA                             A:05 X:02 Y:9D P:65 SP:FB PPU: 17,152
EA22  A0 FF     LDY                             A:05 X:02 Y:9D P:65 SP:FB PPU: 26,152
EA24  20 31 FA  JSR                             A:05 X:02 Y:FF P:E5 SP:FB PPU: 32,152
FA31  24 01     BIT                             A:05 X:02 Y:FF P:E5 SP:F9 PPU: 50,152
FA33  18        CLC                             A:05 X:02 Y:FF P:E5 SP:F9 PPU: 59,152
FA34  A9 40     LDA                             A:05 X:02 Y:FF P:E4 SP:F9 PPU: 65,152
FA36  60        RTS                             A:40 X:02 Y:FF P:64 SP:F9 PPU: 71,152
EA27  D3 45     DCP                             A:40 X:02 Y:FF P:64 SP:FB PPU: 89,152
EA29  EA        NOP                             A:40 X:02 Y:FF P:64 SP:FB PPU:113,152
EA2A  EA        NOP                             A:40 X:02 Y:FF P:64 SP:FB PPU:119,152
EA2B  08        PHP                             A:40 X:02 Y:FF P:64 SP:FB PPU:125,152
EA2C  48        PHA                             A:40 X:02 Y:FF P:64 SP:FA PPU:134,152
EA2D  A0 9E     LDY                             A:40 X:02 Y:FF P:64 SP:F9 PPU:143,152
EA2F  68        PLA                             A:40 X:02 Y:9E P:E4 SP:F9 PPU:149,152
EA30  28        PLP                             A:40 X:02 Y:9E P:64 SP:FA PPU:161,152
EA31  20 37 FA  JSR                             A:40 X:02 Y:9E P:64 SP:FB PPU:173,152
FA37  50 2C     BVC                             A:40 X:02 Y:9E P:64 SP:F9 PPU:191,152
FA39  B0 2A     BCS                             A:40 X:02 Y:9E P:64 SP:F9 PPU:197,152
FA3B  30 28     BMI                             A:40 X:02 Y:9E P:64 SP:F9 PPU:203,152
FA3D  C9 40     CMP                             A:40 X:02 Y:9E P:64 SP:F9 PPU:209,152
FA3F  D0 24     BNE                             A:40 X:02 Y:9E P:67 SP:F9 PPU:215,152
FA41  60        RTS                             A:40 X:02 Y:9E P:67 SP:F9 PPU:221,152
EA34  AD 47 06  LDA                             A:40 X:02 Y:9E P:67 SP:FB PPU:239,152
EA37  C9 EA     CMP                             A:EA X:02 Y:9E P:E5 SP:FB PPU:251,152
EA39  F0 02     BEQ                             A:EA X:02 Y:9E P:67 SP:FB PPU:257,152
EA3D  A0 FF     LDY                             A:EA X:02 Y:9E P:67 SP:FB PPU:266,152
EA3F  A9 00     LDA                             A:EA X:02 Y:FF P:E5 SP:FB PPU:272,152
EA41  8D 47 06  STA                             A:00 X:02 Y:FF P:67 SP:FB PPU:278,152
EA44  20 42 FA  JSR                             A:00 X:02 Y:FF P:67 SP:FB PPU:290,152
FA42  B8        CLV                             A:00 X:02 Y:FF P:67 SP:F9 PPU:308,152
FA43  38        SEC                             A:00 X:02 Y:FF P:27 SP:F9 PPU:314,152
FA44  A9 FF     LDA                             A:00 X:02 Y:FF P:27 SP:F9 PPU:320,152
FA46  60        RTS                             A:FF X:02 Y:FF P:A5 SP:F9 PPU:326,152
EA47  D3 45     DCP                             A:FF X:02 Y:FF P:A5 SP:FB PPU:  3,153
EA49  EA        NOP                             A:FF X:02 Y:FF P:27 SP:FB PPU: 27,153
EA4A  EA        NOP                             A:FF X:02 Y:FF P:27 SP:FB PPU: 33,153
EA4B  08        PHP                             A:FF X:02 Y:FF P:27 SP:FB PPU: 39,153
EA4C  48        PHA                             A:FF X:02 Y:FF P:27 SP:FA PPU: 48,153
EA4D  A0 9F     LDY                             A:FF X:02 Y:FF P:27 SP:F9 PPU: 57,153
EA4F  68        PLA                             A:FF X:02 Y:9F P:A5 SP:F9 PPU: 63,153
EA50  28        PLP                             A:FF X:02 Y:9F P:A5 SP:FA PPU: 75,153
EA51  20 47 FA  JSR                             A:FF X:02 Y:9F P:27 SP:FB PPU: 87,153
FA47  70 1C     BVS                             A:FF X:02 Y:9F P:27 SP:F9 PPU:105,153
FA49  D0 1A     BNE                             A:FF X:02 Y:9F P:27 SP:F9 PPU:111,153
FA4B  30 18     BMI                             A:FF X:02 Y:9F P:27 SP:F9 PPU:117,153
FA4D  90 16     BCC                             A:FF X:02 Y:9F P:27 SP:F9 PPU:123,153
FA4F  C9 FF     CMP                             A:FF X:02 Y:9F P:27 SP:F9 PPU:129,153
FA51  D0 12     BNE                             A:FF X:02 Y:9F P:27 SP:F9 PPU:135,153
FA53  60        RTS                             A:FF X:02 Y:9F P:27 SP:F9 PPU:141,153
EA54  AD 47 06  LDA                             A:FF X:02 Y:9F P:27 SP:FB PPU:159,153
EA57  C9 FF     CMP                             A:FF X:02 Y:9F P:A5 SP:FB PPU:171,153
EA59  F0 02     BEQ                             A:FF X:02 Y:9F P:27 SP:FB PPU:177,153
EA5D  A0 FF     LDY                             A:FF X:02 Y:9F P:27 SP:FB PPU:186,153
EA5F  A9 37     LDA                             A:FF X:02 Y:FF P:A5 SP:FB PPU:192,153
EA61  8D 47 06  STA                             A:37 X:02 Y:FF P:25 SP:FB PPU:198,153
EA64  20 54 FA  JSR                             A:37 X:02 Y:FF P:25 SP:FB PPU:210,153
FA54  24 01     BIT                             A:37 X:02 Y:FF P:25 SP:F9 PPU:228,153
FA56  A9 F0     LDA                             A:37 X:02 Y:FF P:E5 SP:F9 PPU:237,153
FA58  60        RTS                             A:F0 X:02 Y:FF P:E5 SP:F9 PPU:243,153
EA67  D3 45     DCP                             A:F0 X:02 Y:FF P:E5 SP:FB PPU:261,153
EA69  EA        NOP                             A:F0 X:02 Y:FF P:E5 SP:FB PPU:285,153
EA6A  EA        NOP                             A:F0 X:02 Y:FF P:E5 SP:FB PPU:291,153
EA6B  08        PHP                             A:F0 X:02 Y:FF P:E5 SP:FB PPU:297,153
EA6C  48        PHA                             A:F0 X:02 Y:FF P:E5 SP:FA PPU:306,153
EA6D  A0 A0     LDY                             A:F0 X:02 Y:FF P:E5 SP:F9 PPU:315,153
EA6F  68        PLA                             A:F0 X:02 Y:A0 P:E5 SP:F9 PPU:321,153
EA70  28        PLP                             A:F0 X:02 Y:A0 P:E5 SP:FA PPU:333,153
EA71  20 59 FA  JSR                             A:F0 X:02 Y:A0 P:E5 SP:FB PPU:  4,154
FA59  50 0A     BVC                             A:F0 X:02 Y:A0 P:E5 SP:F9 PPU: 22,154
FA5B  F0 08     BEQ                             A:F0 X:02 Y:A0 P:E5 SP:F9 PPU: 28,154
FA5D  10 06     BPL                             A:F0 X:02 Y:A0 P:E5 SP:F9 PPU: 34,154
FA5F  90 04     BCC                             A:F0 X:02 Y:A0 P:E5 SP:F9 PPU: 40,154
FA61  C9 F0     CMP                             A:F0 X:02 Y:A0 P:E5 SP:F9 PPU: 46,154
FA63  F0 02     BEQ                             A:F0 X:02 Y:A0 P:67 SP:F9 PPU: 52,154
FA67  60        RTS                             A:F0 X:02 Y:A0 P:67 SP:F9 PPU: 61,154
EA74  AD 47 06  LDA                             A:F0 X:02 Y:A0 P:67 SP:FB PPU: 79,154
EA77  C9 36     CMP                             A:36 X:02 Y:A0 P:65 SP:FB PPU: 91,154
EA79  F0 02     BEQ                             A:36 X:02 Y:A0 P:67 SP:FB PPU: 97,154
EA7D  A0 A1     LDY                             A:36 X:02 Y:A0 P:67 SP:FB PPU:106,154
EA7F  A2 FF     LDX                             A:36 X:02 Y:A1 P:E5 SP:FB PPU:112,154
EA81  A9 EB     LDA                             A:36 X:FF Y:A1 P:E5 SP:FB PPU:118,154
EA83  85 47     STA                             A:EB X:FF Y:A1 P:E5 SP:FB PPU:124,154
EA85  20 31 FA  JSR                             A:EB X:FF Y:A1 P:E5 SP:FB PPU:133,154
FA31  24 01     BIT                             A:EB X:FF Y:A1 P:E5 SP:F9 PPU:151,154
FA33  18        CLC                             A:EB X:FF Y:A1 P:E5 SP:F9 PPU:160,154
FA34  A9 40     LDA                             A:EB X:FF Y:A1 P:E4 SP:F9 PPU:166,154
FA36  60        RTS                             A:40 X:FF Y:A1 P:64 SP:F9 PPU:172,154
EA88  D7 48     DCP                             A:40 X:FF Y:A1 P:64 SP:FB PPU:190,154
EA8A  EA        NOP                             A:40 X:FF Y:A1 P:64 SP:FB PPU:208,154
EA8B  EA        NOP                             A:40 X:FF Y:A1 P:64 SP:FB PPU:214,154
EA8C  EA        NOP                             A:40 X:FF Y:A1 P:64 SP:FB PPU:220,154
EA8D  EA        NOP                             A:40 X:FF Y:A1 P:64 SP:FB PPU:226,154
EA8E  20 37 FA  JSR                             A:40 X:FF Y:A1 P:64 SP:FB PPU:232,154
FA37  50 2C     BVC                             A:40 X:FF Y:A1 P:64 SP:F9 PPU:250,154
FA39  B0 2A     BCS                             A:40 X:FF Y:A1 P:64 SP:F9 PPU:256,154
FA3B  30 28     BMI                             A:40 X:FF Y:A1 P:64 SP:F9 PPU:262,154
FA3D  C9 40     CMP                             A:40 X:FF Y:A1 P:64 SP:F9 PPU:268,154
FA3F  D0 24     BNE                             A:40 X:FF Y:A1 P:67 SP:F9 PPU:274,154
FA41  60        RTS                             A:40 X:FF Y:A1 P:67 SP:F9 PPU:280,154
EA91  A5 47     LDA                             A:40 X:FF Y:A1 P:67 SP:FB PPU:298,154
EA93  C9 EA     CMP                             A:EA X:FF Y:A1 P:E5 SP:FB PPU:307,154
EA95  F0 02     BEQ                             A:EA X:FF Y:A1 P:67 SP:FB PPU:313,154
EA99  C8        INY                             A:EA X:FF Y:A1 P:67 SP:FB PPU:322,154
EA9A  A9 00     LDA                             A:EA X:FF Y:A2 P:E5 SP:FB PPU:328,154
EA9C  85 47     STA                             A:00 X:FF Y:A2 P:67 SP:FB PPU:334,154
EA9E  20 42 FA  JSR                             A:00 X:FF Y:A2 P:67 SP:FB PPU:  2,155
FA42  B8        CLV                             A:00 X:FF Y:A2 P:67 SP:F9 PPU: 20,155
FA43  38        SEC                             A:00 X:FF Y:A2 P:27 SP:F9 PPU: 26,155
FA44  A9 FF     LDA                             A:00 X:FF Y:A2 P:27 SP:F9 PPU: 32,155
FA46  60        RTS                             A:FF X:FF Y:A2 P:A5 SP:F9 PPU: 38,155
EAA1  D7 48     DCP                             A:FF X:FF Y:A2 P:A5 SP:FB PPU: 56,155
EAA3  EA        NOP                             A:FF X:FF Y:A2 P:27 SP:FB PPU: 74,155
EAA4  EA        NOP                             A:FF X:FF Y:A2 P:27 SP:FB PPU: 80,155
EAA5  EA        NOP                             A:FF X:FF Y:A2 P:27 SP:FB PPU: 86,155
EAA6  EA        NOP                             A:FF X:FF Y:A2 P:27 SP:FB PPU: 92,155
EAA7  20 47 FA  JSR                             A:FF X:FF Y:A2 P:27 SP:FB PPU: 98,155
FA47  70 1C     BVS                             A:FF X:FF Y:A2 P:27 SP:F9 PPU:116,155
FA49  D0 1A     BNE                             A:FF X:FF Y:A2 P:27 SP:F9 PPU:122,155
FA4B  30 18     BMI                             A:FF X:FF Y:A2 P:27 SP:F9 PPU:128,155
FA4D  90 16     BCC                             A:FF X:FF Y:A2 P:27 SP:F9 PPU:134,155
FA4F  C9 FF     CMP                             A:FF X:FF Y:A2 P:27 SP:F9 PPU:140,155
FA51  D0 12     BNE                             A:FF X:FF Y:A2 P:27 SP:F9 PPU:146,155
FA53  60        RTS                             A:FF X:FF Y:A2 P:27 SP:F9 PPU:152,155
EAAA  A5 47     LDA                             A:FF X:FF Y:A2 P:27 SP:FB PPU:170,155
EAAC  C9 FF     CMP                             A:FF X:FF Y:A2 P:A5 SP:FB PPU:179,155
EAAE  F0 02     BEQ                             A:FF X:FF Y:A2 P:27 SP:FB PPU:185,155
EAB2  C8        INY                             A:FF X:FF Y:A2 P:27 SP:FB PPU:194,155
EAB3  A9 37     LDA                             A:FF X:FF Y:A3 P:A5 SP:FB PPU:200,155
EAB5  85 47     STA                             A:37 X:FF Y:A3 P:25 SP:FB PPU:206,155
EAB7  20 54 FA  JSR                             A:37 X:FF Y:A3 P:25 SP:FB PPU:215,155
FA54  24 01     BIT                             A:37 X:FF Y:A3 P:25 SP:F9 PPU:233,155
FA56  A9 F0     LDA                             A:37 X:FF Y:A3 P:E5 SP:F9 PPU:242,155
FA58  60        RTS                             A:F0 X:FF Y:A3 P:E5 SP:F9 PPU:248,155
EABA  D7 48     DCP                             A:F0 X:FF Y:A3 P:E5 SP:FB PPU:266,155
EABC  EA        NOP                             A:F0 X:FF Y:A3 P:E5 SP:FB PPU:284,155
EABD  EA        NOP                             A:F0 X:FF Y:A3 P:E5 SP:FB PPU:290,155
EABE  EA        NOP                             A:F0 X:FF Y:A3 P:E5 SP:FB PPU:296,155
EABF  EA        NOP                             A:F0 X:FF Y:A3 P:E5 SP:FB PPU:302,155
EAC0  20 59 FA  JSR                             A:F0 X:FF Y:A3 P:E5 SP:FB PPU:308,155
FA59  50 0A     BVC                             A:F0 X:FF Y:A3 P:E5 SP:F9 PPU:326,155
FA5B  F0 08     BEQ                             A:F0 X:FF Y:A3 P:E5 SP:F9 PPU:332,155
FA5D  10 06     BPL                             A:F0 X:FF Y:A3 P:E5 SP:F9 PPU:338,155
FA5F  90 04     BCC                             A:F0 X:FF Y:A3 P:E5 SP:F9 PPU:  3,156
FA61  C9 F0     CMP                             A:F0 X:FF Y:A3 P:E5 SP:F9 PPU:  9,156
FA63  F0 02     BEQ                             A:F0 X:FF Y:A3 P:67 SP:F9 PPU: 15,156
FA67  60        RTS                             A:F0 X:FF Y:A3 P:67 SP:F9 PPU: 24,156
EAC3  A5 47     LDA                             A:F0 X:FF Y:A3 P:67 SP:FB PPU: 42,156
EAC5  C9 36     CMP                             A:36 X:FF Y:A3 P:65 SP:FB PPU: 51,156
EAC7  F0 02     BEQ                             A:36 X:FF Y:A3 P:67 SP:FB PPU: 57,156
EACB  A9 EB     LDA                             A:36 X:FF Y:A3 P:67 SP:FB PPU: 66,156
EACD  8D 47 06  STA                             A:EB X:FF Y:A3 P:E5 SP:FB PPU: 72,156
EAD0  A0 FF     LDY                             A:EB X:FF Y:A3 P:E5 SP:FB PPU: 84,156
EAD2  20 31 FA  JSR                             A:EB X:FF Y:FF P:E5 SP:FB PPU: 90,156
FA31  24 01     BIT                             A:EB X:FF Y:FF P:E5 SP:F9 PPU:108,156
FA33  18        CLC                             A:EB X:FF Y:FF P:E5 SP:F9 PPU:117,156
FA34  A9 40     LDA                             A:EB X:FF Y:FF P:E4 SP:F9 PPU:123,156
FA36  60        RTS                             A:40 X:FF Y:FF P:64 SP:F9 PPU:129,156
EAD5  DB 48 05  DCP                             A:40 X:FF Y:FF P:64 SP:FB PPU:147,156
EAD8  EA        NOP                             A:40 X:FF Y:FF P:64 SP:FB PPU:168,156
EAD9  EA        NOP                             A:40 X:FF Y:FF P:64 SP:FB PPU:174,156
EADA  08        PHP                             A:40 X:FF Y:FF P:64 SP:FB PPU:180,156
EADB  48        PHA                             A:40 X:FF Y:FF P:64 SP:FA PPU:189,156
EADC  A0 A4     LDY                             A:40 X:FF Y:FF P:64 SP:F9 PPU:198,156
EADE  68        PLA                             A:40 X:FF Y:A4 P:E4 SP:F9 PPU:204,156
EADF  28        PLP                             A:40 X:FF Y:A4 P:64 SP:FA PPU:216,156
EAE0  20 37 FA  JSR                             A:40 X:FF Y:A4 P:64 SP:FB PPU:228,156
FA37  50 2C     BVC                             A:40 X:FF Y:A4 P:64 SP:F9 PPU:246,156
FA39  B0 2A     BCS                             A:40 X:FF Y:A4 P:64 SP:F9 PPU:252,156
FA3B  30 28     BMI                             A:40 X:FF Y:A4 P:64 SP:F9 PPU:258,156
FA3D  C9 40     CMP                             A:40 X:FF Y:A4 P:64 SP:F9 PPU:264,156
FA3F  D0 24     BNE                             A:40 X:FF Y:A4 P:67 SP:F9 PPU:270,156
FA41  60        RTS                             A:40 X:FF Y:A4 P:67 SP:F9 PPU:276,156
EAE3  AD 47 06  LDA                             A:40 X:FF Y:A4 P:67 SP:FB PPU:294,156
EAE6  C9 EA     CMP                             A:EA X:FF Y:A4 P:E5 SP:FB PPU:306,156
EAE8  F0 02     BEQ                             A:EA X:FF Y:A4 P:67 SP:FB PPU:312,156
EAEC  A0 FF     LDY                             A:EA X:FF Y:A4 P:67 SP:FB PPU:321,156
EAEE  A9 00     LDA                             A:EA X:FF Y:FF P:E5 SP:FB PPU:327,156
EAF0  8D 47 06  STA                             A:00 X:FF Y:FF P:67 SP:FB PPU:333,156
EAF3  20 42 FA  JSR                             A:00 X:FF Y:FF P:67 SP:FB PPU:  4,157
FA42  B8        CLV                             A:00 X:FF Y:FF P:67 SP:F9 PPU: 22,157
FA43  38        SEC                             A:00 X:FF Y:FF P:27 SP:F9 PPU: 28,157
FA44  A9 FF     LDA                             A:00 X:FF Y:FF P:27 SP:F9 PPU: 34,157
FA46  60        RTS                             A:FF X:FF Y:FF P:A5 SP:F9 PPU: 40,157
EAF6  DB 48 05  DCP                             A:FF X:FF Y:FF P:A5 SP:FB PPU: 58,157
EAF9  EA        NOP                             A:FF X:FF Y:FF P:27 SP:FB PPU: 79,157
EAFA  EA        NOP                             A:FF X:FF Y:FF P:27 SP:FB PPU: 85,157
EAFB  08        PHP                             A:FF X:FF Y:FF P:27 SP:FB PPU: 91,157
EAFC  48        PHA                             A:FF X:FF Y:FF P:27 SP:FA PPU:100,157
EAFD  A0 A5     LDY                             A:FF X:FF Y:FF P:27 SP:F9 PPU:109,157
EAFF  68        PLA                             A:FF X:FF Y:A5 P:A5 SP:F9 PPU:115,157
EB00  28        PLP                             A:FF X:FF Y:A5 P:A5 SP:FA PPU:127,157
EB01  20 47 FA  JSR                             A:FF X:FF Y:A5 P:27 SP:FB PPU:139,157
FA47  70 1C     BVS                             A:FF X:FF Y:A5 P:27 SP:F9 PPU:157,157
FA49  D0 1A     BNE                             A:FF X:FF Y:A5 P:27 SP:F9 PPU:163,157
FA4B  30 18     BMI                             A:FF X:FF Y:A5 P:27 SP:F9 PPU:169,157
FA4D  90 16     BCC                             A:FF X:FF Y:A5 P:27 SP:F9 PPU:175,157
FA4F  C9 FF     CMP                             A:FF X:FF Y:A5 P:27 SP:F9 PPU:181,157
FA51  D0 12     BNE                             A:FF X:FF Y:A5 P:27 SP:F9 PPU:187,157
FA53  60        RTS                             A:FF X:FF Y:A5 P:27 SP:F9 PPU:193,157
EB04  AD 47 06  LDA                             A:FF X:FF Y:A5 P:27 SP:FB PPU:211,157
EB07  C9 FF     CMP                             A:FF X:FF Y:A5 P:A5 SP:FB PPU:223,157
EB09  F0 02     BEQ                             A:FF X:FF Y:A5 P:27 SP:FB PPU:229,157
EB0D  A0 FF     LDY                             A:FF X:FF Y:A5 P:27 SP:FB PPU:238,157
EB0F  A9 37     LDA                             A:FF X:FF Y:FF P:A5 SP:FB PPU:244,157
EB11  8D 47 06  STA                             A:37 X:FF Y:FF P:25 SP:FB PPU:250,157
EB14  20 54 FA  JSR                             A:37 X:FF Y:FF P:25 SP:FB PPU:262,157
FA54  24 01     BIT                             A:37 X:FF Y:FF P:25 SP:F9 PPU:280,157
FA56  A9 F0     LDA                             A:37 X:FF Y:FF P:E5 SP:F9 PPU:289,157
FA58  60        RTS                             A:F0 X:FF Y:FF P:E5 SP:F9 PPU:295,157
EB17  DB 48 05  DCP                             A:F0 X:FF Y:FF P:E5 SP:FB PPU:313,157
EB1A  EA        NOP                             A:F0 X:FF Y:FF P:E5 SP:FB PPU:334,157
EB1B  EA        NOP                             A:F0 X:FF Y:FF P:E5 SP:FB PPU:340,157
EB1C  08        PHP                             A:F0 X:FF Y:FF P:E5 SP:FB PPU:  5,158
EB1D  48        PHA                             A:F0 X:FF Y:FF P:E5 SP:FA PPU: 14,158
EB1E  A0 A6     LDY                             A:F0 X:FF Y:FF P:E5 SP:F9 PPU: 23,158
EB20  68        PLA                             A:F0 X:FF Y:A6 P:E5 SP:F9 PPU: 29,158
EB21  28        PLP                             A:F0 X:FF Y:A6 P:E5 SP:FA PPU: 41,158
EB22  20 59 FA  JSR                             A:F0 X:FF Y:A6 P:E5 SP:FB PPU: 53,158
FA59  50 0A     BVC                             A:F0 X:FF Y:A6 P:E5 SP:F9 PPU: 71,158
FA5B  F0 08     BEQ                             A:F0 X:FF Y:A6 P:E5 SP:F9 PPU: 77,158
FA5D  10 06     BPL                             A:F0 X:FF Y:A6 P:E5 SP:F9 PPU: 83,158
FA5F  90 04     BCC                             A:F0 X:FF Y:A6 P:E5 SP:F9 PPU: 89,158
FA61  C9 F0     CMP                             A:F0 X:FF Y:A6 P:E5 SP:F9 PPU: 95,158
FA63  F0 02     BEQ                             A:F0 X:FF Y:A6 P:67 SP:F9 PPU:101,158
FA67  60        RTS                             A:F0 X:FF Y:A6 P:67 SP:F9 PPU:110,158
EB25  AD 47 06  LDA                             A:F0 X:FF Y:A6 P:67 SP:FB PPU:128,158
EB28  C9 36     CMP                             A:36 X:FF Y:A6 P:65 SP:FB PPU:140,158
EB2A  F0 02     BEQ                             A:36 X:FF Y:A6 P:67 SP:FB PPU:146,158
EB2E  A0 A7     LDY                             A:36 X:FF Y:A6 P:67 SP:FB PPU:155,158
EB30  A2 FF     LDX                             A:36 X:FF Y:A7 P:E5 SP:FB PPU:161,158
EB32  A9 EB     LDA                             A:36 X:FF Y:A7 P:E5 SP:FB PPU:167,158
EB34  8D 47 06  STA                             A:EB X:FF Y:A7 P:E5 SP:FB PPU:173,158
EB37  20 31 FA  JSR                             A:EB X:FF Y:A7 P:E5 SP:FB PPU:185,158
FA31  24 01     BIT                             A:EB X:FF Y:A7 P:E5 SP:F9 PPU:203,158
FA33  18        CLC                             A:EB X:FF Y:A7 P:E5 SP:F9 PPU:212,158
FA34  A9 40     LDA                             A:EB X:FF Y:A7 P:E4 SP:F9 PPU:218,158
FA36  60        RTS                             A:40 X:FF Y:A7 P:64 SP:F9 PPU:224,158
EB3A  DF 48 05  DCP                             A:40 X:FF Y:A7 P:64 SP:FB PPU:242,158
EB3D  EA        NOP                             A:40 X:FF Y:A7 P:64 SP:FB PPU:263,158
EB3E  EA        NOP                             A:40 X:FF Y:A7 P:64 SP:FB PPU:269,158
EB3F  EA        NOP                             A:40 X:FF Y:A7 P:64 SP:FB PPU:275,158
EB40  EA        NOP                             A:40 X:FF Y:A7 P:64 SP:FB PPU:281,158
EB41  20 37 FA  JSR                             A:40 X:FF Y:A7 P:64 SP:FB PPU:287,158
FA37  50 2C     BVC                             A:40 X:FF Y:A7 P:64 SP:F9 PPU:305,158
FA39  B0 2A     BCS                             A:40 X:FF Y:A7 P:64 SP:F9 PPU:311,158
FA3B  30 28     BMI                             A:40 X:FF Y:A7 P:64 SP:F9 PPU:317,158
FA3D  C9 40     CMP                             A:40 X:FF Y:A7 P:64 SP:F9 PPU:323,158
FA3F  D0 24     BNE                             A:40 X:FF Y:A7 P:67 SP:F9 PPU:329,158
FA41  60        RTS                             A:40 X:FF Y:A7 P:67 SP:F9 PPU:335,158
EB44  AD 47 06  LDA                             A:40 X:FF Y:A7 P:67 SP:FB PPU: 12,159
EB47  C9 EA     CMP                             A:EA X:FF Y:A7 P:E5 SP:FB PPU: 24,159
EB49  F0 02     BEQ                             A:EA X:FF Y:A7 P:67 SP:FB PPU: 30,159
EB4D  C8        INY                             A:EA X:FF Y:A7 P:67 SP:FB PPU: 39,159
EB4E  A9 00     LDA                             A:EA X:FF Y:A8 P:E5 SP:FB PPU: 45,159
EB50  8D 47 06  STA                             A:00 X:FF Y:A8 P:67 SP:FB PPU: 51,159
EB53  20 42 FA  JSR                             A:00 X:FF Y:A8 P:67 SP:FB PPU: 63,159
FA42  B8        CLV                             A:00 X:FF Y:A8 P:67 SP:F9 PPU: 81,159
FA43  38        SEC                             A:00 X:FF Y:A8 P:27 SP:F9 PPU: 87,159
FA44  A9 FF     LDA                             A:00 X:FF Y:A8 P:27 SP:F9 PPU: 93,159
FA46  60        RTS                             A:FF X:FF Y:A8 P:A5 SP:F9 PPU: 99,159
EB56  DF 48 05  DCP                             A:FF X:FF Y:A8 P:A5 SP:FB PPU:117,159
EB59  EA        NOP                             A:FF X:FF Y:A8 P:27 SP:FB PPU:138,159
EB5A  EA        NOP                             A:FF X:FF Y:A8 P:27 SP:FB PPU:144,159
EB5B  EA        NOP                             A:FF X:FF Y:A8 P:27 SP:FB PPU:150,159
EB5C  EA        NOP                             A:FF X:FF Y:A8 P:27 SP:FB PPU:156,159
EB5D  20 47 FA  JSR                             A:FF X:FF Y:A8 P:27 SP:FB PPU:162,159
FA47  70 1C     BVS                             A:FF X:FF Y:A8 P:27 SP:F9 PPU:180,159
FA49  D0 1A     BNE                             A:FF X:FF Y:A8 P:27 SP:F9 PPU:186,159
FA4B  30 18     BMI                             A:FF X:FF Y:A8 P:27 SP:F9 PPU:192,159
FA4D  90 16     BCC                             A:FF X:FF Y:A8 P:27 SP:F9 PPU:198,159
FA4F  C9 FF     CMP                             A:FF X:FF Y:A8 P:27 SP:F9 PPU:204,159
FA51  D0 12     BNE                             A:FF X:FF Y:A8 P:27 SP:F9 PPU:210,159
FA53  60        RTS                             A:FF X:FF Y:A8 P:27 SP:F9 PPU:216,159
EB60  AD 47 06  LDA                             A:FF X:FF Y:A8 P:27 SP:FB PPU:234,159
EB63  C9 FF     CMP                             A:FF X:FF Y:A8 P:A5 SP:FB PPU:246,159
EB65  F0 02     BEQ                             A:FF X:FF Y:A8 P:27 SP:FB PPU:252,159
EB69  C8        INY                             A:FF X:FF Y:A8 P:27 SP:FB PPU:261,159
EB6A  A9 37     LDA                             A:FF X:FF Y:A9 P:A5 SP:FB PPU:267,159
EB6C  8D 47 06  STA                             A:37 X:FF Y:A9 P:25 SP:FB PPU:273,159
EB6F  20 54 FA  JSR                             A:37 X:FF Y:A9 P:25 SP:FB PPU:285,159
FA54  24 01     BIT                             A:37 X:FF Y:A9 P:25 SP:F9 PPU:303,159
FA56  A9 F0     LDA                             A:37 X:FF Y:A9 P:E5 SP:F9 PPU:312,159
FA58  60        RTS                             A:F0 X:FF Y:A9 P:E5 SP:F9 PPU:318,159
EB72  DF 48 05  DCP                             A:F0 X:FF Y:A9 P:E5 SP:FB PPU:336,159
EB75  EA        NOP                             A:F0 X:FF Y:A9 P:E5 SP:FB PPU: 16,160
EB76  EA        NOP                             A:F0 X:FF Y:A9 P:E5 SP:FB PPU: 22,160
EB77  EA        NOP                             A:F0 X:FF Y:A9 P:E5 SP:FB PPU: 28,160
EB78  EA        NOP                             A:F0 X:FF Y:A9 P:E5 SP:FB PPU: 34,160
EB79  20 59 FA  JSR                             A:F0 X:FF Y:A9 P:E5 SP:FB PPU: 40,160
FA59  50 0A     BVC                             A:F0 X:FF Y:A9 P:E5 SP:F9 PPU: 58,160
FA5B  F0 08     BEQ                             A:F0 X:FF Y:A9 P:E5 SP:F9 PPU: 64,160
FA5D  10 06     BPL                             A:F0 X:FF Y:A9 P:E5 SP:F9 PPU: 70,160
FA5F  90 04     BCC                             A:F0 X:FF Y:A9 P:E5 SP:F9 PPU: 76,160
FA61  C9 F0     CMP                             A:F0 X:FF Y:A9 P:E5 SP:F9 PPU: 82,160
FA63  F0 02     BEQ                             A:F0 X:FF Y:A9 P:67 SP:F9 PPU: 88,160
FA67  60        RTS                             A:F0 X:FF Y:A9 P:67 SP:F9 PPU: 97,160
EB7C  AD 47 06  LDA                             A:F0 X:FF Y:A9 P:67 SP:FB PPU:115,160
EB7F  C9 36     CMP                             A:36 X:FF Y:A9 P:65 SP:FB PPU:127,160
EB81  F0 02     BEQ                             A:36 X:FF Y:A9 P:67 SP:FB PPU:133,160
EB85  60        RTS                             A:36 X:FF Y:A9 P:67 SP:FB PPU:142,160
C63E  20 86 EB  JSR                             A:36 X:FF Y:A9 P:67 SP:FD PPU:160,160
EB86  A9 FF     LDA                             A:36 X:FF Y:A9 P:67 SP:FB PPU:178,160
EB88  85 01     STA                             A:FF X:FF Y:A9 P:E5 SP:FB PPU:184,160
EB8A  A0 AA     LDY                             A:FF X:FF Y:A9 P:E5 SP:FB PPU:193,160
EB8C  A2 02     LDX                             A:FF X:FF Y:AA P:E5 SP:FB PPU:199,160
EB8E  A9 47     LDA                             A:FF X:02 Y:AA P:65 SP:FB PPU:205,160
EB90  85 47     STA                             A:47 X:02 Y:AA P:65 SP:FB PPU:211,160
EB92  A9 06     LDA                             A:47 X:02 Y:AA P:65 SP:FB PPU:220,160
EB94  85 48     STA                             A:06 X:02 Y:AA P:65 SP:FB PPU:226,160
EB96  A9 EB     LDA                             A:06 X:02 Y:AA P:65 SP:FB PPU:235,160
EB98  8D 47 06  STA                             A:EB X:02 Y:AA P:E5 SP:FB PPU:241,160
EB9B  20 B1 FA  JSR                             A:EB X:02 Y:AA P:E5 SP:FB PPU:253,160
FAB1  24 01     BIT                             A:EB X:02 Y:AA P:E5 SP:F9 PPU:271,160
FAB3  18        CLC                             A:EB X:02 Y:AA P:E5 SP:F9 PPU:280,160
FAB4  A9 40     LDA                             A:EB X:02 Y:AA P:E4 SP:F9 PPU:286,160
FAB6  60        RTS                             A:40 X:02 Y:AA P:64 SP:F9 PPU:292,160
EB9E  E3 45     ISB                             A:40 X:02 Y:AA P:64 SP:FB PPU:310,160
EBA0  EA        NOP                             A:53 X:02 Y:AA P:24 SP:FB PPU:334,160
EBA1  EA        NOP                             A:53 X:02 Y:AA P:24 SP:FB PPU:340,160
EBA2  EA        NOP                             A:53 X:02 Y:AA P:24 SP:FB PPU:  5,161
EBA3  EA        NOP                             A:53 X:02 Y:AA P:24 SP:FB PPU: 11,161
EBA4  20 B7 FA  JSR                             A:53 X:02 Y:AA P:24 SP:FB PPU: 17,161
FAB7  70 2D     BVS                             A:53 X:02 Y:AA P:24 SP:F9 PPU: 35,161
FAB9  B0 2B     BCS                             A:53 X:02 Y:AA P:24 SP:F9 PPU: 41,161
FABB  30 29     BMI                             A:53 X:02 Y:AA P:24 SP:F9 PPU: 47,161
FABD  C9 53     CMP                             A:53 X:02 Y:AA P:24 SP:F9 PPU: 53,161
FABF  D0 25     BNE                             A:53 X:02 Y:AA P:27 SP:F9 PPU: 59,161
FAC1  60        RTS                             A:53 X:02 Y:AA P:27 SP:F9 PPU: 65,161
EBA7  AD 47 06  LDA                             A:53 X:02 Y:AA P:27 SP:FB PPU: 83,161
EBAA  C9 EC     CMP                             A:EC X:02 Y:AA P:A5 SP:FB PPU: 95,161
EBAC  F0 02     BEQ                             A:EC X:02 Y:AA P:27 SP:FB PPU:101,161
EBB0  C8        INY                             A:EC X:02 Y:AA P:27 SP:FB PPU:110,161
EBB1  A9 FF     LDA                             A:EC X:02 Y:AB P:A5 SP:FB PPU:116,161
EBB3  8D 47 06  STA                             A:FF X:02 Y:AB P:A5 SP:FB PPU:122,161
EBB6  20 C2 FA  JSR                             A:FF X:02 Y:AB P:A5 SP:FB PPU:134,161
FAC2  B8        CLV                             A:FF X:02 Y:AB P:A5 SP:F9 PPU:152,161
FAC3  38        SEC                             A:FF X:02 Y:AB P:A5 SP:F9 PPU:158,161
FAC4  A9 FF     LDA                             A:FF X:02 Y:AB P:A5 SP:F9 PPU:164,161
FAC6  60        RTS                             A:FF X:02 Y:AB P:A5 SP:F9 PPU:170,161
EBB9  E3 45     ISB                             A:FF X:02 Y:AB P:A5 SP:FB PPU:188,161
EBBB  EA        NOP                             A:FF X:02 Y:AB P:A5 SP:FB PPU:212,161
EBBC  EA        NOP                             A:FF X:02 Y:AB P:A5 SP:FB PPU:218,161
EBBD  EA        NOP                             A:FF X:02 Y:AB P:A5 SP:FB PPU:224,161
EBBE  EA        NOP                             A:FF X:02 Y:AB P:A5 SP:FB PPU:230,161
EBBF  20 C7 FA  JSR                             A:FF X:02 Y:AB P:A5 SP:FB PPU:236,161
FAC7  70 1D     BVS                             A:FF X:02 Y:AB P:A5 SP:F9 PPU:254,161
FAC9  F0 1B     BEQ                             A:FF X:02 Y:AB P:A5 SP:F9 PPU:260,161
FACB  10 19     BPL                             A:FF X:02 Y:AB P:A5 SP:F9 PPU:266,161
FACD  90 17     BCC                             A:FF X:02 Y:AB P:A5 SP:F9 PPU:272,161
FACF  C9 FF     CMP                             A:FF X:02 Y:AB P:A5 SP:F9 PPU:278,161
FAD1  D0 13     BNE                             A:FF X:02 Y:AB P:27 SP:F9 PPU:284,161
FAD3  60        RTS                             A:FF X:02 Y:AB P:27 SP:F9 PPU:290,161
EBC2  AD 47 06  LDA                             A:FF X:02 Y:AB P:27 SP:FB PPU:308,161
EBC5  C9 00     CMP                             A:00 X:02 Y:AB P:27 SP:FB PPU:320,161
EBC7  F0 02     BEQ                             A:00 X:02 Y:AB P:27 SP:FB PPU:326,161
EBCB  C8        INY                             A:00 X:02 Y:AB P:27 SP:FB PPU:335,161
EBCC  A9 37     LDA                             A:00 X:02 Y:AC P:A5 SP:FB PPU:  0,162
EBCE  8D 47 06  STA                             A:37 X:02 Y:AC P:25 SP:FB PPU:  6,162
EBD1  20 D4 FA  JSR                             A:37 X:02 Y:AC P:25 SP:FB PPU: 18,162
FAD4  24 01     BIT                             A:37 X:02 Y:AC P:25 SP:F9 PPU: 36,162
FAD6  38        SEC                             A:37 X:02 Y:AC P:E5 SP:F9 PPU: 45,162
FAD7  A9 F0     LDA                             A:37 X:02 Y:AC P:E5 SP:F9 PPU: 51,162
FAD9  60        RTS                             A:F0 X:02 Y:AC P:E5 SP:F9 PPU: 57,162
EBD4  E3 45     ISB                             A:F0 X:02 Y:AC P:E5 SP:FB PPU: 75,162
EBD6  EA        NOP                             A:B8 X:02 Y:AC P:A5 SP:FB PPU: 99,162
EBD7  EA        NOP                             A:B8 X:02 Y:AC P:A5 SP:FB PPU:105,162
EBD8  EA        NOP                             A:B8 X:02 Y:AC P:A5 SP:FB PPU:111,162
EBD9  EA        NOP                             A:B8 X:02 Y:AC P:A5 SP:FB PPU:117,162
EBDA  20 DA FA  JSR                             A:B8 X:02 Y:AC P:A5 SP:FB PPU:123,162
FADA  70 0A     BVS                             A:B8 X:02 Y:AC P:A5 SP:F9 PPU:141,162
FADC  F0 08     BEQ                             A:B8 X:02 Y:AC P:A5 SP:F9 PPU:147,162
FADE  10 06     BPL                             A:B8 X:02 Y:AC P:A5 SP:F9 PPU:153,162
FAE0  90 04     BCC                             A:B8 X:02 Y:AC P:A5 SP:F9 PPU:159,162
FAE2  C9 B8     CMP                             A:B8 X:02 Y:AC P:A5 SP:F9 PPU:165,162
FAE4  F0 02     BEQ                             A:B8 X:02 Y:AC P:27 SP:F9 PPU:171,162
FAE8  60        RTS                             A:B8 X:02 Y:AC P:27 SP:F9 PPU:180,162
EBDD  AD 47 06  LDA                             A:B8 X:02 Y:AC P:27 SP:FB PPU:198,162
EBE0  C9 38     CMP                             A:38 X:02 Y:AC P:25 SP:FB PPU:210,162
EBE2  F0 02     BEQ                             A:38 X:02 Y:AC P:27 SP:FB PPU:216,162
EBE6  C8        INY                             A:38 X:02 Y:AC P:27 SP:FB PPU:225,162
EBE7  A9 EB     LDA                             A:38 X:02 Y:AD P:A5 SP:FB PPU:231,162
EBE9  85 47     STA                             A:EB X:02 Y:AD P:A5 SP:FB PPU:237,162
EBEB  20 B1 FA  JSR                             A:EB X:02 Y:AD P:A5 SP:FB PPU:246,162
FAB1  24 01     BIT                             A:EB X:02 Y:AD P:A5 SP:F9 PPU:264,162
FAB3  18        CLC                             A:EB X:02 Y:AD P:E5 SP:F9 PPU:273,162
FAB4  A9 40     LDA                             A:EB X:02 Y:AD P:E4 SP:F9 PPU:279,162
FAB6  60        RTS                             A:40 X:02 Y:AD P:64 SP:F9 PPU:285,162
EBEE  E7 47     ISB                             A:40 X:02 Y:AD P:64 SP:FB PPU:303,162
EBF0  EA        NOP                             A:53 X:02 Y:AD P:24 SP:FB PPU:318,162
EBF1  EA        NOP                             A:53 X:02 Y:AD P:24 SP:FB PPU:324,162
EBF2  EA        NOP                             A:53 X:02 Y:AD P:24 SP:FB PPU:330,162
EBF3  EA        NOP                             A:53 X:02 Y:AD P:24 SP:FB PPU:336,162
EBF4  20 B7 FA  JSR                             A:53 X:02 Y:AD P:24 SP:FB PPU:  1,163
FAB7  70 2D     BVS                             A:53 X:02 Y:AD P:24 SP:F9 PPU: 19,163
FAB9  B0 2B     BCS                             A:53 X:02 Y:AD P:24 SP:F9 PPU: 25,163
FABB  30 29     BMI                             A:53 X:02 Y:AD P:24 SP:F9 PPU: 31,163
FABD  C9 53     CMP                             A:53 X:02 Y:AD P:24 SP:F9 PPU: 37,163
FABF  D0 25     BNE                             A:53 X:02 Y:AD P:27 SP:F9 PPU: 43,163
FAC1  60        RTS                             A:53 X:02 Y:AD P:27 SP:F9 PPU: 49,163
EBF7  A5 47     LDA                             A:53 X:02 Y:AD P:27 SP:FB PPU: 67,163
EBF9  C9 EC     CMP                             A:EC X:02 Y:AD P:A5 SP:FB PPU: 76,163
EBFB  F0 02     BEQ                             A:EC X:02 Y:AD P:27 SP:FB PPU: 82,163
EBFF  C8        INY                             A:EC X:02 Y:AD P:27 SP:FB PPU: 91,163
EC00  A9 FF     LDA                             A:EC X:02 Y:AE P:A5 SP:FB PPU: 97,163
EC02  85 47     STA                             A:FF X:02 Y:AE P:A5 SP:FB PPU:103,163
EC04  20 C2 FA  JSR                             A:FF X:02 Y:AE P:A5 SP:FB PPU:112,163
FAC2  B8        CLV                             A:FF X:02 Y:AE P:A5 SP:F9 PPU:130,163
FAC3  38        SEC                             A:FF X:02 Y:AE P:A5 SP:F9 PPU:136,163
FAC4  A9 FF     LDA                             A:FF X:02 Y:AE P:A5 SP:F9 PPU:142,163
FAC6  60        RTS                             A:FF X:02 Y:AE P:A5 SP:F9 PPU:148,163
EC07  E7 47     ISB                             A:FF X:02 Y:AE P:A5 SP:FB PPU:166,163
EC09  EA        NOP                             A:FF X:02 Y:AE P:A5 SP:FB PPU:181,163
EC0A  EA        NOP                             A:FF X:02 Y:AE P:A5 SP:FB PPU:187,163
EC0B  EA        NOP                             A:FF X:02 Y:AE P:A5 SP:FB PPU:193,163
EC0C  EA        NOP                             A:FF X:02 Y:AE P:A5 SP:FB PPU:199,163
EC0D  20 C7 FA  JSR                             A:FF X:02 Y:AE P:A5 SP:FB PPU:205,163
FAC7  70 1D     BVS                             A:FF X:02 Y:AE P:A5 SP:F9 PPU:223,163
FAC9  F0 1B     BEQ                             A:FF X:02 Y:AE P:A5 SP:F9 PPU:229,163
FACB  10 19     BPL                             A:FF X:02 Y:AE P:A5 SP:F9 PPU:235,163
FACD  90 17     BCC                             A:FF X:02 Y:AE P:A5 SP:F9 PPU:241,163
FACF  C9 FF     CMP                             A:FF X:02 Y:AE P:A5 SP:F9 PPU:247,163
FAD1  D0 13     BNE                             A:FF X:02 Y:AE P:27 SP:F9 PPU:253,163
FAD3  60        RTS                             A:FF X:02 Y:AE P:27 SP:F9 PPU:259,163
EC10  A5 47     LDA                             A:FF X:02 Y:AE P:27 SP:FB PPU:277,163
EC12  C9 00     CMP                             A:00 X:02 Y:AE P:27 SP:FB PPU:286,163
EC14  F0 02     BEQ                             A:00 X:02 Y:AE P:27 SP:FB PPU:292,163
EC18  C8        INY                             A:00 X:02 Y:AE P:27 SP:FB PPU:301,163
EC19  A9 37     LDA                             A:00 X:02 Y:AF P:A5 SP:FB PPU:307,163
EC1B  85 47     STA                             A:37 X:02 Y:AF P:25 SP:FB PPU:313,163
EC1D  20 D4 FA  JSR                             A:37 X:02 Y:AF P:25 SP:FB PPU:322,163
FAD4  24 01     BIT                             A:37 X:02 Y:AF P:25 SP:F9 PPU:340,163
FAD6  38        SEC                             A:37 X:02 Y:AF P:E5 SP:F9 PPU:  8,164
FAD7  A9 F0     LDA                             A:37 X:02 Y:AF P:E5 SP:F9 PPU: 14,164
FAD9  60        RTS                             A:F0 X:02 Y:AF P:E5 SP:F9 PPU: 20,164
EC20  E7 47     ISB                             A:F0 X:02 Y:AF P:E5 SP:FB PPU: 38,164
EC22  EA        NOP                             A:B8 X:02 Y:AF P:A5 SP:FB PPU: 53,164
EC23  EA        NOP                             A:B8 X:02 Y:AF P:A5 SP:FB PPU: 59,164
EC24  EA        NOP                             A:B8 X:02 Y:AF P:A5 SP:FB PPU: 65,164
EC25  EA        NOP                             A:B8 X:02 Y:AF P:A5 SP:FB PPU: 71,164
EC26  20 DA FA  JSR                             A:B8 X:02 Y:AF P:A5 SP:FB PPU: 77,164
FADA  70 0A     BVS                             A:B8 X:02 Y:AF P:A5 SP:F9 PPU: 95,164
FADC  F0 08     BEQ                             A:B8 X:02 Y:AF P:A5 SP:F9 PPU:101,164
FADE  10 06     BPL                             A:B8 X:02 Y:AF P:A5 SP:F9 PPU:107,164
FAE0  90 04     BCC                             A:B8 X:02 Y:AF P:A5 SP:F9 PPU:113,164
FAE2  C9 B8     CMP                             A:B8 X:02 Y:AF P:A5 SP:F9 PPU:119,164
FAE4  F0 02     BEQ                             A:B8 X:02 Y:AF P:27 SP:F9 PPU:125,164
FAE8  60        RTS                             A:B8 X:02 Y:AF P:27 SP:F9 PPU:134,164
EC29  A5 47     LDA                             A:B8 X:02 Y:AF P:27 SP:FB PPU:152,164
EC2B  C9 38     CMP                             A:38 X:02 Y:AF P:25 SP:FB PPU:161,164
EC2D  F0 02     BEQ                             A:38 X:02 Y:AF P:27 SP:FB PPU:167,164
EC31  C8        INY                             A:38 X:02 Y:AF P:27 SP:FB PPU:176,164
EC32  A9 EB     LDA                             A:38 X:02 Y:B0 P:A5 SP:FB PPU:182,164
EC34  8D 47 06  STA                             A:EB X:02 Y:B0 P:A5 SP:FB PPU:188,164
EC37  20 B1 FA  JSR                             A:EB X:02 Y:B0 P:A5 SP:FB PPU:200,164
FAB1  24 01     BIT                             A:EB X:02 Y:B0 P:A5 SP:F9 PPU:218,164
FAB3  18        CLC                             A:EB X:02 Y:B0 P:E5 SP:F9 PPU:227,164
FAB4  A9 40     LDA                             A:EB X:02 Y:B0 P:E4 SP:F9 PPU:233,164
FAB6  60        RTS                             A:40 X:02 Y:B0 P:64 SP:F9 PPU:239,164
EC3A  EF 47 06  ISB                             A:40 X:02 Y:B0 P:64 SP:FB PPU:257,164
EC3D  EA        NOP                             A:53 X:02 Y:B0 P:24 SP:FB PPU:275,164
EC3E  EA        NOP                             A:53 X:02 Y:B0 P:24 SP:FB PPU:281,164
EC3F  EA        NOP                             A:53 X:02 Y:B0 P:24 SP:FB PPU:287,164
EC40  EA        NOP                             A:53 X:02 Y:B0 P:24 SP:FB PPU:293,164
EC41  20 B7 FA  JSR                             A:53 X:02 Y:B0 P:24 SP:FB PPU:299,164
FAB7  70 2D     BVS                             A:53 X:02 Y:B0 P:24 SP:F9 PPU:317,164
FAB9  B0 2B     BCS                             A:53 X:02 Y:B0 P:24 SP:F9 PPU:323,164
FABB  30 29     BMI                             A:53 X:02 Y:B0 P:24 SP:F9 PPU:329,164
FABD  C9 53     CMP                             A:53 X:02 Y:B0 P:24 SP:F9 PPU:335,164
FABF  D0 25     BNE                             A:53 X:02 Y:B0 P:27 SP:F9 PPU:  0,165
FAC1  60        RTS                             A:53 X:02 Y:B0 P:27 SP:F9 PPU:  6,165
EC44  AD 47 06  LDA                             A:53 X:02 Y:B0 P:27 SP:FB PPU: 24,165
EC47  C9 EC     CMP                             A:EC X:02 Y:B0 P:A5 SP:FB PPU: 36,165
EC49  F0 02     BEQ                             A:EC X:02 Y:B0 P:27 SP:FB PPU: 42,165
EC4D  C8        INY                             A:EC X:02 Y:B0 P:27 SP:FB PPU: 51,165
EC4E  A9 FF     LDA                             A:EC X:02 Y:B1 P:A5 SP:FB PPU: 57,165
EC50  8D 47 06  STA                             A:FF X:02 Y:B1 P:A5 SP:FB PPU: 63,165
EC53  20 C2 FA  JSR                             A:FF X:02 Y:B1 P:A5 SP:FB PPU: 75,165
FAC2  B8        CLV                             A:FF X:02 Y:B1 P:A5 SP:F9 PPU: 93,165
FAC3  38        SEC                             A:FF X:02 Y:B1 P:A5 SP:F9 PPU: 99,165
FAC4  A9 FF     LDA                             A:FF X:02 Y:B1 P:A5 SP:F9 PPU:105,165
FAC6  60        RTS                             A:FF X:02 Y:B1 P:A5 SP:F9 PPU:111,165
EC56  EF 47 06  ISB                             A:FF X:02 Y:B1 P:A5 SP:FB PPU:129,165
EC59  EA        NOP                             A:FF X:02 Y:B1 P:A5 SP:FB PPU:147,165
EC5A  EA        NOP                             A:FF X:02 Y:B1 P:A5 SP:FB PPU:153,165
EC5B  EA        NOP                             A:FF X:02 Y:B1 P:A5 SP:FB PPU:159,165
EC5C  EA        NOP                             A:FF X:02 Y:B1 P:A5 SP:FB PPU:165,165
EC5D  20 C7 FA  JSR                             A:FF X:02 Y:B1 P:A5 SP:FB PPU:171,165
FAC7  70 1D     BVS                             A:FF X:02 Y:B1 P:A5 SP:F9 PPU:189,165
FAC9  F0 1B     BEQ                             A:FF X:02 Y:B1 P:A5 SP:F9 PPU:195,165
FACB  10 19     BPL                             A:FF X:02 Y:B1 P:A5 SP:F9 PPU:201,165
FACD  90 17     BCC                             A:FF X:02 Y:B1 P:A5 SP:F9 PPU:207,165
FACF  C9 FF     CMP                             A:FF X:02 Y:B1 P:A5 SP:F9 PPU:213,165
FAD1  D0 13     BNE                             A:FF X:02 Y:B1 P:27 SP:F9 PPU:219,165
FAD3  60        RTS                             A:FF X:02 Y:B1 P:27 SP:F9 PPU:225,165
EC60  AD 47 06  LDA                             A:FF X:02 Y:B1 P:27 SP:FB PPU:243,165
EC63  C9 00     CMP                             A:00 X:02 Y:B1 P:27 SP:FB PPU:255,165
EC65  F0 02     BEQ                             A:00 X:02 Y:B1 P:27 SP:FB PPU:261,165
EC69  C8        INY                             A:00 X:02 Y:B1 P:27 SP:FB PPU:270,165
EC6A  A9 37     LDA                             A:00 X:02 Y:B2 P:A5 SP:FB PPU:276,165
EC6C  8D 47 06  STA                             A:37 X:02 Y:B2 P:25 SP:FB PPU:282,165
EC6F  20 D4 FA  JSR                             A:37 X:02 Y:B2 P:25 SP:FB PPU:294,165
FAD4  24 01     BIT                             A:37 X:02 Y:B2 P:25 SP:F9 PPU:312,165
FAD6  38        SEC                             A:37 X:02 Y:B2 P:E5 SP:F9 PPU:321,165
FAD7  A9 F0     LDA                             A:37 X:02 Y:B2 P:E5 SP:F9 PPU:327,165
FAD9  60        RTS                             A:F0 X:02 Y:B2 P:E5 SP:F9 PPU:333,165
EC72  EF 47 06  ISB                             A:F0 X:02 Y:B2 P:E5 SP:FB PPU: 10,166
EC75  EA        NOP                             A:B8 X:02 Y:B2 P:A5 SP:FB PPU: 28,166
EC76  EA        NOP                             A:B8 X:02 Y:B2 P:A5 SP:FB PPU: 34,166
EC77  EA        NOP                             A:B8 X:02 Y:B2 P:A5 SP:FB PPU: 40,166
EC78  EA        NOP                             A:B8 X:02 Y:B2 P:A5 SP:FB PPU: 46,166
EC79  20 DA FA  JSR                             A:B8 X:02 Y:B2 P:A5 SP:FB PPU: 52,166
FADA  70 0A     BVS                             A:B8 X:02 Y:B2 P:A5 SP:F9 PPU: 70,166
FADC  F0 08     BEQ                             A:B8 X:02 Y:B2 P:A5 SP:F9 PPU: 76,166
FADE  10 06     BPL                             A:B8 X:02 Y:B2 P:A5 SP:F9 PPU: 82,166
FAE0  90 04     BCC                             A:B8 X:02 Y:B2 P:A5 SP:F9 PPU: 88,166
FAE2  C9 B8     CMP                             A:B8 X:02 Y:B2 P:A5 SP:F9 PPU: 94,166
FAE4  F0 02     BEQ                             A:B8 X:02 Y:B2 P:27 SP:F9 PPU:100,166
FAE8  60        RTS                             A:B8 X:02 Y:B2 P:27 SP:F9 PPU:109,166
EC7C  AD 47 06  LDA                             A:B8 X:02 Y:B2 P:27 SP:FB PPU:127,166
EC7F  C9 38     CMP                             A:38 X:02 Y:B2 P:25 SP:FB PPU:139,166
EC81  F0 02     BEQ                             A:38 X:02 Y:B2 P:27 SP:FB PPU:145,166
EC85  A9 EB     LDA                             A:38 X:02 Y:B2 P:27 SP:FB PPU:154,166
EC87  8D 47 06  STA                             A:EB X:02 Y:B2 P:A5 SP:FB PPU:160,166
EC8A  A9 48     LDA                             A:EB X:02 Y:B2 P:A5 SP:FB PPU:172,166
EC8C  85 45     STA                             A:48 X:02 Y:B2 P:25 SP:FB PPU:178,166
EC8E  A9 05     LDA                             A:48 X:02 Y:B2 P:25 SP:FB PPU:187,166
EC90  85 46     STA                             A:05 X:02 Y:B2 P:25 SP:FB PPU:193,166
EC92  A0 FF     LDY                             A:05 X:02 Y:B2 P:25 SP:FB PPU:202,166
EC94  20 B1 FA  JSR                             A:05 X:02 Y:FF P:A5 SP:FB PPU:208,166
FAB1  24 01     BIT                             A:05 X:02 Y:FF P:A5 SP:F9 PPU:226,166
FAB3  18        CLC                             A:05 X:02 Y:FF P:E5 SP:F9 PPU:235,166
FAB4  A9 40     LDA                             A:05 X:02 Y:FF P:E4 SP:F9 PPU:241,166
FAB6  60        RTS                             A:40 X:02 Y:FF P:64 SP:F9 PPU:247,166
EC97  F3 45     ISB                             A:40 X:02 Y:FF P:64 SP:FB PPU:265,166
EC99  EA        NOP                             A:53 X:02 Y:FF P:24 SP:FB PPU:289,166
EC9A  EA        NOP                             A:53 X:02 Y:FF P:24 SP:FB PPU:295,166
EC9B  08        PHP                             A:53 X:02 Y:FF P:24 SP:FB PPU:301,166
EC9C  48        PHA                             A:53 X:02 Y:FF P:24 SP:FA PPU:310,166
EC9D  A0 B3     LDY                             A:53 X:02 Y:FF P:24 SP:F9 PPU:319,166
EC9F  68        PLA                             A:53 X:02 Y:B3 P:A4 SP:F9 PPU:325,166
ECA0  28        PLP                             A:53 X:02 Y:B3 P:24 SP:FA PPU:337,166
ECA1  20 B7 FA  JSR                             A:53 X:02 Y:B3 P:24 SP:FB PPU:  8,167
FAB7  70 2D     BVS                             A:53 X:02 Y:B3 P:24 SP:F9 PPU: 26,167
FAB9  B0 2B     BCS                             A:53 X:02 Y:B3 P:24 SP:F9 PPU: 32,167
FABB  30 29     BMI                             A:53 X:02 Y:B3 P:24 SP:F9 PPU: 38,167
FABD  C9 53     CMP                             A:53 X:02 Y:B3 P:24 SP:F9 PPU: 44,167
FABF  D0 25     BNE                             A:53 X:02 Y:B3 P:27 SP:F9 PPU: 50,167
FAC1  60        RTS                             A:53 X:02 Y:B3 P:27 SP:F9 PPU: 56,167
ECA4  AD 47 06  LDA                             A:53 X:02 Y:B3 P:27 SP:FB PPU: 74,167
ECA7  C9 EC     CMP                             A:EC X:02 Y:B3 P:A5 SP:FB PPU: 86,167
ECA9  F0 02     BEQ                             A:EC X:02 Y:B3 P:27 SP:FB PPU: 92,167
ECAD  A0 FF     LDY                             A:EC X:02 Y:B3 P:27 SP:FB PPU:101,167
ECAF  A9 FF     LDA                             A:EC X:02 Y:FF P:A5 SP:FB PPU:107,167
ECB1  8D 47 06  STA                             A:FF X:02 Y:FF P:A5 SP:FB PPU:113,167
ECB4  20 C2 FA  JSR                             A:FF X:02 Y:FF P:A5 SP:FB PPU:125,167
FAC2  B8        CLV                             A:FF X:02 Y:FF P:A5 SP:F9 PPU:143,167
FAC3  38        SEC                             A:FF X:02 Y:FF P:A5 SP:F9 PPU:149,167
FAC4  A9 FF     LDA                             A:FF X:02 Y:FF P:A5 SP:F9 PPU:155,167
FAC6  60        RTS                             A:FF X:02 Y:FF P:A5 SP:F9 PPU:161,167
ECB7  F3 45     ISB                             A:FF X:02 Y:FF P:A5 SP:FB PPU:179,167
ECB9  EA        NOP                             A:FF X:02 Y:FF P:A5 SP:FB PPU:203,167
ECBA  EA        NOP                             A:FF X:02 Y:FF P:A5 SP:FB PPU:209,167
ECBB  08        PHP                             A:FF X:02 Y:FF P:A5 SP:FB PPU:215,167
ECBC  48        PHA                             A:FF X:02 Y:FF P:A5 SP:FA PPU:224,167
ECBD  A0 B4     LDY                             A:FF X:02 Y:FF P:A5 SP:F9 PPU:233,167
ECBF  68        PLA                             A:FF X:02 Y:B4 P:A5 SP:F9 PPU:239,167
ECC0  28        PLP                             A:FF X:02 Y:B4 P:A5 SP:FA PPU:251,167
ECC1  20 C7 FA  JSR                             A:FF X:02 Y:B4 P:A5 SP:FB PPU:263,167
FAC7  70 1D     BVS                             A:FF X:02 Y:B4 P:A5 SP:F9 PPU:281,167
FAC9  F0 1B     BEQ                             A:FF X:02 Y:B4 P:A5 SP:F9 PPU:287,167
FACB  10 19     BPL                             A:FF X:02 Y:B4 P:A5 SP:F9 PPU:293,167
FACD  90 17     BCC                             A:FF X:02 Y:B4 P:A5 SP:F9 PPU:299,167
FACF  C9 FF     CMP                             A:FF X:02 Y:B4 P:A5 SP:F9 PPU:305,167
FAD1  D0 13     BNE                             A:FF X:02 Y:B4 P:27 SP:F9 PPU:311,167
FAD3  60        RTS                             A:FF X:02 Y:B4 P:27 SP:F9 PPU:317,167
ECC4  AD 47 06  LDA                             A:FF X:02 Y:B4 P:27 SP:FB PPU:335,167
ECC7  C9 00     CMP                             A:00 X:02 Y:B4 P:27 SP:FB PPU:  6,168
ECC9  F0 02     BEQ                             A:00 X:02 Y:B4 P:27 SP:FB PPU: 12,168
ECCD  A0 FF     LDY                             A:00 X:02 Y:B4 P:27 SP:FB PPU: 21,168
ECCF  A9 37     LDA                             A:00 X:02 Y:FF P:A5 SP:FB PPU: 27,168
ECD1  8D 47 06  STA                             A:37 X:02 Y:FF P:25 SP:FB PPU: 33,168
ECD4  20 D4 FA  JSR                             A:37 X:02 Y:FF P:25 SP:FB PPU: 45,168
FAD4  24 01     BIT                             A:37 X:02 Y:FF P:25 SP:F9 PPU: 63,168
FAD6  38        SEC                             A:37 X:02 Y:FF P:E5 SP:F9 PPU: 72,168
FAD7  A9 F0     LDA                             A:37 X:02 Y:FF P:E5 SP:F9 PPU: 78,168
FAD9  60        RTS                             A:F0 X:02 Y:FF P:E5 SP:F9 PPU: 84,168
ECD7  F3 45     ISB                             A:F0 X:02 Y:FF P:E5 SP:FB PPU:102,168
ECD9  EA        NOP                             A:B8 X:02 Y:FF P:A5 SP:FB PPU:126,168
ECDA  EA        NOP                             A:B8 X:02 Y:FF P:A5 SP:FB PPU:132,168
ECDB  08        PHP                             A:B8 X:02 Y:FF P:A5 SP:FB PPU:138,168
ECDC  48        PHA                             A:B8 X:02 Y:FF P:A5 SP:FA PPU:147,168
ECDD  A0 B5     LDY                             A:B8 X:02 Y:FF P:A5 SP:F9 PPU:156,168
ECDF  68        PLA                             A:B8 X:02 Y:B5 P:A5 SP:F9 PPU:162,168
ECE0  28        PLP                             A:B8 X:02 Y:B5 P:A5 SP:FA PPU:174,168
ECE1  20 DA FA  JSR                             A:B8 X:02 Y:B5 P:A5 SP:FB PPU:186,168
FADA  70 0A     BVS                             A:B8 X:02 Y:B5 P:A5 SP:F9 PPU:204,168
FADC  F0 08     BEQ                             A:B8 X:02 Y:B5 P:A5 SP:F9 PPU:210,168
FADE  10 06     BPL                             A:B8 X:02 Y:B5 P:A5 SP:F9 PPU:216,168
FAE0  90 04     BCC                             A:B8 X:02 Y:B5 P:A5 SP:F9 PPU:222,168
FAE2  C9 B8     CMP                             A:B8 X:02 Y:B5 P:A5 SP:F9 PPU:228,168
FAE4  F0 02     BEQ                             A:B8 X:02 Y:B5 P:27 SP:F9 PPU:234,168
FAE8  60        RTS                             A:B8 X:02 Y:B5 P:27 SP:F9 PPU:243,168
ECE4  AD 47 06  LDA                             A:B8 X:02 Y:B5 P:27 SP:FB PPU:261,168
ECE7  C9 38     CMP                             A:38 X:02 Y:B5 P:25 SP:FB PPU:273,168
ECE9  F0 02     BEQ                             A:38 X:02 Y:B5 P:27 SP:FB PPU:279,168
ECED  A0 B6     LDY                             A:38 X:02 Y:B5 P:27 SP:FB PPU:288,168
ECEF  A2 FF     LDX                             A:38 X:02 Y:B6 P:A5 SP:FB PPU:294,168
ECF1  A9 EB     LDA                             A:38 X:FF Y:B6 P:A5 SP:FB PPU:300,168
ECF3  85 47     STA                             A:EB X:FF Y:B6 P:A5 SP:FB PPU:306,168
ECF5  20 B1 FA  JSR                             A:EB X:FF Y:B6 P:A5 SP:FB PPU:315,168
FAB1  24 01     BIT                             A:EB X:FF Y:B6 P:A5 SP:F9 PPU:333,168
FAB3  18        CLC                             A:EB X:FF Y:B6 P:E5 SP:F9 PPU:  1,169
FAB4  A9 40     LDA                             A:EB X:FF Y:B6 P:E4 SP:F9 PPU:  7,169
FAB6  60        RTS                             A:40 X:FF Y:B6 P:64 SP:F9 PPU: 13,169
ECF8  F7 48     ISB                             A:40 X:FF Y:B6 P:64 SP:FB PPU: 31,169
ECFA  EA        NOP                             A:53 X:FF Y:B6 P:24 SP:FB PPU: 49,169
ECFB  EA        NOP                             A:53 X:FF Y:B6 P:24 SP:FB PPU: 55,169
ECFC  EA        NOP                             A:53 X:FF Y:B6 P:24 SP:FB PPU: 61,169
ECFD  EA        NOP                             A:53 X:FF Y:B6 P:24 SP:FB PPU: 67,169
ECFE  20 B7 FA  JSR                             A:53 X:FF Y:B6 P:24 SP:FB PPU: 73,169
FAB7  70 2D     BVS                             A:53 X:FF Y:B6 P:24 SP:F9 PPU: 91,169
FAB9  B0 2B     BCS                             A:53 X:FF Y:B6 P:24 SP:F9 PPU: 97,169
FABB  30 29     BMI                             A:53 X:FF Y:B6 P:24 SP:F9 PPU:103,169
FABD  C9 53     CMP                             A:53 X:FF Y:B6 P:24 SP:F9 PPU:109,169
FABF  D0 25     BNE                             A:53 X:FF Y:B6 P:27 SP:F9 PPU:115,169
FAC1  60        RTS                             A:53 X:FF Y:B6 P:27 SP:F9 PPU:121,169
ED01  A5 47     LDA                             A:53 X:FF Y:B6 P:27 SP:FB PPU:139,169
ED03  C9 EC     CMP                             A:EC X:FF Y:B6 P:A5 SP:FB PPU:148,169
ED05  F0 02     BEQ                             A:EC X:FF Y:B6 P:27 SP:FB PPU:154,169
ED09  C8        INY                             A:EC X:FF Y:B6 P:27 SP:FB PPU:163,169
ED0A  A9 FF     LDA                             A:EC X:FF Y:B7 P:A5 SP:FB PPU:169,169
ED0C  85 47     STA                             A:FF X:FF Y:B7 P:A5 SP:FB PPU:175,169
ED0E  20 C2 FA  JSR                             A:FF X:FF Y:B7 P:A5 SP:FB PPU:184,169
FAC2  B8        CLV                             A:FF X:FF Y:B7 P:A5 SP:F9 PPU:202,169
FAC3  38        SEC                             A:FF X:FF Y:B7 P:A5 SP:F9 PPU:208,169
FAC4  A9 FF     LDA                             A:FF X:FF Y:B7 P:A5 SP:F9 PPU:214,169
FAC6  60        RTS                             A:FF X:FF Y:B7 P:A5 SP:F9 PPU:220,169
ED11  F7 48     ISB                             A:FF X:FF Y:B7 P:A5 SP:FB PPU:238,169
ED13  EA        NOP                             A:FF X:FF Y:B7 P:A5 SP:FB PPU:256,169
ED14  EA        NOP                             A:FF X:FF Y:B7 P:A5 SP:FB PPU:262,169
ED15  EA        NOP                             A:FF X:FF Y:B7 P:A5 SP:FB PPU:268,169
ED16  EA        NOP                             A:FF X:FF Y:B7 P:A5 SP:FB PPU:274,169
ED17  20 C7 FA  JSR                             A:FF X:FF Y:B7 P:A5 SP:FB PPU:280,169
FAC7  70 1D     BVS                             A:FF X:FF Y:B7 P:A5 SP:F9 PPU:298,169
FAC9  F0 1B     BEQ                             A:FF X:FF Y:B7 P:A5 SP:F9 PPU:304,169
FACB  10 19     BPL                             A:FF X:FF Y:B7 P:A5 SP:F9 PPU:310,169
FACD  90 17     BCC                             A:FF X:FF Y:B7 P:A5 SP:F9 PPU:316,169
FACF  C9 FF     CMP                             A:FF X:FF Y:B7 P:A5 SP:F9 PPU:322,169
FAD1  D0 13     BNE                             A:FF X:FF Y:B7 P:27 SP:F9 PPU:328,169
FAD3  60        RTS                             A:FF X:FF Y:B7 P:27 SP:F9 PPU:334,169
ED1A  A5 47     LDA                             A:FF X:FF Y:B7 P:27 SP:FB PPU: 11,170
ED1C  C9 00     CMP                             A:00 X:FF Y:B7 P:27 SP:FB PPU: 20,170
ED1E  F0 02     BEQ                             A:00 X:FF Y:B7 P:27 SP:FB PPU: 26,170
ED22  C8        INY                             A:00 X:FF Y:B7 P:27 SP:FB PPU: 35,170
ED23  A9 37     LDA                             A:00 X:FF Y:B8 P:A5 SP:FB PPU: 41,170
ED25  85 47     STA                             A:37 X:FF Y:B8 P:25 SP:FB PPU: 47,170
ED27  20 D4 FA  JSR                             A:37 X:FF Y:B8 P:25 SP:FB PPU: 56,170
FAD4  24 01     BIT                             A:37 X:FF Y:B8 P:25 SP:F9 PPU: 74,170
FAD6  38        SEC                             A:37 X:FF Y:B8 P:E5 SP:F9 PPU: 83,170
FAD7  A9 F0     LDA                             A:37 X:FF Y:B8 P:E5 SP:F9 PPU: 89,170
FAD9  60        RTS                             A:F0 X:FF Y:B8 P:E5 SP:F9 PPU: 95,170
ED2A  F7 48     ISB                             A:F0 X:FF Y:B8 P:E5 SP:FB PPU:113,170
ED2C  EA        NOP                             A:B8 X:FF Y:B8 P:A5 SP:FB PPU:131,170
ED2D  EA        NOP                             A:B8 X:FF Y:B8 P:A5 SP:FB PPU:137,170
ED2E  EA        NOP                             A:B8 X:FF Y:B8 P:A5 SP:FB PPU:143,170
ED2F  EA        NOP                             A:B8 X:FF Y:B8 P:A5 SP:FB PPU:149,170
ED30  20 DA FA  JSR                             A:B8 X:FF Y:B8 P:A5 SP:FB PPU:155,170
FADA  70 0A     BVS                             A:B8 X:FF Y:B8 P:A5 SP:F9 PPU:173,170
FADC  F0 08     BEQ                             A:B8 X:FF Y:B8 P:A5 SP:F9 PPU:179,170
FADE  10 06     BPL                             A:B8 X:FF Y:B8 P:A5 SP:F9 PPU:185,170
FAE0  90 04     BCC                             A:B8 X:FF Y:B8 P:A5 SP:F9 PPU:191,170
FAE2  C9 B8     CMP                             A:B8 X:FF Y:B8 P:A5 SP:F9 PPU:197,170
FAE4  F0 02     BEQ                             A:B8 X:FF Y:B8 P:27 SP:F9 PPU:203,170
FAE8  60        RTS                             A:B8 X:FF Y:B8 P:27 SP:F9 PPU:212,170
ED33  A5 47     LDA                             A:B8 X:FF Y:B8 P:27 SP:FB PPU:230,170
ED35  C9 38     CMP                             A:38 X:FF Y:B8 P:25 SP:FB PPU:239,170
ED37  F0 02     BEQ                             A:38 X:FF Y:B8 P:27 SP:FB PPU:245,170
ED3B  A9 EB     LDA                             A:38 X:FF Y:B8 P:27 SP:FB PPU:254,170
ED3D  8D 47 06  STA                             A:EB X:FF Y:B8 P:A5 SP:FB PPU:260,170
ED40  A0 FF     LDY                             A:EB X:FF Y:B8 P:A5 SP:FB PPU:272,170
ED42  20 B1 FA  JSR                             A:EB X:FF Y:FF P:A5 SP:FB PPU:278,170
FAB1  24 01     BIT                             A:EB X:FF Y:FF P:A5 SP:F9 PPU:296,170
FAB3  18        CLC                             A:EB X:FF Y:FF P:E5 SP:F9 PPU:305,170
FAB4  A9 40     LDA                             A:EB X:FF Y:FF P:E4 SP:F9 PPU:311,170
FAB6  60        RTS                             A:40 X:FF Y:FF P:64 SP:F9 PPU:317,170
ED45  FB 48 05  ISB                             A:40 X:FF Y:FF P:64 SP:FB PPU:335,170
ED48  EA        NOP                             A:53 X:FF Y:FF P:24 SP:FB PPU: 15,171
ED49  EA        NOP                             A:53 X:FF Y:FF P:24 SP:FB PPU: 21,171
ED4A  08        PHP                             A:53 X:FF Y:FF P:24 SP:FB PPU: 27,171
ED4B  48        PHA                             A:53 X:FF Y:FF P:24 SP:FA PPU: 36,171
ED4C  A0 B9     LDY                             A:53 X:FF Y:FF P:24 SP:F9 PPU: 45,171
ED4E  68        PLA                             A:53 X:FF Y:B9 P:A4 SP:F9 PPU: 51,171
ED4F  28        PLP                             A:53 X:FF Y:B9 P:24 SP:FA PPU: 63,171
ED50  20 B7 FA  JSR                             A:53 X:FF Y:B9 P:24 SP:FB PPU: 75,171
FAB7  70 2D     BVS                             A:53 X:FF Y:B9 P:24 SP:F9 PPU: 93,171
FAB9  B0 2B     BCS                             A:53 X:FF Y:B9 P:24 SP:F9 PPU: 99,171
FABB  30 29     BMI                             A:53 X:FF Y:B9 P:24 SP:F9 PPU:105,171
FABD  C9 53     CMP                             A:53 X:FF Y:B9 P:24 SP:F9 PPU:111,171
FABF  D0 25     BNE                             A:53 X:FF Y:B9 P:27 SP:F9 PPU:117,171
FAC1  60        RTS                             A:53 X:FF Y:B9 P:27 SP:F9 PPU:123,171
ED53  AD 47 06  LDA                             A:53 X:FF Y:B9 P:27 SP:FB PPU:141,171
ED56  C9 EC     CMP                             A:EC X:FF Y:B9 P:A5 SP:FB PPU:153,171
ED58  F0 02     BEQ                             A:EC X:FF Y:B9 P:27 SP:FB PPU:159,171
ED5C  A0 FF     LDY                             A:EC X:FF Y:B9 P:27 SP:FB PPU:168,171
ED5E  A9 FF     LDA                             A:EC X:FF Y:FF P:A5 SP:FB PPU:174,171
ED60  8D 47 06  STA                             A:FF X:FF Y:FF P:A5 SP:FB PPU:180,171
ED63  20 C2 FA  JSR                             A:FF X:FF Y:FF P:A5 SP:FB PPU:192,171
FAC2  B8        CLV                             A:FF X:FF Y:FF P:A5 SP:F9 PPU:210,171
FAC3  38        SEC                             A:FF X:FF Y:FF P:A5 SP:F9 PPU:216,171
FAC4  A9 FF     LDA                             A:FF X:FF Y:FF P:A5 SP:F9 PPU:222,171
FAC6  60        RTS                             A:FF X:FF Y:FF P:A5 SP:F9 PPU:228,171
ED66  FB 48 05  ISB                             A:FF X:FF Y:FF P:A5 SP:FB PPU:246,171
ED69  EA        NOP                             A:FF X:FF Y:FF P:A5 SP:FB PPU:267,171
ED6A  EA        NOP                             A:FF X:FF Y:FF P:A5 SP:FB PPU:273,171
ED6B  08        PHP                             A:FF X:FF Y:FF P:A5 SP:FB PPU:279,171
ED6C  48        PHA                             A:FF X:FF Y:FF P:A5 SP:FA PPU:288,171
ED6D  A0 BA     LDY                             A:FF X:FF Y:FF P:A5 SP:F9 PPU:297,171
ED6F  68        PLA                             A:FF X:FF Y:BA P:A5 SP:F9 PPU:303,171
ED70  28        PLP                             A:FF X:FF Y:BA P:A5 SP:FA PPU:315,171
ED71  20 C7 FA  JSR                             A:FF X:FF Y:BA P:A5 SP:FB PPU:327,171
FAC7  70 1D     BVS                             A:FF X:FF Y:BA P:A5 SP:F9 PPU:  4,172
FAC9  F0 1B     BEQ                             A:FF X:FF Y:BA P:A5 SP:F9 PPU: 10,172
FACB  10 19     BPL                             A:FF X:FF Y:BA P:A5 SP:F9 PPU: 16,172
FACD  90 17     BCC                             A:FF X:FF Y:BA P:A5 SP:F9 PPU: 22,172
FACF  C9 FF     CMP                             A:FF X:FF Y:BA P:A5 SP:F9 PPU: 28,172
FAD1  D0 13     BNE                             A:FF X:FF Y:BA P:27 SP:F9 PPU: 34,172
FAD3  60        RTS                             A:FF X:FF Y:BA P:27 SP:F9 PPU: 40,172
ED74  AD 47 06  LDA                             A:FF X:FF Y:BA P:27 SP:FB PPU: 58,172
ED77  C9 00     CMP                             A:00 X:FF Y:BA P:27 SP:FB PPU: 70,172
ED79  F0 02     BEQ                             A:00 X:FF Y:BA P:27 SP:FB PPU: 76,172
ED7D  A0 FF     LDY                             A:00 X:FF Y:BA P:27 SP:FB PPU: 85,172
ED7F  A9 37     LDA                             A:00 X:FF Y:FF P:A5 SP:FB PPU: 91,172
ED81  8D 47 06  STA                             A:37 X:FF Y:FF P:25 SP:FB PPU: 97,172
ED84  20 D4 FA  JSR                             A:37 X:FF Y:FF P:25 SP:FB PPU:109,172
FAD4  24 01     BIT                             A:37 X:FF Y:FF P:25 SP:F9 PPU:127,172
FAD6  38        SEC                             A:37 X:FF Y:FF P:E5 SP:F9 PPU:136,172
FAD7  A9 F0     LDA                             A:37 X:FF Y:FF P:E5 SP:F9 PPU:142,172
FAD9  60        RTS                             A:F0 X:FF Y:FF P:E5 SP:F9 PPU:148,172
ED87  FB 48 05  ISB                             A:F0 X:FF Y:FF P:E5 SP:FB PPU:166,172
ED8A  EA        NOP                             A:B8 X:FF Y:FF P:A5 SP:FB PPU:187,172
ED8B  EA        NOP                             A:B8 X:FF Y:FF P:A5 SP:FB PPU:193,172
ED8C  08        PHP                             A:B8 X:FF Y:FF P:A5 SP:FB PPU:199,172
ED8D  48        PHA                             A:B8 X:FF Y:FF P:A5 SP:FA PPU:208,172
ED8E  A0 BB     LDY                             A:B8 X:FF Y:FF P:A5 SP:F9 PPU:217,172
ED90  68        PLA                             A:B8 X:FF Y:BB P:A5 SP:F9 PPU:223,172
ED91  28        PLP                             A:B8 X:FF Y:BB P:A5 SP:FA PPU:235,172
ED92  20 DA FA  JSR                             A:B8 X:FF Y:BB P:A5 SP:FB PPU:247,172
FADA  70 0A     BVS                             A:B8 X:FF Y:BB P:A5 SP:F9 PPU:265,172
FADC  F0 08     BEQ                             A:B8 X:FF Y:BB P:A5 SP:F9 PPU:271,172
FADE  10 06     BPL                             A:B8 X:FF Y:BB P:A5 SP:F9 PPU:277,172
FAE0  90 04     BCC                             A:B8 X:FF Y:BB P:A5 SP:F9 PPU:283,172
FAE2  C9 B8     CMP                             A:B8 X:FF Y:BB P:A5 SP:F9 PPU:289,172
FAE4  F0 02     BEQ                             A:B8 X:FF Y:BB P:27 SP:F9 PPU:295,172
FAE8  60        RTS                             A:B8 X:FF Y:BB P:27 SP:F9 PPU:304,172
ED95  AD 47 06  LDA                             A:B8 X:FF Y:BB P:27 SP:FB PPU:322,172
ED98  C9 38     CMP                             A:38 X:FF Y:BB P:25 SP:FB PPU:334,172
ED9A  F0 02     BEQ                             A:38 X:FF Y:BB P:27 SP:FB PPU:340,172
ED9E  A0 BC     LDY                             A:38 X:FF Y:BB P:27 SP:FB PPU:  8,173
EDA0  A2 FF     LDX                             A:38 X:FF Y:BC P:A5 SP:FB PPU: 14,173
EDA2  A9 EB     LDA                             A:38 X:FF Y:BC P:A5 SP:FB PPU: 20,173
EDA4  8D 47 06  STA                             A:EB X:FF Y:BC P:A5 SP:FB PPU: 26,173
EDA7  20 B1 FA  JSR                             A:EB X:FF Y:BC P:A5 SP:FB PPU: 38,173
FAB1  24 01     BIT                             A:EB X:FF Y:BC P:A5 SP:F9 PPU: 56,173
FAB3  18        CLC                             A:EB X:FF Y:BC P:E5 SP:F9 PPU: 65,173
FAB4  A9 40     LDA                             A:EB X:FF Y:BC P:E4 SP:F9 PPU: 71,173
FAB6  60        RTS                             A:40 X:FF Y:BC P:64 SP:F9 PPU: 77,173
EDAA  FF 48 05  ISB                             A:40 X:FF Y:BC P:64 SP:FB PPU: 95,173
EDAD  EA        NOP                             A:53 X:FF Y:BC P:24 SP:FB PPU:116,173
EDAE  EA        NOP                             A:53 X:FF Y:BC P:24 SP:FB PPU:122,173
EDAF  EA        NOP                             A:53 X:FF Y:BC P:24 SP:FB PPU:128,173
EDB0  EA        NOP                             A:53 X:FF Y:BC P:24 SP:FB PPU:134,173
EDB1  20 B7 FA  JSR                             A:53 X:FF Y:BC P:24 SP:FB PPU:140,173
FAB7  70 2D     BVS                             A:53 X:FF Y:BC P:24 SP:F9 PPU:158,173
FAB9  B0 2B     BCS                             A:53 X:FF Y:BC P:24 SP:F9 PPU:164,173
FABB  30 29     BMI                             A:53 X:FF Y:BC P:24 SP:F9 PPU:170,173
FABD  C9 53     CMP                             A:53 X:FF Y:BC P:24 SP:F9 PPU:176,173
FABF  D0 25     BNE                             A:53 X:FF Y:BC P:27 SP:F9 PPU:182,173
FAC1  60        RTS                             A:53 X:FF Y:BC P:27 SP:F9 PPU:188,173
EDB4  AD 47 06  LDA                             A:53 X:FF Y:BC P:27 SP:FB PPU:206,173
EDB7  C9 EC     CMP                             A:EC X:FF Y:BC P:A5 SP:FB PPU:218,173
EDB9  F0 02     BEQ                             A:EC X:FF Y:BC P:27 SP:FB PPU:224,173
EDBD  C8        INY                             A:EC X:FF Y:BC P:27 SP:FB PPU:233,173
EDBE  A9 FF     LDA                             A:EC X:FF Y:BD P:A5 SP:FB PPU:239,173
EDC0  8D 47 06  STA                             A:FF X:FF Y:BD P:A5 SP:FB PPU:245,173
EDC3  20 C2 FA  JSR                             A:FF X:FF Y:BD P:A5 SP:FB PPU:257,173
FAC2  B8        CLV                             A:FF X:FF Y:BD P:A5 SP:F9 PPU:275,173
FAC3  38        SEC                             A:FF X:FF Y:BD P:A5 SP:F9 PPU:281,173
FAC4  A9 FF     LDA                             A:FF X:FF Y:BD P:A5 SP:F9 PPU:287,173
FAC6  60        RTS                             A:FF X:FF Y:BD P:A5 SP:F9 PPU:293,173
EDC6  FF 48 05  ISB                             A:FF X:FF Y:BD P:A5 SP:FB PPU:311,173
EDC9  EA        NOP                             A:FF X:FF Y:BD P:A5 SP:FB PPU:332,173
EDCA  EA        NOP                             A:FF X:FF Y:BD P:A5 SP:FB PPU:338,173
EDCB  EA        NOP                             A:FF X:FF Y:BD P:A5 SP:FB PPU:  3,174
EDCC  EA        NOP                             A:FF X:FF Y:BD P:A5 SP:FB PPU:  9,174
EDCD  20 C7 FA  JSR                             A:FF X:FF Y:BD P:A5 SP:FB PPU: 15,174
FAC7  70 1D     BVS                             A:FF X:FF Y:BD P:A5 SP:F9 PPU: 33,174
FAC9  F0 1B     BEQ                             A:FF X:FF Y:BD P:A5 SP:F9 PPU: 39,174
FACB  10 19     BPL                             A:FF X:FF Y:BD P:A5 SP:F9 PPU: 45,174
FACD  90 17     BCC                             A:FF X:FF Y:BD P:A5 SP:F9 PPU: 51,174
FACF  C9 FF     CMP                             A:FF X:FF Y:BD P:A5 SP:F9 PPU: 57,174
FAD1  D0 13     BNE                             A:FF X:FF Y:BD P:27 SP:F9 PPU: 63,174
FAD3  60        RTS                             A:FF X:FF Y:BD P:27 SP:F9 PPU: 69,174
EDD0  AD 47 06  LDA                             A:FF X:FF Y:BD P:27 SP:FB PPU: 87,174
EDD3  C9 00     CMP                             A:00 X:FF Y:BD P:27 SP:FB PPU: 99,174
EDD5  F0 02     BEQ                             A:00 X:FF Y:BD P:27 SP:FB PPU:105,174
EDD9  C8        INY                             A:00 X:FF Y:BD P:27 SP:FB PPU:114,174
EDDA  A9 37     LDA                             A:00 X:FF Y:BE P:A5 SP:FB PPU:120,174
EDDC  8D 47 06  STA                             A:37 X:FF Y:BE P:25 SP:FB PPU:126,174
EDDF  20 D4 FA  JSR                             A:37 X:FF Y:BE P:25 SP:FB PPU:138,174
FAD4  24 01     BIT                             A:37 X:FF Y:BE P:25 SP:F9 PPU:156,174
FAD6  38        SEC                             A:37 X:FF Y:BE P:E5 SP:F9 PPU:165,174
FAD7  A9 F0     LDA                             A:37 X:FF Y:BE P:E5 SP:F9 PPU:171,174
FAD9  60        RTS                             A:F0 X:FF Y:BE P:E5 SP:F9 PPU:177,174
EDE2  FF 48 05  ISB                             A:F0 X:FF Y:BE P:E5 SP:FB PPU:195,174
EDE5  EA        NOP                             A:B8 X:FF Y:BE P:A5 SP:FB PPU:216,174
EDE6  EA        NOP                             A:B8 X:FF Y:BE P:A5 SP:FB PPU:222,174
EDE7  EA        NOP                             A:B8 X:FF Y:BE P:A5 SP:FB PPU:228,174
EDE8  EA        NOP                             A:B8 X:FF Y:BE P:A5 SP:FB PPU:234,174
EDE9  20 DA FA  JSR                             A:B8 X:FF Y:BE P:A5 SP:FB PPU:240,174
FADA  70 0A     BVS                             A:B8 X:FF Y:BE P:A5 SP:F9 PPU:258,174
FADC  F0 08     BEQ                             A:B8 X:FF Y:BE P:A5 SP:F9 PPU:264,174
FADE  10 06     BPL                             A:B8 X:FF Y:BE P:A5 SP:F9 PPU:270,174
FAE0  90 04     BCC                             A:B8 X:FF Y:BE P:A5 SP:F9 PPU:276,174
FAE2  C9 B8     CMP                             A:B8 X:FF Y:BE P:A5 SP:F9 PPU:282,174
FAE4  F0 02     BEQ                             A:B8 X:FF Y:BE P:27 SP:F9 PPU:288,174
FAE8  60        RTS                             A:B8 X:FF Y:BE P:27 SP:F9 PPU:297,174
EDEC  AD 47 06  LDA                             A:B8 X:FF Y:BE P:27 SP:FB PPU:315,174
EDEF  C9 38     CMP                             A:38 X:FF Y:BE P:25 SP:FB PPU:327,174
EDF1  F0 02     BEQ                             A:38 X:FF Y:BE P:27 SP:FB PPU:333,174
EDF5  60        RTS                             A:38 X:FF Y:BE P:27 SP:FB PPU:  1,175
C641  20 F6 ED  JSR                             A:38 X:FF Y:BE P:27 SP:FD PPU: 19,175
EDF6  A9 FF     LDA                             A:38 X:FF Y:BE P:27 SP:FB PPU: 37,175
EDF8  85 01     STA                             A:FF X:FF Y:BE P:A5 SP:FB PPU: 43,175
EDFA  A0 BF     LDY                             A:FF X:FF Y:BE P:A5 SP:FB PPU: 52,175
EDFC  A2 02     LDX                             A:FF X:FF Y:BF P:A5 SP:FB PPU: 58,175
EDFE  A9 47     LDA                             A:FF X:02 Y:BF P:25 SP:FB PPU: 64,175
EE00  85 47     STA                             A:47 X:02 Y:BF P:25 SP:FB PPU: 70,175
EE02  A9 06     LDA                             A:47 X:02 Y:BF P:25 SP:FB PPU: 79,175
EE04  85 48     STA                             A:06 X:02 Y:BF P:25 SP:FB PPU: 85,175
EE06  A9 A5     LDA                             A:06 X:02 Y:BF P:25 SP:FB PPU: 94,175
EE08  8D 47 06  STA                             A:A5 X:02 Y:BF P:A5 SP:FB PPU:100,175
EE0B  20 7B FA  JSR                             A:A5 X:02 Y:BF P:A5 SP:FB PPU:112,175
FA7B  24 01     BIT                             A:A5 X:02 Y:BF P:A5 SP:F9 PPU:130,175
FA7D  18        CLC                             A:A5 X:02 Y:BF P:E5 SP:F9 PPU:139,175
FA7E  A9 B3     LDA                             A:A5 X:02 Y:BF P:E4 SP:F9 PPU:145,175
FA80  60        RTS                             A:B3 X:02 Y:BF P:E4 SP:F9 PPU:151,175
EE0E  03 45     SLO                             A:B3 X:02 Y:BF P:E4 SP:FB PPU:169,175
EE10  EA        NOP                             A:FB X:02 Y:BF P:E5 SP:FB PPU:193,175
EE11  EA        NOP                             A:FB X:02 Y:BF P:E5 SP:FB PPU:199,175
EE12  EA        NOP                             A:FB X:02 Y:BF P:E5 SP:FB PPU:205,175
EE13  EA        NOP                             A:FB X:02 Y:BF P:E5 SP:FB PPU:211,175
EE14  20 81 FA  JSR                             A:FB X:02 Y:BF P:E5 SP:FB PPU:217,175
FA81  50 63     BVC                             A:FB X:02 Y:BF P:E5 SP:F9 PPU:235,175
FA83  90 61     BCC                             A:FB X:02 Y:BF P:E5 SP:F9 PPU:241,175
FA85  10 5F     BPL                             A:FB X:02 Y:BF P:E5 SP:F9 PPU:247,175
FA87  C9 FB     CMP                             A:FB X:02 Y:BF P:E5 SP:F9 PPU:253,175
FA89  D0 5B     BNE                             A:FB X:02 Y:BF P:67 SP:F9 PPU:259,175
FA8B  60        RTS                             A:FB X:02 Y:BF P:67 SP:F9 PPU:265,175
EE17  AD 47 06  LDA                             A:FB X:02 Y:BF P:67 SP:FB PPU:283,175
EE1A  C9 4A     CMP                             A:4A X:02 Y:BF P:65 SP:FB PPU:295,175
EE1C  F0 02     BEQ                             A:4A X:02 Y:BF P:67 SP:FB PPU:301,175
EE20  C8        INY                             A:4A X:02 Y:BF P:67 SP:FB PPU:310,175
EE21  A9 29     LDA                             A:4A X:02 Y:C0 P:E5 SP:FB PPU:316,175
EE23  8D 47 06  STA                             A:29 X:02 Y:C0 P:65 SP:FB PPU:322,175
EE26  20 8C FA  JSR                             A:29 X:02 Y:C0 P:65 SP:FB PPU:334,175
FA8C  B8        CLV                             A:29 X:02 Y:C0 P:65 SP:F9 PPU: 11,176
FA8D  18        CLC                             A:29 X:02 Y:C0 P:25 SP:F9 PPU: 17,176
FA8E  A9 C3     LDA                             A:29 X:02 Y:C0 P:24 SP:F9 PPU: 23,176
FA90  60        RTS                             A:C3 X:02 Y:C0 P:A4 SP:F9 PPU: 29,176
EE29  03 45     SLO                             A:C3 X:02 Y:C0 P:A4 SP:FB PPU: 47,176
EE2B  EA        NOP                             A:D3 X:02 Y:C0 P:A4 SP:FB PPU: 71,176
EE2C  EA        NOP                             A:D3 X:02 Y:C0 P:A4 SP:FB PPU: 77,176
EE2D  EA        NOP                             A:D3 X:02 Y:C0 P:A4 SP:FB PPU: 83,176
EE2E  EA        NOP                             A:D3 X:02 Y:C0 P:A4 SP:FB PPU: 89,176
EE2F  20 91 FA  JSR                             A:D3 X:02 Y:C0 P:A4 SP:FB PPU: 95,176
FA91  70 53     BVS                             A:D3 X:02 Y:C0 P:A4 SP:F9 PPU:113,176
FA93  F0 51     BEQ                             A:D3 X:02 Y:C0 P:A4 SP:F9 PPU:119,176
FA95  10 4F     BPL                             A:D3 X:02 Y:C0 P:A4 SP:F9 PPU:125,176
FA97  B0 4D     BCS                             A:D3 X:02 Y:C0 P:A4 SP:F9 PPU:131,176
FA99  C9 D3     CMP                             A:D3 X:02 Y:C0 P:A4 SP:F9 PPU:137,176
FA9B  D0 49     BNE                             A:D3 X:02 Y:C0 P:27 SP:F9 PPU:143,176
FA9D  60        RTS                             A:D3 X:02 Y:C0 P:27 SP:F9 PPU:149,176
EE32  AD 47 06  LDA                             A:D3 X:02 Y:C0 P:27 SP:FB PPU:167,176
EE35  C9 52     CMP                             A:52 X:02 Y:C0 P:25 SP:FB PPU:179,176
EE37  F0 02     BEQ                             A:52 X:02 Y:C0 P:27 SP:FB PPU:185,176
EE3B  C8        INY                             A:52 X:02 Y:C0 P:27 SP:FB PPU:194,176
EE3C  A9 37     LDA                             A:52 X:02 Y:C1 P:A5 SP:FB PPU:200,176
EE3E  8D 47 06  STA                             A:37 X:02 Y:C1 P:25 SP:FB PPU:206,176
EE41  20 9E FA  JSR                             A:37 X:02 Y:C1 P:25 SP:FB PPU:218,176
FA9E  24 01     BIT                             A:37 X:02 Y:C1 P:25 SP:F9 PPU:236,176
FAA0  38        SEC                             A:37 X:02 Y:C1 P:E5 SP:F9 PPU:245,176
FAA1  A9 10     LDA                             A:37 X:02 Y:C1 P:E5 SP:F9 PPU:251,176
FAA3  60        RTS                             A:10 X:02 Y:C1 P:65 SP:F9 PPU:257,176
EE44  03 45     SLO                             A:10 X:02 Y:C1 P:65 SP:FB PPU:275,176
EE46  EA        NOP                             A:7E X:02 Y:C1 P:64 SP:FB PPU:299,176
EE47  EA        NOP                             A:7E X:02 Y:C1 P:64 SP:FB PPU:305,176
EE48  EA        NOP                             A:7E X:02 Y:C1 P:64 SP:FB PPU:311,176
EE49  EA        NOP                             A:7E X:02 Y:C1 P:64 SP:FB PPU:317,176
EE4A  20 A4 FA  JSR                             A:7E X:02 Y:C1 P:64 SP:FB PPU:323,176
FAA4  50 40     BVC                             A:7E X:02 Y:C1 P:64 SP:F9 PPU:  0,177
FAA6  F0 3E     BEQ                             A:7E X:02 Y:C1 P:64 SP:F9 PPU:  6,177
FAA8  30 3C     BMI                             A:7E X:02 Y:C1 P:64 SP:F9 PPU: 12,177
FAAA  B0 3A     BCS                             A:7E X:02 Y:C1 P:64 SP:F9 PPU: 18,177
FAAC  C9 7E     CMP                             A:7E X:02 Y:C1 P:64 SP:F9 PPU: 24,177
FAAE  D0 36     BNE                             A:7E X:02 Y:C1 P:67 SP:F9 PPU: 30,177
FAB0  60        RTS                             A:7E X:02 Y:C1 P:67 SP:F9 PPU: 36,177
EE4D  AD 47 06  LDA                             A:7E X:02 Y:C1 P:67 SP:FB PPU: 54,177
EE50  C9 6E     CMP                             A:6E X:02 Y:C1 P:65 SP:FB PPU: 66,177
EE52  F0 02     BEQ                             A:6E X:02 Y:C1 P:67 SP:FB PPU: 72,177
EE56  C8        INY                             A:6E X:02 Y:C1 P:67 SP:FB PPU: 81,177
EE57  A9 A5     LDA                             A:6E X:02 Y:C2 P:E5 SP:FB PPU: 87,177
EE59  85 47     STA                             A:A5 X:02 Y:C2 P:E5 SP:FB PPU: 93,177
EE5B  20 7B FA  JSR                             A:A5 X:02 Y:C2 P:E5 SP:FB PPU:102,177
FA7B  24 01     BIT                             A:A5 X:02 Y:C2 P:E5 SP:F9 PPU:120,177
FA7D  18        CLC                             A:A5 X:02 Y:C2 P:E5 SP:F9 PPU:129,177
FA7E  A9 B3     LDA                             A:A5 X:02 Y:C2 P:E4 SP:F9 PPU:135,177
FA80  60        RTS                             A:B3 X:02 Y:C2 P:E4 SP:F9 PPU:141,177
EE5E  07 47     SLO                             A:B3 X:02 Y:C2 P:E4 SP:FB PPU:159,177
EE60  EA        NOP                             A:FB X:02 Y:C2 P:E5 SP:FB PPU:174,177
EE61  EA        NOP                             A:FB X:02 Y:C2 P:E5 SP:FB PPU:180,177
EE62  EA        NOP                             A:FB X:02 Y:C2 P:E5 SP:FB PPU:186,177
EE63  EA        NOP                             A:FB X:02 Y:C2 P:E5 SP:FB PPU:192,177
EE64  20 81 FA  JSR                             A:FB X:02 Y:C2 P:E5 SP:FB PPU:198,177
FA81  50 63     BVC                             A:FB X:02 Y:C2 P:E5 SP:F9 PPU:216,177
FA83  90 61     BCC                             A:FB X:02 Y:C2 P:E5 SP:F9 PPU:222,177
FA85  10 5F     BPL                             A:FB X:02 Y:C2 P:E5 SP:F9 PPU:228,177
FA87  C9 FB     CMP                             A:FB X:02 Y:C2 P:E5 SP:F9 PPU:234,177
FA89  D0 5B     BNE                             A:FB X:02 Y:C2 P:67 SP:F9 PPU:240,177
FA8B  60        RTS                             A:FB X:02 Y:C2 P:67 SP:F9 PPU:246,177
EE67  A5 47     LDA                             A:FB X:02 Y:C2 P:67 SP:FB PPU:264,177
EE69  C9 4A     CMP                             A:4A X:02 Y:C2 P:65 SP:FB PPU:273,177
EE6B  F0 02     BEQ                             A:4A X:02 Y:C2 P:67 SP:FB PPU:279,177
EE6F  C8        INY                             A:4A X:02 Y:C2 P:67 SP:FB PPU:288,177
EE70  A9 29     LDA                             A:4A X:02 Y:C3 P:E5 SP:FB PPU:294,177
EE72  85 47     STA                             A:29 X:02 Y:C3 P:65 SP:FB PPU:300,177
EE74  20 8C FA  JSR                             A:29 X:02 Y:C3 P:65 SP:FB PPU:309,177
FA8C  B8        CLV                             A:29 X:02 Y:C3 P:65 SP:F9 PPU:327,177
FA8D  18        CLC                             A:29 X:02 Y:C3 P:25 SP:F9 PPU:333,177
FA8E  A9 C3     LDA                             A:29 X:02 Y:C3 P:24 SP:F9 PPU:339,177
FA90  60        RTS                             A:C3 X:02 Y:C3 P:A4 SP:F9 PPU:  4,178
EE77  07 47     SLO                             A:C3 X:02 Y:C3 P:A4 SP:FB PPU: 22,178
EE79  EA        NOP                             A:D3 X:02 Y:C3 P:A4 SP:FB PPU: 37,178
EE7A  EA        NOP                             A:D3 X:02 Y:C3 P:A4 SP:FB PPU: 43,178
EE7B  EA        NOP                             A:D3 X:02 Y:C3 P:A4 SP:FB PPU: 49,178
EE7C  EA        NOP                             A:D3 X:02 Y:C3 P:A4 SP:FB PPU: 55,178
EE7D  20 91 FA  JSR                             A:D3 X:02 Y:C3 P:A4 SP:FB PPU: 61,178
FA91  70 53     BVS                             A:D3 X:02 Y:C3 P:A4 SP:F9 PPU: 79,178
FA93  F0 51     BEQ                             A:D3 X:02 Y:C3 P:A4 SP:F9 PPU: 85,178
FA95  10 4F     BPL                             A:D3 X:02 Y:C3 P:A4 SP:F9 PPU: 91,178
FA97  B0 4D     BCS                             A:D3 X:02 Y:C3 P:A4 SP:F9 PPU: 97,178
FA99  C9 D3     CMP                             A:D3 X:02 Y:C3 P:A4 SP:F9 PPU:103,178
FA9B  D0 49     BNE                             A:D3 X:02 Y:C3 P:27 SP:F9 PPU:109,178
FA9D  60        RTS                             A:D3 X:02 Y:C3 P:27 SP:F9 PPU:115,178
EE80  A5 47     LDA                             A:D3 X:02 Y:C3 P:27 SP:FB PPU:133,178
EE82  C9 52     CMP                             A:52 X:02 Y:C3 P:25 SP:FB PPU:142,178
EE84  F0 02     BEQ                             A:52 X:02 Y:C3 P:27 SP:FB PPU:148,178
EE88  C8        INY                             A:52 X:02 Y:C3 P:27 SP:FB PPU:157,178
EE89  A9 37     LDA                             A:52 X:02 Y:C4 P:A5 SP:FB PPU:163,178
EE8B  85 47     STA                             A:37 X:02 Y:C4 P:25 SP:FB PPU:169,178
EE8D  20 9E FA  JSR                             A:37 X:02 Y:C4 P:25 SP:FB PPU:178,178
FA9E  24 01     BIT                             A:37 X:02 Y:C4 P:25 SP:F9 PPU:196,178
FAA0  38        SEC                             A:37 X:02 Y:C4 P:E5 SP:F9 PPU:205,178
FAA1  A9 10     LDA                             A:37 X:02 Y:C4 P:E5 SP:F9 PPU:211,178
FAA3  60        RTS                             A:10 X:02 Y:C4 P:65 SP:F9 PPU:217,178
EE90  07 47     SLO                             A:10 X:02 Y:C4 P:65 SP:FB PPU:235,178
EE92  EA        NOP                             A:7E X:02 Y:C4 P:64 SP:FB PPU:250,178
EE93  EA        NOP                             A:7E X:02 Y:C4 P:64 SP:FB PPU:256,178
EE94  EA        NOP                             A:7E X:02 Y:C4 P:64 SP:FB PPU:262,178
EE95  EA        NOP                             A:7E X:02 Y:C4 P:64 SP:FB PPU:268,178
EE96  20 A4 FA  JSR                             A:7E X:02 Y:C4 P:64 SP:FB PPU:274,178
FAA4  50 40     BVC                             A:7E X:02 Y:C4 P:64 SP:F9 PPU:292,178
FAA6  F0 3E     BEQ                             A:7E X:02 Y:C4 P:64 SP:F9 PPU:298,178
FAA8  30 3C     BMI                             A:7E X:02 Y:C4 P:64 SP:F9 PPU:304,178
FAAA  B0 3A     BCS                             A:7E X:02 Y:C4 P:64 SP:F9 PPU:310,178
FAAC  C9 7E     CMP                             A:7E X:02 Y:C4 P:64 SP:F9 PPU:316,178
FAAE  D0 36     BNE                             A:7E X:02 Y:C4 P:67 SP:F9 PPU:322,178
FAB0  60        RTS                             A:7E X:02 Y:C4 P:67 SP:F9 PPU:328,178
EE99  A5 47     LDA                             A:7E X:02 Y:C4 P:67 SP:FB PPU:  5,179
EE9B  C9 6E     CMP                             A:6E X:02 Y:C4 P:65 SP:FB PPU: 14,179
EE9D  F0 02     BEQ                             A:6E X:02 Y:C4 P:67 SP:FB PPU: 20,179
EEA1  C8        INY                             A:6E X:02 Y:C4 P:67 SP:FB PPU: 29,179
EEA2  A9 A5     LDA                             A:6E X:02 Y:C5 P:E5 SP:FB PPU: 35,179
EEA4  8D 47 06  STA                             A:A5 X:02 Y:C5 P:E5 SP:FB PPU: 41,179
EEA7  20 7B FA  JSR                             A:A5 X:02 Y:C5 P:E5 SP:FB PPU: 53,179
FA7B  24 01     BIT                             A:A5 X:02 Y:C5 P:E5 SP:F9 PPU: 71,179
FA7D  18        CLC                             A:A5 X:02 Y:C5 P:E5 SP:F9 PPU: 80,179
FA7E  A9 B3     LDA                             A:A5 X:02 Y:C5 P:E4 SP:F9 PPU: 86,179
FA80  60        RTS                             A:B3 X:02 Y:C5 P:E4 SP:F9 PPU: 92,179
EEAA  0F 47 06  SLO                             A:B3 X:02 Y:C5 P:E4 SP:FB PPU:110,179
EEAD  EA        NOP                             A:FB X:02 Y:C5 P:E5 SP:FB PPU:128,179
EEAE  EA        NOP                             A:FB X:02 Y:C5 P:E5 SP:FB PPU:134,179
EEAF  EA        NOP                             A:FB X:02 Y:C5 P:E5 SP:FB PPU:140,179
EEB0  EA        NOP                             A:FB X:02 Y:C5 P:E5 SP:FB PPU:146,179
EEB1  20 81 FA  JSR                             A:FB X:02 Y:C5 P:E5 SP:FB PPU:152,179
FA81  50 63     BVC                             A:FB X:02 Y:C5 P:E5 SP:F9 PPU:170,179
FA83  90 61     BCC                             A:FB X:02 Y:C5 P:E5 SP:F9 PPU:176,179
FA85  10 5F     BPL                             A:FB X:02 Y:C5 P:E5 SP:F9 PPU:182,179
FA87  C9 FB     CMP                             A:FB X:02 Y:C5 P:E5 SP:F9 PPU:188,179
FA89  D0 5B     BNE                             A:FB X:02 Y:C5 P:67 SP:F9 PPU:194,179
FA8B  60        RTS                             A:FB X:02 Y:C5 P:67 SP:F9 PPU:200,179
EEB4  AD 47 06  LDA                             A:FB X:02 Y:C5 P:67 SP:FB PPU:218,179
EEB7  C9 4A     CMP                             A:4A X:02 Y:C5 P:65 SP:FB PPU:230,179
EEB9  F0 02     BEQ                             A:4A X:02 Y:C5 P:67 SP:FB PPU:236,179
EEBD  C8        INY                             A:4A X:02 Y:C5 P:67 SP:FB PPU:245,179
EEBE  A9 29     LDA                             A:4A X:02 Y:C6 P:E5 SP:FB PPU:251,179
EEC0  8D 47 06  STA                             A:29 X:02 Y:C6 P:65 SP:FB PPU:257,179
EEC3  20 8C FA  JSR                             A:29 X:02 Y:C6 P:65 SP:FB PPU:269,179
FA8C  B8        CLV                             A:29 X:02 Y:C6 P:65 SP:F9 PPU:287,179
FA8D  18        CLC                             A:29 X:02 Y:C6 P:25 SP:F9 PPU:293,179
FA8E  A9 C3     LDA                             A:29 X:02 Y:C6 P:24 SP:F9 PPU:299,179
FA90  60        RTS                             A:C3 X:02 Y:C6 P:A4 SP:F9 PPU:305,179
EEC6  0F 47 06  SLO                             A:C3 X:02 Y:C6 P:A4 SP:FB PPU:323,179
EEC9  EA        NOP                             A:D3 X:02 Y:C6 P:A4 SP:FB PPU:  0,180
EECA  EA        NOP                             A:D3 X:02 Y:C6 P:A4 SP:FB PPU:  6,180
EECB  EA        NOP                             A:D3 X:02 Y:C6 P:A4 SP:FB PPU: 12,180
EECC  EA        NOP                             A:D3 X:02 Y:C6 P:A4 SP:FB PPU: 18,180
EECD  20 91 FA  JSR                             A:D3 X:02 Y:C6 P:A4 SP:FB PPU: 24,180
FA91  70 53     BVS                             A:D3 X:02 Y:C6 P:A4 SP:F9 PPU: 42,180
FA93  F0 51     BEQ                             A:D3 X:02 Y:C6 P:A4 SP:F9 PPU: 48,180
FA95  10 4F     BPL                             A:D3 X:02 Y:C6 P:A4 SP:F9 PPU: 54,180
FA97  B0 4D     BCS                             A:D3 X:02 Y:C6 P:A4 SP:F9 PPU: 60,180
FA99  C9 D3     CMP                             A:D3 X:02 Y:C6 P:A4 SP:F9 PPU: 66,180
FA9B  D0 49     BNE                             A:D3 X:02 Y:C6 P:27 SP:F9 PPU: 72,180
FA9D  60        RTS                             A:D3 X:02 Y:C6 P:27 SP:F9 PPU: 78,180
EED0  AD 47 06  LDA                             A:D3 X:02 Y:C6 P:27 SP:FB PPU: 96,180
EED3  C9 52     CMP                             A:52 X:02 Y:C6 P:25 SP:FB PPU:108,180
EED5  F0 02     BEQ                             A:52 X:02 Y:C6 P:27 SP:FB PPU:114,180
EED9  C8        INY                             A:52 X:02 Y:C6 P:27 SP:FB PPU:123,180
EEDA  A9 37     LDA                             A:52 X:02 Y:C7 P:A5 SP:FB PPU:129,180
EEDC  8D 47 06  STA                             A:37 X:02 Y:C7 P:25 SP:FB PPU:135,180
EEDF  20 9E FA  JSR                             A:37 X:02 Y:C7 P:25 SP:FB PPU:147,180
FA9E  24 01     BIT                             A:37 X:02 Y:C7 P:25 SP:F9 PPU:165,180
FAA0  38        SEC                             A:37 X:02 Y:C7 P:E5 SP:F9 PPU:174,180
FAA1  A9 10     LDA                             A:37 X:02 Y:C7 P:E5 SP:F9 PPU:180,180
FAA3  60        RTS                             A:10 X:02 Y:C7 P:65 SP:F9 PPU:186,180
EEE2  0F 47 06  SLO                             A:10 X:02 Y:C7 P:65 SP:FB PPU:204,180
EEE5  EA        NOP                             A:7E X:02 Y:C7 P:64 SP:FB PPU:222,180
EEE6  EA        NOP                             A:7E X:02 Y:C7 P:64 SP:FB PPU:228,180
EEE7  EA        NOP                             A:7E X:02 Y:C7 P:64 SP:FB PPU:234,180
EEE8  EA        NOP                             A:7E X:02 Y:C7 P:64 SP:FB PPU:240,180
EEE9  20 A4 FA  JSR                             A:7E X:02 Y:C7 P:64 SP:FB PPU:246,180
FAA4  50 40     BVC                             A:7E X:02 Y:C7 P:64 SP:F9 PPU:264,180
FAA6  F0 3E     BEQ                             A:7E X:02 Y:C7 P:64 SP:F9 PPU:270,180
FAA8  30 3C     BMI                             A:7E X:02 Y:C7 P:64 SP:F9 PPU:276,180
FAAA  B0 3A     BCS                             A:7E X:02 Y:C7 P:64 SP:F9 PPU:282,180
FAAC  C9 7E     CMP                             A:7E X:02 Y:C7 P:64 SP:F9 PPU:288,180
FAAE  D0 36     BNE                             A:7E X:02 Y:C7 P:67 SP:F9 PPU:294,180
FAB0  60        RTS                             A:7E X:02 Y:C7 P:67 SP:F9 PPU:300,180
EEEC  AD 47 06  LDA                             A:7E X:02 Y:C7 P:67 SP:FB PPU:318,180
EEEF  C9 6E     CMP                             A:6E X:02 Y:C7 P:65 SP:FB PPU:330,180
EEF1  F0 02     BEQ                             A:6E X:02 Y:C7 P:67 SP:FB PPU:336,180
EEF5  A9 A5     LDA                             A:6E X:02 Y:C7 P:67 SP:FB PPU:  4,181
EEF7  8D 47 06  STA                             A:A5 X:02 Y:C7 P:E5 SP:FB PPU: 10,181
EEFA  A9 48     LDA                             A:A5 X:02 Y:C7 P:E5 SP:FB PPU: 22,181
EEFC  85 45     STA                             A:48 X:02 Y:C7 P:65 SP:FB PPU: 28,181
EEFE  A9 05     LDA                             A:48 X:02 Y:C7 P:65 SP:FB PPU: 37,181
EF00  85 46     STA                             A:05 X:02 Y:C7 P:65 SP:FB PPU: 43,181
EF02  A0 FF     LDY                             A:05 X:02 Y:C7 P:65 SP:FB PPU: 52,181
EF04  20 7B FA  JSR                             A:05 X:02 Y:FF P:E5 SP:FB PPU: 58,181
FA7B  24 01     BIT                             A:05 X:02 Y:FF P:E5 SP:F9 PPU: 76,181
FA7D  18        CLC                             A:05 X:02 Y:FF P:E5 SP:F9 PPU: 85,181
FA7E  A9 B3     LDA                             A:05 X:02 Y:FF P:E4 SP:F9 PPU: 91,181
FA80  60        RTS                             A:B3 X:02 Y:FF P:E4 SP:F9 PPU: 97,181
EF07  13 45     SLO                             A:B3 X:02 Y:FF P:E4 SP:FB PPU:115,181
EF09  EA        NOP                             A:FB X:02 Y:FF P:E5 SP:FB PPU:139,181
EF0A  EA        NOP                             A:FB X:02 Y:FF P:E5 SP:FB PPU:145,181
EF0B  08        PHP                             A:FB X:02 Y:FF P:E5 SP:FB PPU:151,181
EF0C  48        PHA                             A:FB X:02 Y:FF P:E5 SP:FA PPU:160,181
EF0D  A0 C8     LDY                             A:FB X:02 Y:FF P:E5 SP:F9 PPU:169,181
EF0F  68        PLA                             A:FB X:02 Y:C8 P:E5 SP:F9 PPU:175,181
EF10  28        PLP                             A:FB X:02 Y:C8 P:E5 SP:FA PPU:187,181
EF11  20 81 FA  JSR                             A:FB X:02 Y:C8 P:E5 SP:FB PPU:199,181
FA81  50 63     BVC                             A:FB X:02 Y:C8 P:E5 SP:F9 PPU:217,181
FA83  90 61     BCC                             A:FB X:02 Y:C8 P:E5 SP:F9 PPU:223,181
FA85  10 5F     BPL                             A:FB X:02 Y:C8 P:E5 SP:F9 PPU:229,181
FA87  C9 FB     CMP                             A:FB X:02 Y:C8 P:E5 SP:F9 PPU:235,181
FA89  D0 5B     BNE                             A:FB X:02 Y:C8 P:67 SP:F9 PPU:241,181
FA8B  60        RTS                             A:FB X:02 Y:C8 P:67 SP:F9 PPU:247,181
EF14  AD 47 06  LDA                             A:FB X:02 Y:C8 P:67 SP:FB PPU:265,181
EF17  C9 4A     CMP                             A:4A X:02 Y:C8 P:65 SP:FB PPU:277,181
EF19  F0 02     BEQ                             A:4A X:02 Y:C8 P:67 SP:FB PPU:283,181
EF1D  A0 FF     LDY                             A:4A X:02 Y:C8 P:67 SP:FB PPU:292,181
EF1F  A9 29     LDA                             A:4A X:02 Y:FF P:E5 SP:FB PPU:298,181
EF21  8D 47 06  STA                             A:29 X:02 Y:FF P:65 SP:FB PPU:304,181
EF24  20 8C FA  JSR                             A:29 X:02 Y:FF P:65 SP:FB PPU:316,181
FA8C  B8        CLV                             A:29 X:02 Y:FF P:65 SP:F9 PPU:334,181
FA8D  18        CLC                             A:29 X:02 Y:FF P:25 SP:F9 PPU:340,181
FA8E  A9 C3     LDA                             A:29 X:02 Y:FF P:24 SP:F9 PPU:  5,182
FA90  60        RTS                             A:C3 X:02 Y:FF P:A4 SP:F9 PPU: 11,182
EF27  13 45     SLO                             A:C3 X:02 Y:FF P:A4 SP:FB PPU: 29,182
EF29  EA        NOP                             A:D3 X:02 Y:FF P:A4 SP:FB PPU: 53,182
EF2A  EA        NOP                             A:D3 X:02 Y:FF P:A4 SP:FB PPU: 59,182
EF2B  08        PHP                             A:D3 X:02 Y:FF P:A4 SP:FB PPU: 65,182
EF2C  48        PHA                             A:D3 X:02 Y:FF P:A4 SP:FA PPU: 74,182
EF2D  A0 C9     LDY                             A:D3 X:02 Y:FF P:A4 SP:F9 PPU: 83,182
EF2F  68        PLA                             A:D3 X:02 Y:C9 P:A4 SP:F9 PPU: 89,182
EF30  28        PLP                             A:D3 X:02 Y:C9 P:A4 SP:FA PPU:101,182
EF31  20 91 FA  JSR                             A:D3 X:02 Y:C9 P:A4 SP:FB PPU:113,182
FA91  70 53     BVS                             A:D3 X:02 Y:C9 P:A4 SP:F9 PPU:131,182
FA93  F0 51     BEQ                             A:D3 X:02 Y:C9 P:A4 SP:F9 PPU:137,182
FA95  10 4F     BPL                             A:D3 X:02 Y:C9 P:A4 SP:F9 PPU:143,182
FA97  B0 4D     BCS                             A:D3 X:02 Y:C9 P:A4 SP:F9 PPU:149,182
FA99  C9 D3     CMP                             A:D3 X:02 Y:C9 P:A4 SP:F9 PPU:155,182
FA9B  D0 49     BNE                             A:D3 X:02 Y:C9 P:27 SP:F9 PPU:161,182
FA9D  60        RTS                             A:D3 X:02 Y:C9 P:27 SP:F9 PPU:167,182
EF34  AD 47 06  LDA                             A:D3 X:02 Y:C9 P:27 SP:FB PPU:185,182
EF37  C9 52     CMP                             A:52 X:02 Y:C9 P:25 SP:FB PPU:197,182
EF39  F0 02     BEQ                             A:52 X:02 Y:C9 P:27 SP:FB PPU:203,182
EF3D  A0 FF     LDY                             A:52 X:02 Y:C9 P:27 SP:FB PPU:212,182
EF3F  A9 37     LDA                             A:52 X:02 Y:FF P:A5 SP:FB PPU:218,182
EF41  8D 47 06  STA                             A:37 X:02 Y:FF P:25 SP:FB PPU:224,182
EF44  20 9E FA  JSR                             A:37 X:02 Y:FF P:25 SP:FB PPU:236,182
FA9E  24 01     BIT                             A:37 X:02 Y:FF P:25 SP:F9 PPU:254,182
FAA0  38        SEC                             A:37 X:02 Y:FF P:E5 SP:F9 PPU:263,182
FAA1  A9 10     LDA                             A:37 X:02 Y:FF P:E5 SP:F9 PPU:269,182
FAA3  60        RTS                             A:10 X:02 Y:FF P:65 SP:F9 PPU:275,182
EF47  13 45     SLO                             A:10 X:02 Y:FF P:65 SP:FB PPU:293,182
EF49  EA        NOP                             A:7E X:02 Y:FF P:64 SP:FB PPU:317,182
EF4A  EA        NOP                             A:7E X:02 Y:FF P:64 SP:FB PPU:323,182
EF4B  08        PHP                             A:7E X:02 Y:FF P:64 SP:FB PPU:329,182
EF4C  48        PHA                             A:7E X:02 Y:FF P:64 SP:FA PPU:338,182
EF4D  A0 CA     LDY                             A:7E X:02 Y:FF P:64 SP:F9 PPU:  6,183
EF4F  68        PLA                             A:7E X:02 Y:CA P:E4 SP:F9 PPU: 12,183
EF50  28        PLP                             A:7E X:02 Y:CA P:64 SP:FA PPU: 24,183
EF51  20 A4 FA  JSR                             A:7E X:02 Y:CA P:64 SP:FB PPU: 36,183
FAA4  50 40     BVC                             A:7E X:02 Y:CA P:64 SP:F9 PPU: 54,183
FAA6  F0 3E     BEQ                             A:7E X:02 Y:CA P:64 SP:F9 PPU: 60,183
FAA8  30 3C     BMI                             A:7E X:02 Y:CA P:64 SP:F9 PPU: 66,183
FAAA  B0 3A     BCS                             A:7E X:02 Y:CA P:64 SP:F9 PPU: 72,183
FAAC  C9 7E     CMP                             A:7E X:02 Y:CA P:64 SP:F9 PPU: 78,183
FAAE  D0 36     BNE                             A:7E X:02 Y:CA P:67 SP:F9 PPU: 84,183
FAB0  60        RTS                             A:7E X:02 Y:CA P:67 SP:F9 PPU: 90,183
EF54  AD 47 06  LDA                             A:7E X:02 Y:CA P:67 SP:FB PPU:108,183
EF57  C9 6E     CMP                             A:6E X:02 Y:CA P:65 SP:FB PPU:120,183
EF59  F0 02     BEQ                             A:6E X:02 Y:CA P:67 SP:FB PPU:126,183
EF5D  A0 CB     LDY                             A:6E X:02 Y:CA P:67 SP:FB PPU:135,183
EF5F  A2 FF     LDX                             A:6E X:02 Y:CB P:E5 SP:FB PPU:141,183
EF61  A9 A5     LDA                             A:6E X:FF Y:CB P:E5 SP:FB PPU:147,183
EF63  85 47     STA                             A:A5 X:FF Y:CB P:E5 SP:FB PPU:153,183
EF65  20 7B FA  JSR                             A:A5 X:FF Y:CB P:E5 SP:FB PPU:162,183
FA7B  24 01     BIT                             A:A5 X:FF Y:CB P:E5 SP:F9 PPU:180,183
FA7D  18        CLC                             A:A5 X:FF Y:CB P:E5 SP:F9 PPU:189,183
FA7E  A9 B3     LDA                             A:A5 X:FF Y:CB P:E4 SP:F9 PPU:195,183
FA80  60        RTS                             A:B3 X:FF Y:CB P:E4 SP:F9 PPU:201,183
EF68  17 48     SLO                             A:B3 X:FF Y:CB P:E4 SP:FB PPU:219,183
EF6A  EA        NOP                             A:FB X:FF Y:CB P:E5 SP:FB PPU:237,183
EF6B  EA        NOP                             A:FB X:FF Y:CB P:E5 SP:FB PPU:243,183
EF6C  EA        NOP                             A:FB X:FF Y:CB P:E5 SP:FB PPU:249,183
EF6D  EA        NOP                             A:FB X:FF Y:CB P:E5 SP:FB PPU:255,183
EF6E  20 81 FA  JSR                             A:FB X:FF Y:CB P:E5 SP:FB PPU:261,183
FA81  50 63     BVC                             A:FB X:FF Y:CB P:E5 SP:F9 PPU:279,183
FA83  90 61     BCC                             A:FB X:FF Y:CB P:E5 SP:F9 PPU:285,183
FA85  10 5F     BPL                             A:FB X:FF Y:CB P:E5 SP:F9 PPU:291,183
FA87  C9 FB     CMP                             A:FB X:FF Y:CB P:E5 SP:F9 PPU:297,183
FA89  D0 5B     BNE                             A:FB X:FF Y:CB P:67 SP:F9 PPU:303,183
FA8B  60        RTS                             A:FB X:FF Y:CB P:67 SP:F9 PPU:309,183
EF71  A5 47     LDA                             A:FB X:FF Y:CB P:67 SP:FB PPU:327,183
EF73  C9 4A     CMP                             A:4A X:FF Y:CB P:65 SP:FB PPU:336,183
EF75  F0 02     BEQ                             A:4A X:FF Y:CB P:67 SP:FB PPU:  1,184
EF79  C8        INY                             A:4A X:FF Y:CB P:67 SP:FB PPU: 10,184
EF7A  A9 29     LDA                             A:4A X:FF Y:CC P:E5 SP:FB PPU: 16,184
EF7C  85 47     STA                             A:29 X:FF Y:CC P:65 SP:FB PPU: 22,184
EF7E  20 8C FA  JSR                             A:29 X:FF Y:CC P:65 SP:FB PPU: 31,184
FA8C  B8        CLV                             A:29 X:FF Y:CC P:65 SP:F9 PPU: 49,184
FA8D  18        CLC                             A:29 X:FF Y:CC P:25 SP:F9 PPU: 55,184
FA8E  A9 C3     LDA                             A:29 X:FF Y:CC P:24 SP:F9 PPU: 61,184
FA90  60        RTS                             A:C3 X:FF Y:CC P:A4 SP:F9 PPU: 67,184
EF81  17 48     SLO                             A:C3 X:FF Y:CC P:A4 SP:FB PPU: 85,184
EF83  EA        NOP                             A:D3 X:FF Y:CC P:A4 SP:FB PPU:103,184
EF84  EA        NOP                             A:D3 X:FF Y:CC P:A4 SP:FB PPU:109,184
EF85  EA        NOP                             A:D3 X:FF Y:CC P:A4 SP:FB PPU:115,184
EF86  EA        NOP                             A:D3 X:FF Y:CC P:A4 SP:FB PPU:121,184
EF87  20 91 FA  JSR                             A:D3 X:FF Y:CC P:A4 SP:FB PPU:127,184
FA91  70 53     BVS                             A:D3 X:FF Y:CC P:A4 SP:F9 PPU:145,184
FA93  F0 51     BEQ                             A:D3 X:FF Y:CC P:A4 SP:F9 PPU:151,184
FA95  10 4F     BPL                             A:D3 X:FF Y:CC P:A4 SP:F9 PPU:157,184
FA97  B0 4D     BCS                             A:D3 X:FF Y:CC P:A4 SP:F9 PPU:163,184
FA99  C9 D3     CMP                             A:D3 X:FF Y:CC P:A4 SP:F9 PPU:169,184
FA9B  D0 49     BNE                             A:D3 X:FF Y:CC P:27 SP:F9 PPU:175,184
FA9D  60        RTS                             A:D3 X:FF Y:CC P:27 SP:F9 PPU:181,184
EF8A  A5 47     LDA                             A:D3 X:FF Y:CC P:27 SP:FB PPU:199,184
EF8C  C9 52     CMP                             A:52 X:FF Y:CC P:25 SP:FB PPU:208,184
EF8E  F0 02     BEQ                             A:52 X:FF Y:CC P:27 SP:FB PPU:214,184
EF92  C8        INY                             A:52 X:FF Y:CC P:27 SP:FB PPU:223,184
EF93  A9 37     LDA                             A:52 X:FF Y:CD P:A5 SP:FB PPU:229,184
EF95  85 47     STA                             A:37 X:FF Y:CD P:25 SP:FB PPU:235,184
EF97  20 9E FA  JSR                             A:37 X:FF Y:CD P:25 SP:FB PPU:244,184
FA9E  24 01     BIT                             A:37 X:FF Y:CD P:25 SP:F9 PPU:262,184
FAA0  38        SEC                             A:37 X:FF Y:CD P:E5 SP:F9 PPU:271,184
FAA1  A9 10     LDA                             A:37 X:FF Y:CD P:E5 SP:F9 PPU:277,184
FAA3  60        RTS                             A:10 X:FF Y:CD P:65 SP:F9 PPU:283,184
EF9A  17 48     SLO                             A:10 X:FF Y:CD P:65 SP:FB PPU:301,184
EF9C  EA        NOP                             A:7E X:FF Y:CD P:64 SP:FB PPU:319,184
EF9D  EA        NOP                             A:7E X:FF Y:CD P:64 SP:FB PPU:325,184
EF9E  EA        NOP                             A:7E X:FF Y:CD P:64 SP:FB PPU:331,184
EF9F  EA        NOP                             A:7E X:FF Y:CD P:64 SP:FB PPU:337,184
EFA0  20 A4 FA  JSR                             A:7E X:FF Y:CD P:64 SP:FB PPU:  2,185
FAA4  50 40     BVC                             A:7E X:FF Y:CD P:64 SP:F9 PPU: 20,185
FAA6  F0 3E     BEQ                             A:7E X:FF Y:CD P:64 SP:F9 PPU: 26,185
FAA8  30 3C     BMI                             A:7E X:FF Y:CD P:64 SP:F9 PPU: 32,185
FAAA  B0 3A     BCS                             A:7E X:FF Y:CD P:64 SP:F9 PPU: 38,185
FAAC  C9 7E     CMP                             A:7E X:FF Y:CD P:64 SP:F9 PPU: 44,185
FAAE  D0 36     BNE                             A:7E X:FF Y:CD P:67 SP:F9 PPU: 50,185
FAB0  60        RTS                             A:7E X:FF Y:CD P:67 SP:F9 PPU: 56,185
EFA3  A5 47     LDA                             A:7E X:FF Y:CD P:67 SP:FB PPU: 74,185
EFA5  C9 6E     CMP                             A:6E X:FF Y:CD P:65 SP:FB PPU: 83,185
EFA7  F0 02     BEQ                             A:6E X:FF Y:CD P:67 SP:FB PPU: 89,185
EFAB  A9 A5     LDA                             A:6E X:FF Y:CD P:67 SP:FB PPU: 98,185
EFAD  8D 47 06  STA                             A:A5 X:FF Y:CD P:E5 SP:FB PPU:104,185
EFB0  A0 FF     LDY                             A:A5 X:FF Y:CD P:E5 SP:FB PPU:116,185
EFB2  20 7B FA  JSR                             A:A5 X:FF Y:FF P:E5 SP:FB PPU:122,185
FA7B  24 01     BIT                             A:A5 X:FF Y:FF P:E5 SP:F9 PPU:140,185
FA7D  18        CLC                             A:A5 X:FF Y:FF P:E5 SP:F9 PPU:149,185
FA7E  A9 B3     LDA                             A:A5 X:FF Y:FF P:E4 SP:F9 PPU:155,185
FA80  60        RTS                             A:B3 X:FF Y:FF P:E4 SP:F9 PPU:161,185
EFB5  1B 48 05  SLO                             A:B3 X:FF Y:FF P:E4 SP:FB PPU:179,185
EFB8  EA        NOP                             A:FB X:FF Y:FF P:E5 SP:FB PPU:200,185
EFB9  EA        NOP                             A:FB X:FF Y:FF P:E5 SP:FB PPU:206,185
EFBA  08        PHP                             A:FB X:FF Y:FF P:E5 SP:FB PPU:212,185
EFBB  48        PHA                             A:FB X:FF Y:FF P:E5 SP:FA PPU:221,185
EFBC  A0 CE     LDY                             A:FB X:FF Y:FF P:E5 SP:F9 PPU:230,185
EFBE  68        PLA                             A:FB X:FF Y:CE P:E5 SP:F9 PPU:236,185
EFBF  28        PLP                             A:FB X:FF Y:CE P:E5 SP:FA PPU:248,185
EFC0  20 81 FA  JSR                             A:FB X:FF Y:CE P:E5 SP:FB PPU:260,185
FA81  50 63     BVC                             A:FB X:FF Y:CE P:E5 SP:F9 PPU:278,185
FA83  90 61     BCC                             A:FB X:FF Y:CE P:E5 SP:F9 PPU:284,185
FA85  10 5F     BPL                             A:FB X:FF Y:CE P:E5 SP:F9 PPU:290,185
FA87  C9 FB     CMP                             A:FB X:FF Y:CE P:E5 SP:F9 PPU:296,185
FA89  D0 5B     BNE                             A:FB X:FF Y:CE P:67 SP:F9 PPU:302,185
FA8B  60        RTS                             A:FB X:FF Y:CE P:67 SP:F9 PPU:308,185
EFC3  AD 47 06  LDA                             A:FB X:FF Y:CE P:67 SP:FB PPU:326,185
EFC6  C9 4A     CMP                             A:4A X:FF Y:CE P:65 SP:FB PPU:338,185
EFC8  F0 02     BEQ                             A:4A X:FF Y:CE P:67 SP:FB PPU:  3,186
EFCC  A0 FF     LDY                             A:4A X:FF Y:CE P:67 SP:FB PPU: 12,186
EFCE  A9 29     LDA                             A:4A X:FF Y:FF P:E5 SP:FB PPU: 18,186
EFD0  8D 47 06  STA                             A:29 X:FF Y:FF P:65 SP:FB PPU: 24,186
EFD3  20 8C FA  JSR                             A:29 X:FF Y:FF P:65 SP:FB PPU: 36,186
FA8C  B8        CLV                             A:29 X:FF Y:FF P:65 SP:F9 PPU: 54,186
FA8D  18        CLC                             A:29 X:FF Y:FF P:25 SP:F9 PPU: 60,186
FA8E  A9 C3     LDA                             A:29 X:FF Y:FF P:24 SP:F9 PPU: 66,186
FA90  60        RTS                             A:C3 X:FF Y:FF P:A4 SP:F9 PPU: 72,186
EFD6  1B 48 05  SLO                             A:C3 X:FF Y:FF P:A4 SP:FB PPU: 90,186
EFD9  EA        NOP                             A:D3 X:FF Y:FF P:A4 SP:FB PPU:111,186
EFDA  EA        NOP                             A:D3 X:FF Y:FF P:A4 SP:FB PPU:117,186
EFDB  08        PHP                             A:D3 X:FF Y:FF P:A4 SP:FB PPU:123,186
EFDC  48        PHA                             A:D3 X:FF Y:FF P:A4 SP:FA PPU:132,186
EFDD  A0 CF     LDY                             A:D3 X:FF Y:FF P:A4 SP:F9 PPU:141,186
EFDF  68        PLA                             A:D3 X:FF Y:CF P:A4 SP:F9 PPU:147,186
EFE0  28        PLP                             A:D3 X:FF Y:CF P:A4 SP:FA PPU:159,186
EFE1  20 91 FA  JSR                             A:D3 X:FF Y:CF P:A4 SP:FB PPU:171,186
FA91  70 53     BVS                             A:D3 X:FF Y:CF P:A4 SP:F9 PPU:189,186
FA93  F0 51     BEQ                             A:D3 X:FF Y:CF P:A4 SP:F9 PPU:195,186
FA95  10 4F     BPL                             A:D3 X:FF Y:CF P:A4 SP:F9 PPU:201,186
FA97  B0 4D     BCS                             A:D3 X:FF Y:CF P:A4 SP:F9 PPU:207,186
FA99  C9 D3     CMP                             A:D3 X:FF Y:CF P:A4 SP:F9 PPU:213,186
FA9B  D0 49     BNE                             A:D3 X:FF Y:CF P:27 SP:F9 PPU:219,186
FA9D  60        RTS                             A:D3 X:FF Y:CF P:27 SP:F9 PPU:225,186
EFE4  AD 47 06  LDA                             A:D3 X:FF Y:CF P:27 SP:FB PPU:243,186
EFE7  C9 52     CMP                             A:52 X:FF Y:CF P:25 SP:FB PPU:255,186
EFE9  F0 02     BEQ                             A:52 X:FF Y:CF P:27 SP:FB PPU:261,186
EFED  A0 FF     LDY                             A:52 X:FF Y:CF P:27 SP:FB PPU:270,186
EFEF  A9 37     LDA                             A:52 X:FF Y:FF P:A5 SP:FB PPU:276,186
EFF1  8D 47 06  STA                             A:37 X:FF Y:FF P:25 SP:FB PPU:282,186
EFF4  20 9E FA  JSR                             A:37 X:FF Y:FF P:25 SP:FB PPU:294,186
FA9E  24 01     BIT                             A:37 X:FF Y:FF P:25 SP:F9 PPU:312,186
FAA0  38        SEC                             A:37 X:FF Y:FF P:E5 SP:F9 PPU:321,186
FAA1  A9 10     LDA                             A:37 X:FF Y:FF P:E5 SP:F9 PPU:327,186
FAA3  60        RTS                             A:10 X:FF Y:FF P:65 SP:F9 PPU:333,186
EFF7  1B 48 05  SLO                             A:10 X:FF Y:FF P:65 SP:FB PPU: 10,187
EFFA  EA        NOP                             A:7E X:FF Y:FF P:64 SP:FB PPU: 31,187
EFFB  EA        NOP                             A:7E X:FF Y:FF P:64 SP:FB PPU: 37,187
EFFC  08        PHP                             A:7E X:FF Y:FF P:64 SP:FB PPU: 43,187
EFFD  48        PHA                             A:7E X:FF Y:FF P:64 SP:FA PPU: 52,187
EFFE  A0 D0     LDY                             A:7E X:FF Y:FF P:64 SP:F9 PPU: 61,187
F000  68        PLA                             A:7E X:FF Y:D0 P:E4 SP:F9 PPU: 67,187
F001  28        PLP                             A:7E X:FF Y:D0 P:64 SP:FA PPU: 79,187
F002  20 A4 FA  JSR                             A:7E X:FF Y:D0 P:64 SP:FB PPU: 91,187
FAA4  50 40     BVC                             A:7E X:FF Y:D0 P:64 SP:F9 PPU:109,187
FAA6  F0 3E     BEQ                             A:7E X:FF Y:D0 P:64 SP:F9 PPU:115,187
FAA8  30 3C     BMI                             A:7E X:FF Y:D0 P:64 SP:F9 PPU:121,187
FAAA  B0 3A     BCS                             A:7E X:FF Y:D0 P:64 SP:F9 PPU:127,187
FAAC  C9 7E     CMP                             A:7E X:FF Y:D0 P:64 SP:F9 PPU:133,187
FAAE  D0 36     BNE                             A:7E X:FF Y:D0 P:67 SP:F9 PPU:139,187
FAB0  60        RTS                             A:7E X:FF Y:D0 P:67 SP:F9 PPU:145,187
F005  AD 47 06  LDA                             A:7E X:FF Y:D0 P:67 SP:FB PPU:163,187
F008  C9 6E     CMP                             A:6E X:FF Y:D0 P:65 SP:FB PPU:175,187
F00A  F0 02     BEQ                             A:6E X:FF Y:D0 P:67 SP:FB PPU:181,187
F00E  A0 D1     LDY                             A:6E X:FF Y:D0 P:67 SP:FB PPU:190,187
F010  A2 FF     LDX                             A:6E X:FF Y:D1 P:E5 SP:FB PPU:196,187
F012  A9 A5     LDA                             A:6E X:FF Y:D1 P:E5 SP:FB PPU:202,187
F014  8D 47 06  STA                             A:A5 X:FF Y:D1 P:E5 SP:FB PPU:208,187
F017  20 7B FA  JSR                             A:A5 X:FF Y:D1 P:E5 SP:FB PPU:220,187
FA7B  24 01     BIT                             A:A5 X:FF Y:D1 P:E5 SP:F9 PPU:238,187
FA7D  18        CLC                             A:A5 X:FF Y:D1 P:E5 SP:F9 PPU:247,187
FA7E  A9 B3     LDA                             A:A5 X:FF Y:D1 P:E4 SP:F9 PPU:253,187
FA80  60        RTS                             A:B3 X:FF Y:D1 P:E4 SP:F9 PPU:259,187
F01A  1F 48 05  SLO                             A:B3 X:FF Y:D1 P:E4 SP:FB PPU:277,187
F01D  EA        NOP                             A:FB X:FF Y:D1 P:E5 SP:FB PPU:298,187
F01E  EA        NOP                             A:FB X:FF Y:D1 P:E5 SP:FB PPU:304,187
F01F  EA        NOP                             A:FB X:FF Y:D1 P:E5 SP:FB PPU:310,187
F020  EA        NOP                             A:FB X:FF Y:D1 P:E5 SP:FB PPU:316,187
F021  20 81 FA  JSR                             A:FB X:FF Y:D1 P:E5 SP:FB PPU:322,187
FA81  50 63     BVC                             A:FB X:FF Y:D1 P:E5 SP:F9 PPU:340,187
FA83  90 61     BCC                             A:FB X:FF Y:D1 P:E5 SP:F9 PPU:  5,188
FA85  10 5F     BPL                             A:FB X:FF Y:D1 P:E5 SP:F9 PPU: 11,188
FA87  C9 FB     CMP                             A:FB X:FF Y:D1 P:E5 SP:F9 PPU: 17,188
FA89  D0 5B     BNE                             A:FB X:FF Y:D1 P:67 SP:F9 PPU: 23,188
FA8B  60        RTS                             A:FB X:FF Y:D1 P:67 SP:F9 PPU: 29,188
F024  AD 47 06  LDA                             A:FB X:FF Y:D1 P:67 SP:FB PPU: 47,188
F027  C9 4A     CMP                             A:4A X:FF Y:D1 P:65 SP:FB PPU: 59,188
F029  F0 02     BEQ                             A:4A X:FF Y:D1 P:67 SP:FB PPU: 65,188
F02D  C8        INY                             A:4A X:FF Y:D1 P:67 SP:FB PPU: 74,188
F02E  A9 29     LDA                             A:4A X:FF Y:D2 P:E5 SP:FB PPU: 80,188
F030  8D 47 06  STA                             A:29 X:FF Y:D2 P:65 SP:FB PPU: 86,188
F033  20 8C FA  JSR                             A:29 X:FF Y:D2 P:65 SP:FB PPU: 98,188
FA8C  B8        CLV                             A:29 X:FF Y:D2 P:65 SP:F9 PPU:116,188
FA8D  18        CLC                             A:29 X:FF Y:D2 P:25 SP:F9 PPU:122,188
FA8E  A9 C3     LDA                             A:29 X:FF Y:D2 P:24 SP:F9 PPU:128,188
FA90  60        RTS                             A:C3 X:FF Y:D2 P:A4 SP:F9 PPU:134,188
F036  1F 48 05  SLO                             A:C3 X:FF Y:D2 P:A4 SP:FB PPU:152,188
F039  EA        NOP                             A:D3 X:FF Y:D2 P:A4 SP:FB PPU:173,188
F03A  EA        NOP                             A:D3 X:FF Y:D2 P:A4 SP:FB PPU:179,188
F03B  EA        NOP                             A:D3 X:FF Y:D2 P:A4 SP:FB PPU:185,188
F03C  EA        NOP                             A:D3 X:FF Y:D2 P:A4 SP:FB PPU:191,188
F03D  20 91 FA  JSR                             A:D3 X:FF Y:D2 P:A4 SP:FB PPU:197,188
FA91  70 53     BVS                             A:D3 X:FF Y:D2 P:A4 SP:F9 PPU:215,188
FA93  F0 51     BEQ                             A:D3 X:FF Y:D2 P:A4 SP:F9 PPU:221,188
FA95  10 4F     BPL                             A:D3 X:FF Y:D2 P:A4 SP:F9 PPU:227,188
FA97  B0 4D     BCS                             A:D3 X:FF Y:D2 P:A4 SP:F9 PPU:233,188
FA99  C9 D3     CMP                             A:D3 X:FF Y:D2 P:A4 SP:F9 PPU:239,188
FA9B  D0 49     BNE                             A:D3 X:FF Y:D2 P:27 SP:F9 PPU:245,188
FA9D  60        RTS                             A:D3 X:FF Y:D2 P:27 SP:F9 PPU:251,188
F040  AD 47 06  LDA                             A:D3 X:FF Y:D2 P:27 SP:FB PPU:269,188
F043  C9 52     CMP                             A:52 X:FF Y:D2 P:25 SP:FB PPU:281,188
F045  F0 02     BEQ                             A:52 X:FF Y:D2 P:27 SP:FB PPU:287,188
F049  C8        INY                             A:52 X:FF Y:D2 P:27 SP:FB PPU:296,188
F04A  A9 37     LDA                             A:52 X:FF Y:D3 P:A5 SP:FB PPU:302,188
F04C  8D 47 06  STA                             A:37 X:FF Y:D3 P:25 SP:FB PPU:308,188
F04F  20 9E FA  JSR                             A:37 X:FF Y:D3 P:25 SP:FB PPU:320,188
FA9E  24 01     BIT                             A:37 X:FF Y:D3 P:25 SP:F9 PPU:338,188
FAA0  38        SEC                             A:37 X:FF Y:D3 P:E5 SP:F9 PPU:  6,189
FAA1  A9 10     LDA                             A:37 X:FF Y:D3 P:E5 SP:F9 PPU: 12,189
FAA3  60        RTS                             A:10 X:FF Y:D3 P:65 SP:F9 PPU: 18,189
F052  1F 48 05  SLO                             A:10 X:FF Y:D3 P:65 SP:FB PPU: 36,189
F055  EA        NOP                             A:7E X:FF Y:D3 P:64 SP:FB PPU: 57,189
F056  EA        NOP                             A:7E X:FF Y:D3 P:64 SP:FB PPU: 63,189
F057  EA        NOP                             A:7E X:FF Y:D3 P:64 SP:FB PPU: 69,189
F058  EA        NOP                             A:7E X:FF Y:D3 P:64 SP:FB PPU: 75,189
F059  20 A4 FA  JSR                             A:7E X:FF Y:D3 P:64 SP:FB PPU: 81,189
FAA4  50 40     BVC                             A:7E X:FF Y:D3 P:64 SP:F9 PPU: 99,189
FAA6  F0 3E     BEQ                             A:7E X:FF Y:D3 P:64 SP:F9 PPU:105,189
FAA8  30 3C     BMI                             A:7E X:FF Y:D3 P:64 SP:F9 PPU:111,189
FAAA  B0 3A     BCS                             A:7E X:FF Y:D3 P:64 SP:F9 PPU:117,189
FAAC  C9 7E     CMP                             A:7E X:FF Y:D3 P:64 SP:F9 PPU:123,189
FAAE  D0 36     BNE                             A:7E X:FF Y:D3 P:67 SP:F9 PPU:129,189
FAB0  60        RTS                             A:7E X:FF Y:D3 P:67 SP:F9 PPU:135,189
F05C  AD 47 06  LDA                             A:7E X:FF Y:D3 P:67 SP:FB PPU:153,189
F05F  C9 6E     CMP                             A:6E X:FF Y:D3 P:65 SP:FB PPU:165,189
F061  F0 02     BEQ                             A:6E X:FF Y:D3 P:67 SP:FB PPU:171,189
F065  60        RTS                             A:6E X:FF Y:D3 P:67 SP:FB PPU:180,189
C644  20 66 F0  JSR                             A:6E X:FF Y:D3 P:67 SP:FD PPU:198,189
F066  A9 FF     LDA                             A:6E X:FF Y:D3 P:67 SP:FB PPU:216,189
F068  85 01     STA                             A:FF X:FF Y:D3 P:E5 SP:FB PPU:222,189
F06A  A0 D4     LDY                             A:FF X:FF Y:D3 P:E5 SP:FB PPU:231,189
F06C  A2 02     LDX                             A:FF X:FF Y:D4 P:E5 SP:FB PPU:237,189
F06E  A9 47     LDA                             A:FF X:02 Y:D4 P:65 SP:FB PPU:243,189
F070  85 47     STA                             A:47 X:02 Y:D4 P:65 SP:FB PPU:249,189
F072  A9 06     LDA                             A:47 X:02 Y:D4 P:65 SP:FB PPU:258,189
F074  85 48     STA                             A:06 X:02 Y:D4 P:65 SP:FB PPU:264,189
F076  A9 A5     LDA                             A:06 X:02 Y:D4 P:65 SP:FB PPU:273,189
F078  8D 47 06  STA                             A:A5 X:02 Y:D4 P:E5 SP:FB PPU:279,189
F07B  20 53 FB  JSR                             A:A5 X:02 Y:D4 P:E5 SP:FB PPU:291,189
FB53  24 01     BIT                             A:A5 X:02 Y:D4 P:E5 SP:F9 PPU:309,189
FB55  18        CLC                             A:A5 X:02 Y:D4 P:E5 SP:F9 PPU:318,189
FB56  A9 B3     LDA                             A:A5 X:02 Y:D4 P:E4 SP:F9 PPU:324,189
FB58  60        RTS                             A:B3 X:02 Y:D4 P:E4 SP:F9 PPU:330,189
F07E  23 45     RLA                             A:B3 X:02 Y:D4 P:E4 SP:FB PPU:  7,190
F080  EA        NOP                             A:02 X:02 Y:D4 P:65 SP:FB PPU: 31,190
F081  EA        NOP                             A:02 X:02 Y:D4 P:65 SP:FB PPU: 37,190
F082  EA        NOP                             A:02 X:02 Y:D4 P:65 SP:FB PPU: 43,190
F083  EA        NOP                             A:02 X:02 Y:D4 P:65 SP:FB PPU: 49,190
F084  20 59 FB  JSR                             A:02 X:02 Y:D4 P:65 SP:FB PPU: 55,190
FB59  50 1A     BVC                             A:02 X:02 Y:D4 P:65 SP:F9 PPU: 73,190
FB5B  90 18     BCC                             A:02 X:02 Y:D4 P:65 SP:F9 PPU: 79,190
FB5D  30 16     BMI                             A:02 X:02 Y:D4 P:65 SP:F9 PPU: 85,190
FB5F  C9 02     CMP                             A:02 X:02 Y:D4 P:65 SP:F9 PPU: 91,190
FB61  D0 12     BNE                             A:02 X:02 Y:D4 P:67 SP:F9 PPU: 97,190
FB63  60        RTS                             A:02 X:02 Y:D4 P:67 SP:F9 PPU:103,190
F087  AD 47 06  LDA                             A:02 X:02 Y:D4 P:67 SP:FB PPU:121,190
F08A  C9 4A     CMP                             A:4A X:02 Y:D4 P:65 SP:FB PPU:133,190
F08C  F0 02     BEQ                             A:4A X:02 Y:D4 P:67 SP:FB PPU:139,190
F090  C8        INY                             A:4A X:02 Y:D4 P:67 SP:FB PPU:148,190
F091  A9 29     LDA                             A:4A X:02 Y:D5 P:E5 SP:FB PPU:154,190
F093  8D 47 06  STA                             A:29 X:02 Y:D5 P:65 SP:FB PPU:160,190
F096  20 64 FB  JSR                             A:29 X:02 Y:D5 P:65 SP:FB PPU:172,190
FB64  B8        CLV                             A:29 X:02 Y:D5 P:65 SP:F9 PPU:190,190
FB65  18        CLC                             A:29 X:02 Y:D5 P:25 SP:F9 PPU:196,190
FB66  A9 42     LDA                             A:29 X:02 Y:D5 P:24 SP:F9 PPU:202,190
FB68  60        RTS                             A:42 X:02 Y:D5 P:24 SP:F9 PPU:208,190
F099  23 45     RLA                             A:42 X:02 Y:D5 P:24 SP:FB PPU:226,190
F09B  EA        NOP                             A:42 X:02 Y:D5 P:24 SP:FB PPU:250,190
F09C  EA        NOP                             A:42 X:02 Y:D5 P:24 SP:FB PPU:256,190
F09D  EA        NOP                             A:42 X:02 Y:D5 P:24 SP:FB PPU:262,190
F09E  EA        NOP                             A:42 X:02 Y:D5 P:24 SP:FB PPU:268,190
F09F  20 69 FB  JSR                             A:42 X:02 Y:D5 P:24 SP:FB PPU:274,190
FB69  70 0A     BVS                             A:42 X:02 Y:D5 P:24 SP:F9 PPU:292,190
FB6B  F0 08     BEQ                             A:42 X:02 Y:D5 P:24 SP:F9 PPU:298,190
FB6D  30 06     BMI                             A:42 X:02 Y:D5 P:24 SP:F9 PPU:304,190
FB6F  B0 04     BCS                             A:42 X:02 Y:D5 P:24 SP:F9 PPU:310,190
FB71  C9 42     CMP                             A:42 X:02 Y:D5 P:24 SP:F9 PPU:316,190
FB73  F0 02     BEQ                             A:42 X:02 Y:D5 P:27 SP:F9 PPU:322,190
FB77  60        RTS                             A:42 X:02 Y:D5 P:27 SP:F9 PPU:331,190
F0A2  AD 47 06  LDA                             A:42 X:02 Y:D5 P:27 SP:FB PPU:  8,191
F0A5  C9 52     CMP                             A:52 X:02 Y:D5 P:25 SP:FB PPU: 20,191
F0A7  F0 02     BEQ                             A:52 X:02 Y:D5 P:27 SP:FB PPU: 26,191
F0AB  C8        INY                             A:52 X:02 Y:D5 P:27 SP:FB PPU: 35,191
F0AC  A9 37     LDA                             A:52 X:02 Y:D6 P:A5 SP:FB PPU: 41,191
F0AE  8D 47 06  STA                             A:37 X:02 Y:D6 P:25 SP:FB PPU: 47,191
F0B1  20 68 FA  JSR                             A:37 X:02 Y:D6 P:25 SP:FB PPU: 59,191
FA68  24 01     BIT                             A:37 X:02 Y:D6 P:25 SP:F9 PPU: 77,191
FA6A  38        SEC                             A:37 X:02 Y:D6 P:E5 SP:F9 PPU: 86,191
FA6B  A9 75     LDA                             A:37 X:02 Y:D6 P:E5 SP:F9 PPU: 92,191
FA6D  60        RTS                             A:75 X:02 Y:D6 P:65 SP:F9 PPU: 98,191
F0B4  23 45     RLA                             A:75 X:02 Y:D6 P:65 SP:FB PPU:116,191
F0B6  EA        NOP                             A:65 X:02 Y:D6 P:64 SP:FB PPU:140,191
F0B7  EA        NOP                             A:65 X:02 Y:D6 P:64 SP:FB PPU:146,191
F0B8  EA        NOP                             A:65 X:02 Y:D6 P:64 SP:FB PPU:152,191
F0B9  EA        NOP                             A:65 X:02 Y:D6 P:64 SP:FB PPU:158,191
F0BA  20 6E FA  JSR                             A:65 X:02 Y:D6 P:64 SP:FB PPU:164,191
FA6E  50 76     BVC                             A:65 X:02 Y:D6 P:64 SP:F9 PPU:182,191
FA70  F0 74     BEQ                             A:65 X:02 Y:D6 P:64 SP:F9 PPU:188,191
FA72  30 72     BMI                             A:65 X:02 Y:D6 P:64 SP:F9 PPU:194,191
FA74  B0 70     BCS                             A:65 X:02 Y:D6 P:64 SP:F9 PPU:200,191
FA76  C9 65     CMP                             A:65 X:02 Y:D6 P:64 SP:F9 PPU:206,191
FA78  D0 6C     BNE                             A:65 X:02 Y:D6 P:67 SP:F9 PPU:212,191
FA7A  60        RTS                             A:65 X:02 Y:D6 P:67 SP:F9 PPU:218,191
F0BD  AD 47 06  LDA                             A:65 X:02 Y:D6 P:67 SP:FB PPU:236,191
F0C0  C9 6F     CMP                             A:6F X:02 Y:D6 P:65 SP:FB PPU:248,191
F0C2  F0 02     BEQ                             A:6F X:02 Y:D6 P:67 SP:FB PPU:254,191
F0C6  C8        INY                             A:6F X:02 Y:D6 P:67 SP:FB PPU:263,191
F0C7  A9 A5     LDA                             A:6F X:02 Y:D7 P:E5 SP:FB PPU:269,191
F0C9  85 47     STA                             A:A5 X:02 Y:D7 P:E5 SP:FB PPU:275,191
F0CB  20 53 FB  JSR                             A:A5 X:02 Y:D7 P:E5 SP:FB PPU:284,191
FB53  24 01     BIT                             A:A5 X:02 Y:D7 P:E5 SP:F9 PPU:302,191
FB55  18        CLC                             A:A5 X:02 Y:D7 P:E5 SP:F9 PPU:311,191
FB56  A9 B3     LDA                             A:A5 X:02 Y:D7 P:E4 SP:F9 PPU:317,191
FB58  60        RTS                             A:B3 X:02 Y:D7 P:E4 SP:F9 PPU:323,191
F0CE  27 47     RLA                             A:B3 X:02 Y:D7 P:E4 SP:FB PPU:  0,192
F0D0  EA        NOP                             A:02 X:02 Y:D7 P:65 SP:FB PPU: 15,192
F0D1  EA        NOP                             A:02 X:02 Y:D7 P:65 SP:FB PPU: 21,192
F0D2  EA        NOP                             A:02 X:02 Y:D7 P:65 SP:FB PPU: 27,192
F0D3  EA        NOP                             A:02 X:02 Y:D7 P:65 SP:FB PPU: 33,192
F0D4  20 59 FB  JSR                             A:02 X:02 Y:D7 P:65 SP:FB PPU: 39,192
FB59  50 1A     BVC                             A:02 X:02 Y:D7 P:65 SP:F9 PPU: 57,192
FB5B  90 18     BCC                             A:02 X:02 Y:D7 P:65 SP:F9 PPU: 63,192
FB5D  30 16     BMI                             A:02 X:02 Y:D7 P:65 SP:F9 PPU: 69,192
FB5F  C9 02     CMP                             A:02 X:02 Y:D7 P:65 SP:F9 PPU: 75,192
FB61  D0 12     BNE                             A:02 X:02 Y:D7 P:67 SP:F9 PPU: 81,192
FB63  60        RTS                             A:02 X:02 Y:D7 P:67 SP:F9 PPU: 87,192
F0D7  A5 47     LDA                             A:02 X:02 Y:D7 P:67 SP:FB PPU:105,192
F0D9  C9 4A     CMP                             A:4A X:02 Y:D7 P:65 SP:FB PPU:114,192
F0DB  F0 02     BEQ                             A:4A X:02 Y:D7 P:67 SP:FB PPU:120,192
F0DF  C8        INY                             A:4A X:02 Y:D7 P:67 SP:FB PPU:129,192
F0E0  A9 29     LDA                             A:4A X:02 Y:D8 P:E5 SP:FB PPU:135,192
F0E2  85 47     STA                             A:29 X:02 Y:D8 P:65 SP:FB PPU:141,192
F0E4  20 64 FB  JSR                             A:29 X:02 Y:D8 P:65 SP:FB PPU:150,192
FB64  B8        CLV                             A:29 X:02 Y:D8 P:65 SP:F9 PPU:168,192
FB65  18        CLC                             A:29 X:02 Y:D8 P:25 SP:F9 PPU:174,192
FB66  A9 42     LDA                             A:29 X:02 Y:D8 P:24 SP:F9 PPU:180,192
FB68  60        RTS                             A:42 X:02 Y:D8 P:24 SP:F9 PPU:186,192
F0E7  27 47     RLA                             A:42 X:02 Y:D8 P:24 SP:FB PPU:204,192
F0E9  EA        NOP                             A:42 X:02 Y:D8 P:24 SP:FB PPU:219,192
F0EA  EA        NOP                             A:42 X:02 Y:D8 P:24 SP:FB PPU:225,192
F0EB  EA        NOP                             A:42 X:02 Y:D8 P:24 SP:FB PPU:231,192
F0EC  EA        NOP                             A:42 X:02 Y:D8 P:24 SP:FB PPU:237,192
F0ED  20 69 FB  JSR                             A:42 X:02 Y:D8 P:24 SP:FB PPU:243,192
FB69  70 0A     BVS                             A:42 X:02 Y:D8 P:24 SP:F9 PPU:261,192
FB6B  F0 08     BEQ                             A:42 X:02 Y:D8 P:24 SP:F9 PPU:267,192
FB6D  30 06     BMI                             A:42 X:02 Y:D8 P:24 SP:F9 PPU:273,192
FB6F  B0 04     BCS                             A:42 X:02 Y:D8 P:24 SP:F9 PPU:279,192
FB71  C9 42     CMP                             A:42 X:02 Y:D8 P:24 SP:F9 PPU:285,192
FB73  F0 02     BEQ                             A:42 X:02 Y:D8 P:27 SP:F9 PPU:291,192
FB77  60        RTS                             A:42 X:02 Y:D8 P:27 SP:F9 PPU:300,192
F0F0  A5 47     LDA                             A:42 X:02 Y:D8 P:27 SP:FB PPU:318,192
F0F2  C9 52     CMP                             A:52 X:02 Y:D8 P:25 SP:FB PPU:327,192
F0F4  F0 02     BEQ                             A:52 X:02 Y:D8 P:27 SP:FB PPU:333,192
F0F8  C8        INY                             A:52 X:02 Y:D8 P:27 SP:FB PPU:  1,193
F0F9  A9 37     LDA                             A:52 X:02 Y:D9 P:A5 SP:FB PPU:  7,193
F0FB  85 47     STA                             A:37 X:02 Y:D9 P:25 SP:FB PPU: 13,193
F0FD  20 68 FA  JSR                             A:37 X:02 Y:D9 P:25 SP:FB PPU: 22,193
FA68  24 01     BIT                             A:37 X:02 Y:D9 P:25 SP:F9 PPU: 40,193
FA6A  38        SEC                             A:37 X:02 Y:D9 P:E5 SP:F9 PPU: 49,193
FA6B  A9 75     LDA                             A:37 X:02 Y:D9 P:E5 SP:F9 PPU: 55,193
FA6D  60        RTS                             A:75 X:02 Y:D9 P:65 SP:F9 PPU: 61,193
F100  27 47     RLA                             A:75 X:02 Y:D9 P:65 SP:FB PPU: 79,193
F102  EA        NOP                             A:65 X:02 Y:D9 P:64 SP:FB PPU: 94,193
F103  EA        NOP                             A:65 X:02 Y:D9 P:64 SP:FB PPU:100,193
F104  EA        NOP                             A:65 X:02 Y:D9 P:64 SP:FB PPU:106,193
F105  EA        NOP                             A:65 X:02 Y:D9 P:64 SP:FB PPU:112,193
F106  20 6E FA  JSR                             A:65 X:02 Y:D9 P:64 SP:FB PPU:118,193
FA6E  50 76     BVC                             A:65 X:02 Y:D9 P:64 SP:F9 PPU:136,193
FA70  F0 74     BEQ                             A:65 X:02 Y:D9 P:64 SP:F9 PPU:142,193
FA72  30 72     BMI                             A:65 X:02 Y:D9 P:64 SP:F9 PPU:148,193
FA74  B0 70     BCS                             A:65 X:02 Y:D9 P:64 SP:F9 PPU:154,193
FA76  C9 65     CMP                             A:65 X:02 Y:D9 P:64 SP:F9 PPU:160,193
FA78  D0 6C     BNE                             A:65 X:02 Y:D9 P:67 SP:F9 PPU:166,193
FA7A  60        RTS                             A:65 X:02 Y:D9 P:67 SP:F9 PPU:172,193
F109  A5 47     LDA                             A:65 X:02 Y:D9 P:67 SP:FB PPU:190,193
F10B  C9 6F     CMP                             A:6F X:02 Y:D9 P:65 SP:FB PPU:199,193
F10D  F0 02     BEQ                             A:6F X:02 Y:D9 P:67 SP:FB PPU:205,193
F111  C8        INY                             A:6F X:02 Y:D9 P:67 SP:FB PPU:214,193
F112  A9 A5     LDA                             A:6F X:02 Y:DA P:E5 SP:FB PPU:220,193
F114  8D 47 06  STA                             A:A5 X:02 Y:DA P:E5 SP:FB PPU:226,193
F117  20 53 FB  JSR                             A:A5 X:02 Y:DA P:E5 SP:FB PPU:238,193
FB53  24 01     BIT                             A:A5 X:02 Y:DA P:E5 SP:F9 PPU:256,193
FB55  18        CLC                             A:A5 X:02 Y:DA P:E5 SP:F9 PPU:265,193
FB56  A9 B3     LDA                             A:A5 X:02 Y:DA P:E4 SP:F9 PPU:271,193
FB58  60        RTS                             A:B3 X:02 Y:DA P:E4 SP:F9 PPU:277,193
F11A  2F 47 06  RLA                             A:B3 X:02 Y:DA P:E4 SP:FB PPU:295,193
F11D  EA        NOP                             A:02 X:02 Y:DA P:65 SP:FB PPU:313,193
F11E  EA        NOP                             A:02 X:02 Y:DA P:65 SP:FB PPU:319,193
F11F  EA        NOP                             A:02 X:02 Y:DA P:65 SP:FB PPU:325,193
F120  EA        NOP                             A:02 X:02 Y:DA P:65 SP:FB PPU:331,193
F121  20 59 FB  JSR                             A:02 X:02 Y:DA P:65 SP:FB PPU:337,193
FB59  50 1A     BVC                             A:02 X:02 Y:DA P:65 SP:F9 PPU: 14,194
FB5B  90 18     BCC                             A:02 X:02 Y:DA P:65 SP:F9 PPU: 20,194
FB5D  30 16     BMI                             A:02 X:02 Y:DA P:65 SP:F9 PPU: 26,194
FB5F  C9 02     CMP                             A:02 X:02 Y:DA P:65 SP:F9 PPU: 32,194
FB61  D0 12     BNE                             A:02 X:02 Y:DA P:67 SP:F9 PPU: 38,194
FB63  60        RTS                             A:02 X:02 Y:DA P:67 SP:F9 PPU: 44,194
F124  AD 47 06  LDA                             A:02 X:02 Y:DA P:67 SP:FB PPU: 62,194
F127  C9 4A     CMP                             A:4A X:02 Y:DA P:65 SP:FB PPU: 74,194
F129  F0 02     BEQ                             A:4A X:02 Y:DA P:67 SP:FB PPU: 80,194
F12D  C8        INY                             A:4A X:02 Y:DA P:67 SP:FB PPU: 89,194
F12E  A9 29     LDA                             A:4A X:02 Y:DB P:E5 SP:FB PPU: 95,194
F130  8D 47 06  STA                             A:29 X:02 Y:DB P:65 SP:FB PPU:101,194
F133  20 64 FB  JSR                             A:29 X:02 Y:DB P:65 SP:FB PPU:113,194
FB64  B8        CLV                             A:29 X:02 Y:DB P:65 SP:F9 PPU:131,194
FB65  18        CLC                             A:29 X:02 Y:DB P:25 SP:F9 PPU:137,194
FB66  A9 42     LDA                             A:29 X:02 Y:DB P:24 SP:F9 PPU:143,194
FB68  60        RTS                             A:42 X:02 Y:DB P:24 SP:F9 PPU:149,194
F136  2F 47 06  RLA                             A:42 X:02 Y:DB P:24 SP:FB PPU:167,194
F139  EA        NOP                             A:42 X:02 Y:DB P:24 SP:FB PPU:185,194
F13A  EA        NOP                             A:42 X:02 Y:DB P:24 SP:FB PPU:191,194
F13B  EA        NOP                             A:42 X:02 Y:DB P:24 SP:FB PPU:197,194
F13C  EA        NOP                             A:42 X:02 Y:DB P:24 SP:FB PPU:203,194
F13D  20 69 FB  JSR                             A:42 X:02 Y:DB P:24 SP:FB PPU:209,194
FB69  70 0A     BVS                             A:42 X:02 Y:DB P:24 SP:F9 PPU:227,194
FB6B  F0 08     BEQ                             A:42 X:02 Y:DB P:24 SP:F9 PPU:233,194
FB6D  30 06     BMI                             A:42 X:02 Y:DB P:24 SP:F9 PPU:239,194
FB6F  B0 04     BCS                             A:42 X:02 Y:DB P:24 SP:F9 PPU:245,194
FB71  C9 42     CMP                             A:42 X:02 Y:DB P:24 SP:F9 PPU:251,194
FB73  F0 02     BEQ                             A:42 X:02 Y:DB P:27 SP:F9 PPU:257,194
FB77  60        RTS                             A:42 X:02 Y:DB P:27 SP:F9 PPU:266,194
F140  AD 47 06  LDA                             A:42 X:02 Y:DB P:27 SP:FB PPU:284,194
F143  C9 52     CMP                             A:52 X:02 Y:DB P:25 SP:FB PPU:296,194
F145  F0 02     BEQ                             A:52 X:02 Y:DB P:27 SP:FB PPU:302,194
F149  C8        INY                             A:52 X:02 Y:DB P:27 SP:FB PPU:311,194
F14A  A9 37     LDA                             A:52 X:02 Y:DC P:A5 SP:FB PPU:317,194
F14C  8D 47 06  STA                             A:37 X:02 Y:DC P:25 SP:FB PPU:323,194
F14F  20 68 FA  JSR                             A:37 X:02 Y:DC P:25 SP:FB PPU:335,194
FA68  24 01     BIT                             A:37 X:02 Y:DC P:25 SP:F9 PPU: 12,195
FA6A  38        SEC                             A:37 X:02 Y:DC P:E5 SP:F9 PPU: 21,195
FA6B  A9 75     LDA                             A:37 X:02 Y:DC P:E5 SP:F9 PPU: 27,195
FA6D  60        RTS                             A:75 X:02 Y:DC P:65 SP:F9 PPU: 33,195
F152  2F 47 06  RLA                             A:75 X:02 Y:DC P:65 SP:FB PPU: 51,195
F155  EA        NOP                             A:65 X:02 Y:DC P:64 SP:FB PPU: 69,195
F156  EA        NOP                             A:65 X:02 Y:DC P:64 SP:FB PPU: 75,195
F157  EA        NOP                             A:65 X:02 Y:DC P:64 SP:FB PPU: 81,195
F158  EA        NOP                             A:65 X:02 Y:DC P:64 SP:FB PPU: 87,195
F159  20 6E FA  JSR                             A:65 X:02 Y:DC P:64 SP:FB PPU: 93,195
FA6E  50 76     BVC                             A:65 X:02 Y:DC P:64 SP:F9 PPU:111,195
FA70  F0 74     BEQ                             A:65 X:02 Y:DC P:64 SP:F9 PPU:117,195
FA72  30 72     BMI                             A:65 X:02 Y:DC P:64 SP:F9 PPU:123,195
FA74  B0 70     BCS                             A:65 X:02 Y:DC P:64 SP:F9 PPU:129,195
FA76  C9 65     CMP                             A:65 X:02 Y:DC P:64 SP:F9 PPU:135,195
FA78  D0 6C     BNE                             A:65 X:02 Y:DC P:67 SP:F9 PPU:141,195
FA7A  60        RTS                             A:65 X:02 Y:DC P:67 SP:F9 PPU:147,195
F15C  AD 47 06  LDA                             A:65 X:02 Y:DC P:67 SP:FB PPU:165,195
F15F  C9 6F     CMP                             A:6F X:02 Y:DC P:65 SP:FB PPU:177,195
F161  F0 02     BEQ                             A:6F X:02 Y:DC P:67 SP:FB PPU:183,195
F165  A9 A5     LDA                             A:6F X:02 Y:DC P:67 SP:FB PPU:192,195
F167  8D 47 06  STA                             A:A5 X:02 Y:DC P:E5 SP:FB PPU:198,195
F16A  A9 48     LDA                             A:A5 X:02 Y:DC P:E5 SP:FB PPU:210,195
F16C  85 45     STA                             A:48 X:02 Y:DC P:65 SP:FB PPU:216,195
F16E  A9 05     LDA                             A:48 X:02 Y:DC P:65 SP:FB PPU:225,195
F170  85 46     STA                             A:05 X:02 Y:DC P:65 SP:FB PPU:231,195
F172  A0 FF     LDY                             A:05 X:02 Y:DC P:65 SP:FB PPU:240,195
F174  20 53 FB  JSR                             A:05 X:02 Y:FF P:E5 SP:FB PPU:246,195
FB53  24 01     BIT                             A:05 X:02 Y:FF P:E5 SP:F9 PPU:264,195
FB55  18        CLC                             A:05 X:02 Y:FF P:E5 SP:F9 PPU:273,195
FB56  A9 B3     LDA                             A:05 X:02 Y:FF P:E4 SP:F9 PPU:279,195
FB58  60        RTS                             A:B3 X:02 Y:FF P:E4 SP:F9 PPU:285,195
F177  33 45     RLA                             A:B3 X:02 Y:FF P:E4 SP:FB PPU:303,195
F179  EA        NOP                             A:02 X:02 Y:FF P:65 SP:FB PPU:327,195
F17A  EA        NOP                             A:02 X:02 Y:FF P:65 SP:FB PPU:333,195
F17B  08        PHP                             A:02 X:02 Y:FF P:65 SP:FB PPU:339,195
F17C  48        PHA                             A:02 X:02 Y:FF P:65 SP:FA PPU:  7,196
F17D  A0 DD     LDY                             A:02 X:02 Y:FF P:65 SP:F9 PPU: 16,196
F17F  68        PLA                             A:02 X:02 Y:DD P:E5 SP:F9 PPU: 22,196
F180  28        PLP                             A:02 X:02 Y:DD P:65 SP:FA PPU: 34,196
F181  20 59 FB  JSR                             A:02 X:02 Y:DD P:65 SP:FB PPU: 46,196
FB59  50 1A     BVC                             A:02 X:02 Y:DD P:65 SP:F9 PPU: 64,196
FB5B  90 18     BCC                             A:02 X:02 Y:DD P:65 SP:F9 PPU: 70,196
FB5D  30 16     BMI                             A:02 X:02 Y:DD P:65 SP:F9 PPU: 76,196
FB5F  C9 02     CMP                             A:02 X:02 Y:DD P:65 SP:F9 PPU: 82,196
FB61  D0 12     BNE                             A:02 X:02 Y:DD P:67 SP:F9 PPU: 88,196
FB63  60        RTS                             A:02 X:02 Y:DD P:67 SP:F9 PPU: 94,196
F184  AD 47 06  LDA                             A:02 X:02 Y:DD P:67 SP:FB PPU:112,196
F187  C9 4A     CMP                             A:4A X:02 Y:DD P:65 SP:FB PPU:124,196
F189  F0 02     BEQ                             A:4A X:02 Y:DD P:67 SP:FB PPU:130,196
F18D  A0 FF     LDY                             A:4A X:02 Y:DD P:67 SP:FB PPU:139,196
F18F  A9 29     LDA                             A:4A X:02 Y:FF P:E5 SP:FB PPU:145,196
F191  8D 47 06  STA                             A:29 X:02 Y:FF P:65 SP:FB PPU:151,196
F194  20 64 FB  JSR                             A:29 X:02 Y:FF P:65 SP:FB PPU:163,196
FB64  B8        CLV                             A:29 X:02 Y:FF P:65 SP:F9 PPU:181,196
FB65  18        CLC                             A:29 X:02 Y:FF P:25 SP:F9 PPU:187,196
FB66  A9 42     LDA                             A:29 X:02 Y:FF P:24 SP:F9 PPU:193,196
FB68  60        RTS                             A:42 X:02 Y:FF P:24 SP:F9 PPU:199,196
F197  33 45     RLA                             A:42 X:02 Y:FF P:24 SP:FB PPU:217,196
F199  EA        NOP                             A:42 X:02 Y:FF P:24 SP:FB PPU:241,196
F19A  EA        NOP                             A:42 X:02 Y:FF P:24 SP:FB PPU:247,196
F19B  08        PHP                             A:42 X:02 Y:FF P:24 SP:FB PPU:253,196
F19C  48        PHA                             A:42 X:02 Y:FF P:24 SP:FA PPU:262,196
F19D  A0 DE     LDY                             A:42 X:02 Y:FF P:24 SP:F9 PPU:271,196
F19F  68        PLA                             A:42 X:02 Y:DE P:A4 SP:F9 PPU:277,196
F1A0  28        PLP                             A:42 X:02 Y:DE P:24 SP:FA PPU:289,196
F1A1  20 69 FB  JSR                             A:42 X:02 Y:DE P:24 SP:FB PPU:301,196
FB69  70 0A     BVS                             A:42 X:02 Y:DE P:24 SP:F9 PPU:319,196
FB6B  F0 08     BEQ                             A:42 X:02 Y:DE P:24 SP:F9 PPU:325,196
FB6D  30 06     BMI                             A:42 X:02 Y:DE P:24 SP:F9 PPU:331,196
FB6F  B0 04     BCS                             A:42 X:02 Y:DE P:24 SP:F9 PPU:337,196
FB71  C9 42     CMP                             A:42 X:02 Y:DE P:24 SP:F9 PPU:  2,197
FB73  F0 02     BEQ                             A:42 X:02 Y:DE P:27 SP:F9 PPU:  8,197
FB77  60        RTS                             A:42 X:02 Y:DE P:27 SP:F9 PPU: 17,197
F1A4  AD 47 06  LDA                             A:42 X:02 Y:DE P:27 SP:FB PPU: 35,197
F1A7  C9 52     CMP                             A:52 X:02 Y:DE P:25 SP:FB PPU: 47,197
F1A9  F0 02     BEQ                             A:52 X:02 Y:DE P:27 SP:FB PPU: 53,197
F1AD  A0 FF     LDY                             A:52 X:02 Y:DE P:27 SP:FB PPU: 62,197
F1AF  A9 37     LDA                             A:52 X:02 Y:FF P:A5 SP:FB PPU: 68,197
F1B1  8D 47 06  STA                             A:37 X:02 Y:FF P:25 SP:FB PPU: 74,197
F1B4  20 68 FA  JSR                             A:37 X:02 Y:FF P:25 SP:FB PPU: 86,197
FA68  24 01     BIT                             A:37 X:02 Y:FF P:25 SP:F9 PPU:104,197
FA6A  38        SEC                             A:37 X:02 Y:FF P:E5 SP:F9 PPU:113,197
FA6B  A9 75     LDA                             A:37 X:02 Y:FF P:E5 SP:F9 PPU:119,197
FA6D  60        RTS                             A:75 X:02 Y:FF P:65 SP:F9 PPU:125,197
F1B7  33 45     RLA                             A:75 X:02 Y:FF P:65 SP:FB PPU:143,197
F1B9  EA        NOP                             A:65 X:02 Y:FF P:64 SP:FB PPU:167,197
F1BA  EA        NOP                             A:65 X:02 Y:FF P:64 SP:FB PPU:173,197
F1BB  08        PHP                             A:65 X:02 Y:FF P:64 SP:FB PPU:179,197
F1BC  48        PHA                             A:65 X:02 Y:FF P:64 SP:FA PPU:188,197
F1BD  A0 DF     LDY                             A:65 X:02 Y:FF P:64 SP:F9 PPU:197,197
F1BF  68        PLA                             A:65 X:02 Y:DF P:E4 SP:F9 PPU:203,197
F1C0  28        PLP                             A:65 X:02 Y:DF P:64 SP:FA PPU:215,197
F1C1  20 6E FA  JSR                             A:65 X:02 Y:DF P:64 SP:FB PPU:227,197
FA6E  50 76     BVC                             A:65 X:02 Y:DF P:64 SP:F9 PPU:245,197
FA70  F0 74     BEQ                             A:65 X:02 Y:DF P:64 SP:F9 PPU:251,197
FA72  30 72     BMI                             A:65 X:02 Y:DF P:64 SP:F9 PPU:257,197
FA74  B0 70     BCS                             A:65 X:02 Y:DF P:64 SP:F9 PPU:263,197
FA76  C9 65     CMP                             A:65 X:02 Y:DF P:64 SP:F9 PPU:269,197
FA78  D0 6C     BNE                             A:65 X:02 Y:DF P:67 SP:F9 PPU:275,197
FA7A  60        RTS                             A:65 X:02 Y:DF P:67 SP:F9 PPU:281,197
F1C4  AD 47 06  LDA                             A:65 X:02 Y:DF P:67 SP:FB PPU:299,197
F1C7  C9 6F     CMP                             A:6F X:02 Y:DF P:65 SP:FB PPU:311,197
F1C9  F0 02     BEQ                             A:6F X:02 Y:DF P:67 SP:FB PPU:317,197
F1CD  A0 E0     LDY                             A:6F X:02 Y:DF P:67 SP:FB PPU:326,197
F1CF  A2 FF     LDX                             A:6F X:02 Y:E0 P:E5 SP:FB PPU:332,197
F1D1  A9 A5     LDA                             A:6F X:FF Y:E0 P:E5 SP:FB PPU:338,197
F1D3  85 47     STA                             A:A5 X:FF Y:E0 P:E5 SP:FB PPU:  3,198
F1D5  20 53 FB  JSR                             A:A5 X:FF Y:E0 P:E5 SP:FB PPU: 12,198
FB53  24 01     BIT                             A:A5 X:FF Y:E0 P:E5 SP:F9 PPU: 30,198
FB55  18        CLC                             A:A5 X:FF Y:E0 P:E5 SP:F9 PPU: 39,198
FB56  A9 B3     LDA                             A:A5 X:FF Y:E0 P:E4 SP:F9 PPU: 45,198
FB58  60        RTS                             A:B3 X:FF Y:E0 P:E4 SP:F9 PPU: 51,198
F1D8  37 48     RLA                             A:B3 X:FF Y:E0 P:E4 SP:FB PPU: 69,198
F1DA  EA        NOP                             A:02 X:FF Y:E0 P:65 SP:FB PPU: 87,198
F1DB  EA        NOP                             A:02 X:FF Y:E0 P:65 SP:FB PPU: 93,198
F1DC  EA        NOP                             A:02 X:FF Y:E0 P:65 SP:FB PPU: 99,198
F1DD  EA        NOP                             A:02 X:FF Y:E0 P:65 SP:FB PPU:105,198
F1DE  20 59 FB  JSR                             A:02 X:FF Y:E0 P:65 SP:FB PPU:111,198
FB59  50 1A     BVC                             A:02 X:FF Y:E0 P:65 SP:F9 PPU:129,198
FB5B  90 18     BCC                             A:02 X:FF Y:E0 P:65 SP:F9 PPU:135,198
FB5D  30 16     BMI                             A:02 X:FF Y:E0 P:65 SP:F9 PPU:141,198
FB5F  C9 02     CMP                             A:02 X:FF Y:E0 P:65 SP:F9 PPU:147,198
FB61  D0 12     BNE                             A:02 X:FF Y:E0 P:67 SP:F9 PPU:153,198
FB63  60        RTS                             A:02 X:FF Y:E0 P:67 SP:F9 PPU:159,198
F1E1  A5 47     LDA                             A:02 X:FF Y:E0 P:67 SP:FB PPU:177,198
F1E3  C9 4A     CMP                             A:4A X:FF Y:E0 P:65 SP:FB PPU:186,198
F1E5  F0 02     BEQ                             A:4A X:FF Y:E0 P:67 SP:FB PPU:192,198
F1E9  C8        INY                             A:4A X:FF Y:E0 P:67 SP:FB PPU:201,198
F1EA  A9 29     LDA                             A:4A X:FF Y:E1 P:E5 SP:FB PPU:207,198
F1EC  85 47     STA                             A:29 X:FF Y:E1 P:65 SP:FB PPU:213,198
F1EE  20 64 FB  JSR                             A:29 X:FF Y:E1 P:65 SP:FB PPU:222,198
FB64  B8        CLV                             A:29 X:FF Y:E1 P:65 SP:F9 PPU:240,198
FB65  18        CLC                             A:29 X:FF Y:E1 P:25 SP:F9 PPU:246,198
FB66  A9 42     LDA                             A:29 X:FF Y:E1 P:24 SP:F9 PPU:252,198
FB68  60        RTS                             A:42 X:FF Y:E1 P:24 SP:F9 PPU:258,198
F1F1  37 48     RLA                             A:42 X:FF Y:E1 P:24 SP:FB PPU:276,198
F1F3  EA        NOP                             A:42 X:FF Y:E1 P:24 SP:FB PPU:294,198
F1F4  EA        NOP                             A:42 X:FF Y:E1 P:24 SP:FB PPU:300,198
F1F5  EA        NOP                             A:42 X:FF Y:E1 P:24 SP:FB PPU:306,198
F1F6  EA        NOP                             A:42 X:FF Y:E1 P:24 SP:FB PPU:312,198
F1F7  20 69 FB  JSR                             A:42 X:FF Y:E1 P:24 SP:FB PPU:318,198
FB69  70 0A     BVS                             A:42 X:FF Y:E1 P:24 SP:F9 PPU:336,198
FB6B  F0 08     BEQ                             A:42 X:FF Y:E1 P:24 SP:F9 PPU:  1,199
FB6D  30 06     BMI                             A:42 X:FF Y:E1 P:24 SP:F9 PPU:  7,199
FB6F  B0 04     BCS                             A:42 X:FF Y:E1 P:24 SP:F9 PPU: 13,199
FB71  C9 42     CMP                             A:42 X:FF Y:E1 P:24 SP:F9 PPU: 19,199
FB73  F0 02     BEQ                             A:42 X:FF Y:E1 P:27 SP:F9 PPU: 25,199
FB77  60        RTS                             A:42 X:FF Y:E1 P:27 SP:F9 PPU: 34,199
F1FA  A5 47     LDA                             A:42 X:FF Y:E1 P:27 SP:FB PPU: 52,199
F1FC  C9 52     CMP                             A:52 X:FF Y:E1 P:25 SP:FB PPU: 61,199
F1FE  F0 02     BEQ                             A:52 X:FF Y:E1 P:27 SP:FB PPU: 67,199
F202  C8        INY                             A:52 X:FF Y:E1 P:27 SP:FB PPU: 76,199
F203  A9 37     LDA                             A:52 X:FF Y:E2 P:A5 SP:FB PPU: 82,199
F205  85 47     STA                             A:37 X:FF Y:E2 P:25 SP:FB PPU: 88,199
F207  20 68 FA  JSR                             A:37 X:FF Y:E2 P:25 SP:FB PPU: 97,199
FA68  24 01     BIT                             A:37 X:FF Y:E2 P:25 SP:F9 PPU:115,199
FA6A  38        SEC                             A:37 X:FF Y:E2 P:E5 SP:F9 PPU:124,199
FA6B  A9 75     LDA                             A:37 X:FF Y:E2 P:E5 SP:F9 PPU:130,199
FA6D  60        RTS                             A:75 X:FF Y:E2 P:65 SP:F9 PPU:136,199
F20A  37 48     RLA                             A:75 X:FF Y:E2 P:65 SP:FB PPU:154,199
F20C  EA        NOP                             A:65 X:FF Y:E2 P:64 SP:FB PPU:172,199
F20D  EA        NOP                             A:65 X:FF Y:E2 P:64 SP:FB PPU:178,199
F20E  EA        NOP                             A:65 X:FF Y:E2 P:64 SP:FB PPU:184,199
F20F  EA        NOP                             A:65 X:FF Y:E2 P:64 SP:FB PPU:190,199
F210  20 6E FA  JSR                             A:65 X:FF Y:E2 P:64 SP:FB PPU:196,199
FA6E  50 76     BVC                             A:65 X:FF Y:E2 P:64 SP:F9 PPU:214,199
FA70  F0 74     BEQ                             A:65 X:FF Y:E2 P:64 SP:F9 PPU:220,199
FA72  30 72     BMI                             A:65 X:FF Y:E2 P:64 SP:F9 PPU:226,199
FA74  B0 70     BCS                             A:65 X:FF Y:E2 P:64 SP:F9 PPU:232,199
FA76  C9 65     CMP                             A:65 X:FF Y:E2 P:64 SP:F9 PPU:238,199
FA78  D0 6C     BNE                             A:65 X:FF Y:E2 P:67 SP:F9 PPU:244,199
FA7A  60        RTS                             A:65 X:FF Y:E2 P:67 SP:F9 PPU:250,199
F213  A5 47     LDA                             A:65 X:FF Y:E2 P:67 SP:FB PPU:268,199
F215  C9 6F     CMP                             A:6F X:FF Y:E2 P:65 SP:FB PPU:277,199
F217  F0 02     BEQ                             A:6F X:FF Y:E2 P:67 SP:FB PPU:283,199
F21B  A9 A5     LDA                             A:6F X:FF Y:E2 P:67 SP:FB PPU:292,199
F21D  8D 47 06  STA                             A:A5 X:FF Y:E2 P:E5 SP:FB PPU:298,199
F220  A0 FF     LDY                             A:A5 X:FF Y:E2 P:E5 SP:FB PPU:310,199
F222  20 53 FB  JSR                             A:A5 X:FF Y:FF P:E5 SP:FB PPU:316,199
FB53  24 01     BIT                             A:A5 X:FF Y:FF P:E5 SP:F9 PPU:334,199
FB55  18        CLC                             A:A5 X:FF Y:FF P:E5 SP:F9 PPU:  2,200
FB56  A9 B3     LDA                             A:A5 X:FF Y:FF P:E4 SP:F9 PPU:  8,200
FB58  60        RTS                             A:B3 X:FF Y:FF P:E4 SP:F9 PPU: 14,200
F225  3B 48 05  RLA                             A:B3 X:FF Y:FF P:E4 SP:FB PPU: 32,200
F228  EA        NOP                             A:02 X:FF Y:FF P:65 SP:FB PPU: 53,200
F229  EA        NOP                             A:02 X:FF Y:FF P:65 SP:FB PPU: 59,200
F22A  08        PHP                             A:02 X:FF Y:FF P:65 SP:FB PPU: 65,200
F22B  48        PHA                             A:02 X:FF Y:FF P:65 SP:FA PPU: 74,200
F22C  A0 E3     LDY                             A:02 X:FF Y:FF P:65 SP:F9 PPU: 83,200
F22E  68        PLA                             A:02 X:FF Y:E3 P:E5 SP:F9 PPU: 89,200
F22F  28        PLP                             A:02 X:FF Y:E3 P:65 SP:FA PPU:101,200
F230  20 59 FB  JSR                             A:02 X:FF Y:E3 P:65 SP:FB PPU:113,200
FB59  50 1A     BVC                             A:02 X:FF Y:E3 P:65 SP:F9 PPU:131,200
FB5B  90 18     BCC                             A:02 X:FF Y:E3 P:65 SP:F9 PPU:137,200
FB5D  30 16     BMI                             A:02 X:FF Y:E3 P:65 SP:F9 PPU:143,200
FB5F  C9 02     CMP                             A:02 X:FF Y:E3 P:65 SP:F9 PPU:149,200
FB61  D0 12     BNE                             A:02 X:FF Y:E3 P:67 SP:F9 PPU:155,200
FB63  60        RTS                             A:02 X:FF Y:E3 P:67 SP:F9 PPU:161,200
F233  AD 47 06  LDA                             A:02 X:FF Y:E3 P:67 SP:FB PPU:179,200
F236  C9 4A     CMP                             A:4A X:FF Y:E3 P:65 SP:FB PPU:191,200
F238  F0 02     BEQ                             A:4A X:FF Y:E3 P:67 SP:FB PPU:197,200
F23C  A0 FF     LDY                             A:4A X:FF Y:E3 P:67 SP:FB PPU:206,200
F23E  A9 29     LDA                             A:4A X:FF Y:FF P:E5 SP:FB PPU:212,200
F240  8D 47 06  STA                             A:29 X:FF Y:FF P:65 SP:FB PPU:218,200
F243  20 64 FB  JSR                             A:29 X:FF Y:FF P:65 SP:FB PPU:230,200
FB64  B8        CLV                             A:29 X:FF Y:FF P:65 SP:F9 PPU:248,200
FB65  18        CLC                             A:29 X:FF Y:FF P:25 SP:F9 PPU:254,200
FB66  A9 42     LDA                             A:29 X:FF Y:FF P:24 SP:F9 PPU:260,200
FB68  60        RTS                             A:42 X:FF Y:FF P:24 SP:F9 PPU:266,200
F246  3B 48 05  RLA                             A:42 X:FF Y:FF P:24 SP:FB PPU:284,200
F249  EA        NOP                             A:42 X:FF Y:FF P:24 SP:FB PPU:305,200
F24A  EA        NOP                             A:42 X:FF Y:FF P:24 SP:FB PPU:311,200
F24B  08        PHP                             A:42 X:FF Y:FF P:24 SP:FB PPU:317,200
F24C  48        PHA                             A:42 X:FF Y:FF P:24 SP:FA PPU:326,200
F24D  A0 E4     LDY                             A:42 X:FF Y:FF P:24 SP:F9 PPU:335,200
F24F  68        PLA                             A:42 X:FF Y:E4 P:A4 SP:F9 PPU:  0,201
F250  28        PLP                             A:42 X:FF Y:E4 P:24 SP:FA PPU: 12,201
F251  20 69 FB  JSR                             A:42 X:FF Y:E4 P:24 SP:FB PPU: 24,201
FB69  70 0A     BVS                             A:42 X:FF Y:E4 P:24 SP:F9 PPU: 42,201
FB6B  F0 08     BEQ                             A:42 X:FF Y:E4 P:24 SP:F9 PPU: 48,201
FB6D  30 06     BMI                             A:42 X:FF Y:E4 P:24 SP:F9 PPU: 54,201
FB6F  B0 04     BCS                             A:42 X:FF Y:E4 P:24 SP:F9 PPU: 60,201
FB71  C9 42     CMP                             A:42 X:FF Y:E4 P:24 SP:F9 PPU: 66,201
FB73  F0 02     BEQ                             A:42 X:FF Y:E4 P:27 SP:F9 PPU: 72,201
FB77  60        RTS                             A:42 X:FF Y:E4 P:27 SP:F9 PPU: 81,201
F254  AD 47 06  LDA                             A:42 X:FF Y:E4 P:27 SP:FB PPU: 99,201
F257  C9 52     CMP                             A:52 X:FF Y:E4 P:25 SP:FB PPU:111,201
F259  F0 02     BEQ                             A:52 X:FF Y:E4 P:27 SP:FB PPU:117,201
F25D  A0 FF     LDY                             A:52 X:FF Y:E4 P:27 SP:FB PPU:126,201
F25F  A9 37     LDA                             A:52 X:FF Y:FF P:A5 SP:FB PPU:132,201
F261  8D 47 06  STA                             A:37 X:FF Y:FF P:25 SP:FB PPU:138,201
F264  20 68 FA  JSR                             A:37 X:FF Y:FF P:25 SP:FB PPU:150,201
FA68  24 01     BIT                             A:37 X:FF Y:FF P:25 SP:F9 PPU:168,201
FA6A  38        SEC                             A:37 X:FF Y:FF P:E5 SP:F9 PPU:177,201
FA6B  A9 75     LDA                             A:37 X:FF Y:FF P:E5 SP:F9 PPU:183,201
FA6D  60        RTS                             A:75 X:FF Y:FF P:65 SP:F9 PPU:189,201
F267  3B 48 05  RLA                             A:75 X:FF Y:FF P:65 SP:FB PPU:207,201
F26A  EA        NOP                             A:65 X:FF Y:FF P:64 SP:FB PPU:228,201
F26B  EA        NOP                             A:65 X:FF Y:FF P:64 SP:FB PPU:234,201
F26C  08        PHP                             A:65 X:FF Y:FF P:64 SP:FB PPU:240,201
F26D  48        PHA                             A:65 X:FF Y:FF P:64 SP:FA PPU:249,201
F26E  A0 E5     LDY                             A:65 X:FF Y:FF P:64 SP:F9 PPU:258,201
F270  68        PLA                             A:65 X:FF Y:E5 P:E4 SP:F9 PPU:264,201
F271  28        PLP                             A:65 X:FF Y:E5 P:64 SP:FA PPU:276,201
F272  20 6E FA  JSR                             A:65 X:FF Y:E5 P:64 SP:FB PPU:288,201
FA6E  50 76     BVC                             A:65 X:FF Y:E5 P:64 SP:F9 PPU:306,201
FA70  F0 74     BEQ                             A:65 X:FF Y:E5 P:64 SP:F9 PPU:312,201
FA72  30 72     BMI                             A:65 X:FF Y:E5 P:64 SP:F9 PPU:318,201
FA74  B0 70     BCS                             A:65 X:FF Y:E5 P:64 SP:F9 PPU:324,201
FA76  C9 65     CMP                             A:65 X:FF Y:E5 P:64 SP:F9 PPU:330,201
FA78  D0 6C     BNE                             A:65 X:FF Y:E5 P:67 SP:F9 PPU:336,201
FA7A  60        RTS                             A:65 X:FF Y:E5 P:67 SP:F9 PPU:  1,202
F275  AD 47 06  LDA                             A:65 X:FF Y:E5 P:67 SP:FB PPU: 19,202
F278  C9 6F     CMP                             A:6F X:FF Y:E5 P:65 SP:FB PPU: 31,202
F27A  F0 02     BEQ                             A:6F X:FF Y:E5 P:67 SP:FB PPU: 37,202
F27E  A0 E6     LDY                             A:6F X:FF Y:E5 P:67 SP:FB PPU: 46,202
F280  A2 FF     LDX                             A:6F X:FF Y:E6 P:E5 SP:FB PPU: 52,202
F282  A9 A5     LDA                             A:6F X:FF Y:E6 P:E5 SP:FB PPU: 58,202
F284  8D 47 06  STA                             A:A5 X:FF Y:E6 P:E5 SP:FB PPU: 64,202
F287  20 53 FB  JSR                             A:A5 X:FF Y:E6 P:E5 SP:FB PPU: 76,202
FB53  24 01     BIT                             A:A5 X:FF Y:E6 P:E5 SP:F9 PPU: 94,202
FB55  18        CLC                             A:A5 X:FF Y:E6 P:E5 SP:F9 PPU:103,202
FB56  A9 B3     LDA                             A:A5 X:FF Y:E6 P:E4 SP:F9 PPU:109,202
FB58  60        RTS                             A:B3 X:FF Y:E6 P:E4 SP:F9 PPU:115,202
F28A  3F 48 05  RLA                             A:B3 X:FF Y:E6 P:E4 SP:FB PPU:133,202
F28D  EA        NOP                             A:02 X:FF Y:E6 P:65 SP:FB PPU:154,202
F28E  EA        NOP                             A:02 X:FF Y:E6 P:65 SP:FB PPU:160,202
F28F  EA        NOP                             A:02 X:FF Y:E6 P:65 SP:FB PPU:166,202
F290  EA        NOP                             A:02 X:FF Y:E6 P:65 SP:FB PPU:172,202
F291  20 59 FB  JSR                             A:02 X:FF Y:E6 P:65 SP:FB PPU:178,202
FB59  50 1A     BVC                             A:02 X:FF Y:E6 P:65 SP:F9 PPU:196,202
FB5B  90 18     BCC                             A:02 X:FF Y:E6 P:65 SP:F9 PPU:202,202
FB5D  30 16     BMI                             A:02 X:FF Y:E6 P:65 SP:F9 PPU:208,202
FB5F  C9 02     CMP                             A:02 X:FF Y:E6 P:65 SP:F9 PPU:214,202
FB61  D0 12     BNE                             A:02 X:FF Y:E6 P:67 SP:F9 PPU:220,202
FB63  60        RTS                             A:02 X:FF Y:E6 P:67 SP:F9 PPU:226,202
F294  AD 47 06  LDA                             A:02 X:FF Y:E6 P:67 SP:FB PPU:244,202
F297  C9 4A     CMP                             A:4A X:FF Y:E6 P:65 SP:FB PPU:256,202
F299  F0 02     BEQ                             A:4A X:FF Y:E6 P:67 SP:FB PPU:262,202
F29D  C8        INY                             A:4A X:FF Y:E6 P:67 SP:FB PPU:271,202
F29E  A9 29     LDA                             A:4A X:FF Y:E7 P:E5 SP:FB PPU:277,202
F2A0  8D 47 06  STA                             A:29 X:FF Y:E7 P:65 SP:FB PPU:283,202
F2A3  20 64 FB  JSR                             A:29 X:FF Y:E7 P:65 SP:FB PPU:295,202
FB64  B8        CLV                             A:29 X:FF Y:E7 P:65 SP:F9 PPU:313,202
FB65  18        CLC                             A:29 X:FF Y:E7 P:25 SP:F9 PPU:319,202
FB66  A9 42     LDA                             A:29 X:FF Y:E7 P:24 SP:F9 PPU:325,202
FB68  60        RTS                             A:42 X:FF Y:E7 P:24 SP:F9 PPU:331,202
F2A6  3F 48 05  RLA                             A:42 X:FF Y:E7 P:24 SP:FB PPU:  8,203
F2A9  EA        NOP                             A:42 X:FF Y:E7 P:24 SP:FB PPU: 29,203
F2AA  EA        NOP                             A:42 X:FF Y:E7 P:24 SP:FB PPU: 35,203
F2AB  EA        NOP                             A:42 X:FF Y:E7 P:24 SP:FB PPU: 41,203
F2AC  EA        NOP                             A:42 X:FF Y:E7 P:24 SP:FB PPU: 47,203
F2AD  20 69 FB  JSR                             A:42 X:FF Y:E7 P:24 SP:FB PPU: 53,203
FB69  70 0A     BVS                             A:42 X:FF Y:E7 P:24 SP:F9 PPU: 71,203
FB6B  F0 08     BEQ                             A:42 X:FF Y:E7 P:24 SP:F9 PPU: 77,203
FB6D  30 06     BMI                             A:42 X:FF Y:E7 P:24 SP:F9 PPU: 83,203
FB6F  B0 04     BCS                             A:42 X:FF Y:E7 P:24 SP:F9 PPU: 89,203
FB71  C9 42     CMP                             A:42 X:FF Y:E7 P:24 SP:F9 PPU: 95,203
FB73  F0 02     BEQ                             A:42 X:FF Y:E7 P:27 SP:F9 PPU:101,203
FB77  60        RTS                             A:42 X:FF Y:E7 P:27 SP:F9 PPU:110,203
F2B0  AD 47 06  LDA                             A:42 X:FF Y:E7 P:27 SP:FB PPU:128,203
F2B3  C9 52     CMP                             A:52 X:FF Y:E7 P:25 SP:FB PPU:140,203
F2B5  F0 02     BEQ                             A:52 X:FF Y:E7 P:27 SP:FB PPU:146,203
F2B9  C8        INY                             A:52 X:FF Y:E7 P:27 SP:FB PPU:155,203
F2BA  A9 37     LDA                             A:52 X:FF Y:E8 P:A5 SP:FB PPU:161,203
F2BC  8D 47 06  STA                             A:37 X:FF Y:E8 P:25 SP:FB PPU:167,203
F2BF  20 68 FA  JSR                             A:37 X:FF Y:E8 P:25 SP:FB PPU:179,203
FA68  24 01     BIT                             A:37 X:FF Y:E8 P:25 SP:F9 PPU:197,203
FA6A  38        SEC                             A:37 X:FF Y:E8 P:E5 SP:F9 PPU:206,203
FA6B  A9 75     LDA                             A:37 X:FF Y:E8 P:E5 SP:F9 PPU:212,203
FA6D  60        RTS                             A:75 X:FF Y:E8 P:65 SP:F9 PPU:218,203
F2C2  3F 48 05  RLA                             A:75 X:FF Y:E8 P:65 SP:FB PPU:236,203
F2C5  EA        NOP                             A:65 X:FF Y:E8 P:64 SP:FB PPU:257,203
F2C6  EA        NOP                             A:65 X:FF Y:E8 P:64 SP:FB PPU:263,203
F2C7  EA        NOP                             A:65 X:FF Y:E8 P:64 SP:FB PPU:269,203
F2C8  EA        NOP                             A:65 X:FF Y:E8 P:64 SP:FB PPU:275,203
F2C9  20 6E FA  JSR                             A:65 X:FF Y:E8 P:64 SP:FB PPU:281,203
FA6E  50 76     BVC                             A:65 X:FF Y:E8 P:64 SP:F9 PPU:299,203
FA70  F0 74     BEQ                             A:65 X:FF Y:E8 P:64 SP:F9 PPU:305,203
FA72  30 72     BMI                             A:65 X:FF Y:E8 P:64 SP:F9 PPU:311,203
FA74  B0 70     BCS                             A:65 X:FF Y:E8 P:64 SP:F9 PPU:317,203
FA76  C9 65     CMP                             A:65 X:FF Y:E8 P:64 SP:F9 PPU:323,203
FA78  D0 6C     BNE                             A:65 X:FF Y:E8 P:67 SP:F9 PPU:329,203
FA7A  60        RTS                             A:65 X:FF Y:E8 P:67 SP:F9 PPU:335,203
F2CC  AD 47 06  LDA                             A:65 X:FF Y:E8 P:67 SP:FB PPU: 12,204
F2CF  C9 6F     CMP                             A:6F X:FF Y:E8 P:65 SP:FB PPU: 24,204
F2D1  F0 02     BEQ                             A:6F X:FF Y:E8 P:67 SP:FB PPU: 30,204
F2D5  60        RTS                             A:6F X:FF Y:E8 P:67 SP:FB PPU: 39,204
C647  20 D6 F2  JSR                             A:6F X:FF Y:E8 P:67 SP:FD PPU: 57,204
F2D6  A9 FF     LDA                             A:6F X:FF Y:E8 P:67 SP:FB PPU: 75,204
F2D8  85 01     STA                             A:FF X:FF Y:E8 P:E5 SP:FB PPU: 81,204
F2DA  A0 E9     LDY                             A:FF X:FF Y:E8 P:E5 SP:FB PPU: 90,204
F2DC  A2 02     LDX                             A:FF X:FF Y:E9 P:E5 SP:FB PPU: 96,204
F2DE  A9 47     LDA                             A:FF X:02 Y:E9 P:65 SP:FB PPU:102,204
F2E0  85 47     STA                             A:47 X:02 Y:E9 P:65 SP:FB PPU:108,204
F2E2  A9 06     LDA                             A:47 X:02 Y:E9 P:65 SP:FB PPU:117,204
F2E4  85 48     STA                             A:06 X:02 Y:E9 P:65 SP:FB PPU:123,204
F2E6  A9 A5     LDA                             A:06 X:02 Y:E9 P:65 SP:FB PPU:132,204
F2E8  8D 47 06  STA                             A:A5 X:02 Y:E9 P:E5 SP:FB PPU:138,204
F2EB  20 1D FB  JSR                             A:A5 X:02 Y:E9 P:E5 SP:FB PPU:150,204
FB1D  24 01     BIT                             A:A5 X:02 Y:E9 P:E5 SP:F9 PPU:168,204
FB1F  18        CLC                             A:A5 X:02 Y:E9 P:E5 SP:F9 PPU:177,204
FB20  A9 B3     LDA                             A:A5 X:02 Y:E9 P:E4 SP:F9 PPU:183,204
FB22  60        RTS                             A:B3 X:02 Y:E9 P:E4 SP:F9 PPU:189,204
F2EE  43 45     SRE                             A:B3 X:02 Y:E9 P:E4 SP:FB PPU:207,204
F2F0  EA        NOP                             A:E1 X:02 Y:E9 P:E5 SP:FB PPU:231,204
F2F1  EA        NOP                             A:E1 X:02 Y:E9 P:E5 SP:FB PPU:237,204
F2F2  EA        NOP                             A:E1 X:02 Y:E9 P:E5 SP:FB PPU:243,204
F2F3  EA        NOP                             A:E1 X:02 Y:E9 P:E5 SP:FB PPU:249,204
F2F4  20 23 FB  JSR                             A:E1 X:02 Y:E9 P:E5 SP:FB PPU:255,204
FB23  50 50     BVC                             A:E1 X:02 Y:E9 P:E5 SP:F9 PPU:273,204
FB25  90 4E     BCC                             A:E1 X:02 Y:E9 P:E5 SP:F9 PPU:279,204
FB27  10 4C     BPL                             A:E1 X:02 Y:E9 P:E5 SP:F9 PPU:285,204
FB29  C9 E1     CMP                             A:E1 X:02 Y:E9 P:E5 SP:F9 PPU:291,204
FB2B  D0 48     BNE                             A:E1 X:02 Y:E9 P:67 SP:F9 PPU:297,204
FB2D  60        RTS                             A:E1 X:02 Y:E9 P:67 SP:F9 PPU:303,204
F2F7  AD 47 06  LDA                             A:E1 X:02 Y:E9 P:67 SP:FB PPU:321,204
F2FA  C9 52     CMP                             A:52 X:02 Y:E9 P:65 SP:FB PPU:333,204
F2FC  F0 02     BEQ                             A:52 X:02 Y:E9 P:67 SP:FB PPU:339,204
F300  C8        INY                             A:52 X:02 Y:E9 P:67 SP:FB PPU: 10,205
F301  A9 29     LDA                             A:52 X:02 Y:EA P:E5 SP:FB PPU: 16,205
F303  8D 47 06  STA                             A:29 X:02 Y:EA P:65 SP:FB PPU: 22,205
F306  20 2E FB  JSR                             A:29 X:02 Y:EA P:65 SP:FB PPU: 34,205
FB2E  B8        CLV                             A:29 X:02 Y:EA P:65 SP:F9 PPU: 52,205
FB2F  18        CLC                             A:29 X:02 Y:EA P:25 SP:F9 PPU: 58,205
FB30  A9 42     LDA                             A:29 X:02 Y:EA P:24 SP:F9 PPU: 64,205
FB32  60        RTS                             A:42 X:02 Y:EA P:24 SP:F9 PPU: 70,205
F309  43 45     SRE                             A:42 X:02 Y:EA P:24 SP:FB PPU: 88,205
F30B  EA        NOP                             A:56 X:02 Y:EA P:25 SP:FB PPU:112,205
F30C  EA        NOP                             A:56 X:02 Y:EA P:25 SP:FB PPU:118,205
F30D  EA        NOP                             A:56 X:02 Y:EA P:25 SP:FB PPU:124,205
F30E  EA        NOP                             A:56 X:02 Y:EA P:25 SP:FB PPU:130,205
F30F  20 33 FB  JSR                             A:56 X:02 Y:EA P:25 SP:FB PPU:136,205
FB33  70 40     BVS                             A:56 X:02 Y:EA P:25 SP:F9 PPU:154,205
FB35  F0 3E     BEQ                             A:56 X:02 Y:EA P:25 SP:F9 PPU:160,205
FB37  30 3C     BMI                             A:56 X:02 Y:EA P:25 SP:F9 PPU:166,205
FB39  90 3A     BCC                             A:56 X:02 Y:EA P:25 SP:F9 PPU:172,205
FB3B  C9 56     CMP                             A:56 X:02 Y:EA P:25 SP:F9 PPU:178,205
FB3D  D0 36     BNE                             A:56 X:02 Y:EA P:27 SP:F9 PPU:184,205
FB3F  60        RTS                             A:56 X:02 Y:EA P:27 SP:F9 PPU:190,205
F312  AD 47 06  LDA                             A:56 X:02 Y:EA P:27 SP:FB PPU:208,205
F315  C9 14     CMP                             A:14 X:02 Y:EA P:25 SP:FB PPU:220,205
F317  F0 02     BEQ                             A:14 X:02 Y:EA P:27 SP:FB PPU:226,205
F31B  C8        INY                             A:14 X:02 Y:EA P:27 SP:FB PPU:235,205
F31C  A9 37     LDA                             A:14 X:02 Y:EB P:A5 SP:FB PPU:241,205
F31E  8D 47 06  STA                             A:37 X:02 Y:EB P:25 SP:FB PPU:247,205
F321  20 40 FB  JSR                             A:37 X:02 Y:EB P:25 SP:FB PPU:259,205
FB40  24 01     BIT                             A:37 X:02 Y:EB P:25 SP:F9 PPU:277,205
FB42  38        SEC                             A:37 X:02 Y:EB P:E5 SP:F9 PPU:286,205
FB43  A9 75     LDA                             A:37 X:02 Y:EB P:E5 SP:F9 PPU:292,205
FB45  60        RTS                             A:75 X:02 Y:EB P:65 SP:F9 PPU:298,205
F324  43 45     SRE                             A:75 X:02 Y:EB P:65 SP:FB PPU:316,205
F326  EA        NOP                             A:6E X:02 Y:EB P:65 SP:FB PPU:340,205
F327  EA        NOP                             A:6E X:02 Y:EB P:65 SP:FB PPU:  5,206
F328  EA        NOP                             A:6E X:02 Y:EB P:65 SP:FB PPU: 11,206
F329  EA        NOP                             A:6E X:02 Y:EB P:65 SP:FB PPU: 17,206
F32A  20 46 FB  JSR                             A:6E X:02 Y:EB P:65 SP:FB PPU: 23,206
FB46  50 2D     BVC                             A:6E X:02 Y:EB P:65 SP:F9 PPU: 41,206
FB48  F0 2B     BEQ                             A:6E X:02 Y:EB P:65 SP:F9 PPU: 47,206
FB4A  30 29     BMI                             A:6E X:02 Y:EB P:65 SP:F9 PPU: 53,206
FB4C  90 27     BCC                             A:6E X:02 Y:EB P:65 SP:F9 PPU: 59,206
FB4E  C9 6E     CMP                             A:6E X:02 Y:EB P:65 SP:F9 PPU: 65,206
FB50  D0 23     BNE                             A:6E X:02 Y:EB P:67 SP:F9 PPU: 71,206
FB52  60        RTS                             A:6E X:02 Y:EB P:67 SP:F9 PPU: 77,206
F32D  AD 47 06  LDA                             A:6E X:02 Y:EB P:67 SP:FB PPU: 95,206
F330  C9 1B     CMP                             A:1B X:02 Y:EB P:65 SP:FB PPU:107,206
F332  F0 02     BEQ                             A:1B X:02 Y:EB P:67 SP:FB PPU:113,206
F336  C8        INY                             A:1B X:02 Y:EB P:67 SP:FB PPU:122,206
F337  A9 A5     LDA                             A:1B X:02 Y:EC P:E5 SP:FB PPU:128,206
F339  85 47     STA                             A:A5 X:02 Y:EC P:E5 SP:FB PPU:134,206
F33B  20 1D FB  JSR                             A:A5 X:02 Y:EC P:E5 SP:FB PPU:143,206
FB1D  24 01     BIT                             A:A5 X:02 Y:EC P:E5 SP:F9 PPU:161,206
FB1F  18        CLC                             A:A5 X:02 Y:EC P:E5 SP:F9 PPU:170,206
FB20  A9 B3     LDA                             A:A5 X:02 Y:EC P:E4 SP:F9 PPU:176,206
FB22  60        RTS                             A:B3 X:02 Y:EC P:E4 SP:F9 PPU:182,206
F33E  47 47     SRE                             A:B3 X:02 Y:EC P:E4 SP:FB PPU:200,206
F340  EA        NOP                             A:E1 X:02 Y:EC P:E5 SP:FB PPU:215,206
F341  EA        NOP                             A:E1 X:02 Y:EC P:E5 SP:FB PPU:221,206
F342  EA        NOP                             A:E1 X:02 Y:EC P:E5 SP:FB PPU:227,206
F343  EA        NOP                             A:E1 X:02 Y:EC P:E5 SP:FB PPU:233,206
F344  20 23 FB  JSR                             A:E1 X:02 Y:EC P:E5 SP:FB PPU:239,206
FB23  50 50     BVC                             A:E1 X:02 Y:EC P:E5 SP:F9 PPU:257,206
FB25  90 4E     BCC                             A:E1 X:02 Y:EC P:E5 SP:F9 PPU:263,206
FB27  10 4C     BPL                             A:E1 X:02 Y:EC P:E5 SP:F9 PPU:269,206
FB29  C9 E1     CMP                             A:E1 X:02 Y:EC P:E5 SP:F9 PPU:275,206
FB2B  D0 48     BNE                             A:E1 X:02 Y:EC P:67 SP:F9 PPU:281,206
FB2D  60        RTS                             A:E1 X:02 Y:EC P:67 SP:F9 PPU:287,206
F347  A5 47     LDA                             A:E1 X:02 Y:EC P:67 SP:FB PPU:305,206
F349  C9 52     CMP                             A:52 X:02 Y:EC P:65 SP:FB PPU:314,206
F34B  F0 02     BEQ                             A:52 X:02 Y:EC P:67 SP:FB PPU:320,206
F34F  C8        INY                             A:52 X:02 Y:EC P:67 SP:FB PPU:329,206
F350  A9 29     LDA                             A:52 X:02 Y:ED P:E5 SP:FB PPU:335,206
F352  85 47     STA                             A:29 X:02 Y:ED P:65 SP:FB PPU:  0,207
F354  20 2E FB  JSR                             A:29 X:02 Y:ED P:65 SP:FB PPU:  9,207
FB2E  B8        CLV                             A:29 X:02 Y:ED P:65 SP:F9 PPU: 27,207
FB2F  18        CLC                             A:29 X:02 Y:ED P:25 SP:F9 PPU: 33,207
FB30  A9 42     LDA                             A:29 X:02 Y:ED P:24 SP:F9 PPU: 39,207
FB32  60        RTS                             A:42 X:02 Y:ED P:24 SP:F9 PPU: 45,207
F357  47 47     SRE                             A:42 X:02 Y:ED P:24 SP:FB PPU: 63,207
F359  EA        NOP                             A:56 X:02 Y:ED P:25 SP:FB PPU: 78,207
F35A  EA        NOP                             A:56 X:02 Y:ED P:25 SP:FB PPU: 84,207
F35B  EA        NOP                             A:56 X:02 Y:ED P:25 SP:FB PPU: 90,207
F35C  EA        NOP                             A:56 X:02 Y:ED P:25 SP:FB PPU: 96,207
F35D  20 33 FB  JSR                             A:56 X:02 Y:ED P:25 SP:FB PPU:102,207
FB33  70 40     BVS                             A:56 X:02 Y:ED P:25 SP:F9 PPU:120,207
FB35  F0 3E     BEQ                             A:56 X:02 Y:ED P:25 SP:F9 PPU:126,207
FB37  30 3C     BMI                             A:56 X:02 Y:ED P:25 SP:F9 PPU:132,207
FB39  90 3A     BCC                             A:56 X:02 Y:ED P:25 SP:F9 PPU:138,207
FB3B  C9 56     CMP                             A:56 X:02 Y:ED P:25 SP:F9 PPU:144,207
FB3D  D0 36     BNE                             A:56 X:02 Y:ED P:27 SP:F9 PPU:150,207
FB3F  60        RTS                             A:56 X:02 Y:ED P:27 SP:F9 PPU:156,207
F360  A5 47     LDA                             A:56 X:02 Y:ED P:27 SP:FB PPU:174,207
F362  C9 14     CMP                             A:14 X:02 Y:ED P:25 SP:FB PPU:183,207
F364  F0 02     BEQ                             A:14 X:02 Y:ED P:27 SP:FB PPU:189,207
F368  C8        INY                             A:14 X:02 Y:ED P:27 SP:FB PPU:198,207
F369  A9 37     LDA                             A:14 X:02 Y:EE P:A5 SP:FB PPU:204,207
F36B  85 47     STA                             A:37 X:02 Y:EE P:25 SP:FB PPU:210,207
F36D  20 40 FB  JSR                             A:37 X:02 Y:EE P:25 SP:FB PPU:219,207
FB40  24 01     BIT                             A:37 X:02 Y:EE P:25 SP:F9 PPU:237,207
FB42  38        SEC                             A:37 X:02 Y:EE P:E5 SP:F9 PPU:246,207
FB43  A9 75     LDA                             A:37 X:02 Y:EE P:E5 SP:F9 PPU:252,207
FB45  60        RTS                             A:75 X:02 Y:EE P:65 SP:F9 PPU:258,207
F370  47 47     SRE                             A:75 X:02 Y:EE P:65 SP:FB PPU:276,207
F372  EA        NOP                             A:6E X:02 Y:EE P:65 SP:FB PPU:291,207
F373  EA        NOP                             A:6E X:02 Y:EE P:65 SP:FB PPU:297,207
F374  EA        NOP                             A:6E X:02 Y:EE P:65 SP:FB PPU:303,207
F375  EA        NOP                             A:6E X:02 Y:EE P:65 SP:FB PPU:309,207
F376  20 46 FB  JSR                             A:6E X:02 Y:EE P:65 SP:FB PPU:315,207
FB46  50 2D     BVC                             A:6E X:02 Y:EE P:65 SP:F9 PPU:333,207
FB48  F0 2B     BEQ                             A:6E X:02 Y:EE P:65 SP:F9 PPU:339,207
FB4A  30 29     BMI                             A:6E X:02 Y:EE P:65 SP:F9 PPU:  4,208
FB4C  90 27     BCC                             A:6E X:02 Y:EE P:65 SP:F9 PPU: 10,208
FB4E  C9 6E     CMP                             A:6E X:02 Y:EE P:65 SP:F9 PPU: 16,208
FB50  D0 23     BNE                             A:6E X:02 Y:EE P:67 SP:F9 PPU: 22,208
FB52  60        RTS                             A:6E X:02 Y:EE P:67 SP:F9 PPU: 28,208
F379  A5 47     LDA                             A:6E X:02 Y:EE P:67 SP:FB PPU: 46,208
F37B  C9 1B     CMP                             A:1B X:02 Y:EE P:65 SP:FB PPU: 55,208
F37D  F0 02     BEQ                             A:1B X:02 Y:EE P:67 SP:FB PPU: 61,208
F381  C8        INY                             A:1B X:02 Y:EE P:67 SP:FB PPU: 70,208
F382  A9 A5     LDA                             A:1B X:02 Y:EF P:E5 SP:FB PPU: 76,208
F384  8D 47 06  STA                             A:A5 X:02 Y:EF P:E5 SP:FB PPU: 82,208
F387  20 1D FB  JSR                             A:A5 X:02 Y:EF P:E5 SP:FB PPU: 94,208
FB1D  24 01     BIT                             A:A5 X:02 Y:EF P:E5 SP:F9 PPU:112,208
FB1F  18        CLC                             A:A5 X:02 Y:EF P:E5 SP:F9 PPU:121,208
FB20  A9 B3     LDA                             A:A5 X:02 Y:EF P:E4 SP:F9 PPU:127,208
FB22  60        RTS                             A:B3 X:02 Y:EF P:E4 SP:F9 PPU:133,208
F38A  4F 47 06  SRE                             A:B3 X:02 Y:EF P:E4 SP:FB PPU:151,208
F38D  EA        NOP                             A:E1 X:02 Y:EF P:E5 SP:FB PPU:169,208
F38E  EA        NOP                             A:E1 X:02 Y:EF P:E5 SP:FB PPU:175,208
F38F  EA        NOP                             A:E1 X:02 Y:EF P:E5 SP:FB PPU:181,208
F390  EA        NOP                             A:E1 X:02 Y:EF P:E5 SP:FB PPU:187,208
F391  20 23 FB  JSR                             A:E1 X:02 Y:EF P:E5 SP:FB PPU:193,208
FB23  50 50     BVC                             A:E1 X:02 Y:EF P:E5 SP:F9 PPU:211,208
FB25  90 4E     BCC                             A:E1 X:02 Y:EF P:E5 SP:F9 PPU:217,208
FB27  10 4C     BPL                             A:E1 X:02 Y:EF P:E5 SP:F9 PPU:223,208
FB29  C9 E1     CMP                             A:E1 X:02 Y:EF P:E5 SP:F9 PPU:229,208
FB2B  D0 48     BNE                             A:E1 X:02 Y:EF P:67 SP:F9 PPU:235,208
FB2D  60        RTS                             A:E1 X:02 Y:EF P:67 SP:F9 PPU:241,208
F394  AD 47 06  LDA                             A:E1 X:02 Y:EF P:67 SP:FB PPU:259,208
F397  C9 52     CMP                             A:52 X:02 Y:EF P:65 SP:FB PPU:271,208
F399  F0 02     BEQ                             A:52 X:02 Y:EF P:67 SP:FB PPU:277,208
F39D  C8        INY                             A:52 X:02 Y:EF P:67 SP:FB PPU:286,208
F39E  A9 29     LDA                             A:52 X:02 Y:F0 P:E5 SP:FB PPU:292,208
F3A0  8D 47 06  STA                             A:29 X:02 Y:F0 P:65 SP:FB PPU:298,208
F3A3  20 2E FB  JSR                             A:29 X:02 Y:F0 P:65 SP:FB PPU:310,208
FB2E  B8        CLV                             A:29 X:02 Y:F0 P:65 SP:F9 PPU:328,208
FB2F  18        CLC                             A:29 X:02 Y:F0 P:25 SP:F9 PPU:334,208
FB30  A9 42     LDA                             A:29 X:02 Y:F0 P:24 SP:F9 PPU:340,208
FB32  60        RTS                             A:42 X:02 Y:F0 P:24 SP:F9 PPU:  5,209
F3A6  4F 47 06  SRE                             A:42 X:02 Y:F0 P:24 SP:FB PPU: 23,209
F3A9  EA        NOP                             A:56 X:02 Y:F0 P:25 SP:FB PPU: 41,209
F3AA  EA        NOP                             A:56 X:02 Y:F0 P:25 SP:FB PPU: 47,209
F3AB  EA        NOP                             A:56 X:02 Y:F0 P:25 SP:FB PPU: 53,209
F3AC  EA        NOP                             A:56 X:02 Y:F0 P:25 SP:FB PPU: 59,209
F3AD  20 33 FB  JSR                             A:56 X:02 Y:F0 P:25 SP:FB PPU: 65,209
FB33  70 40     BVS                             A:56 X:02 Y:F0 P:25 SP:F9 PPU: 83,209
FB35  F0 3E     BEQ                             A:56 X:02 Y:F0 P:25 SP:F9 PPU: 89,209
FB37  30 3C     BMI                             A:56 X:02 Y:F0 P:25 SP:F9 PPU: 95,209
FB39  90 3A     BCC                             A:56 X:02 Y:F0 P:25 SP:F9 PPU:101,209
FB3B  C9 56     CMP                             A:56 X:02 Y:F0 P:25 SP:F9 PPU:107,209
FB3D  D0 36     BNE                             A:56 X:02 Y:F0 P:27 SP:F9 PPU:113,209
FB3F  60        RTS                             A:56 X:02 Y:F0 P:27 SP:F9 PPU:119,209
F3B0  AD 47 06  LDA                             A:56 X:02 Y:F0 P:27 SP:FB PPU:137,209
F3B3  C9 14     CMP                             A:14 X:02 Y:F0 P:25 SP:FB PPU:149,209
F3B5  F0 02     BEQ                             A:14 X:02 Y:F0 P:27 SP:FB PPU:155,209
F3B9  C8        INY                             A:14 X:02 Y:F0 P:27 SP:FB PPU:164,209
F3BA  A9 37     LDA                             A:14 X:02 Y:F1 P:A5 SP:FB PPU:170,209
F3BC  8D 47 06  STA                             A:37 X:02 Y:F1 P:25 SP:FB PPU:176,209
F3BF  20 40 FB  JSR                             A:37 X:02 Y:F1 P:25 SP:FB PPU:188,209
FB40  24 01     BIT                             A:37 X:02 Y:F1 P:25 SP:F9 PPU:206,209
FB42  38        SEC                             A:37 X:02 Y:F1 P:E5 SP:F9 PPU:215,209
FB43  A9 75     LDA                             A:37 X:02 Y:F1 P:E5 SP:F9 PPU:221,209
FB45  60        RTS                             A:75 X:02 Y:F1 P:65 SP:F9 PPU:227,209
F3C2  4F 47 06  SRE                             A:75 X:02 Y:F1 P:65 SP:FB PPU:245,209
F3C5  EA        NOP                             A:6E X:02 Y:F1 P:65 SP:FB PPU:263,209
F3C6  EA        NOP                             A:6E X:02 Y:F1 P:65 SP:FB PPU:269,209
F3C7  EA        NOP                             A:6E X:02 Y:F1 P:65 SP:FB PPU:275,209
F3C8  EA        NOP                             A:6E X:02 Y:F1 P:65 SP:FB PPU:281,209
F3C9  20 46 FB  JSR                             A:6E X:02 Y:F1 P:65 SP:FB PPU:287,209
FB46  50 2D     BVC                             A:6E X:02 Y:F1 P:65 SP:F9 PPU:305,209
FB48  F0 2B     BEQ                             A:6E X:02 Y:F1 P:65 SP:F9 PPU:311,209
FB4A  30 29     BMI                             A:6E X:02 Y:F1 P:65 SP:F9 PPU:317,209
FB4C  90 27     BCC                             A:6E X:02 Y:F1 P:65 SP:F9 PPU:323,209
FB4E  C9 6E     CMP                             A:6E X:02 Y:F1 P:65 SP:F9 PPU:329,209
FB50  D0 23     BNE                             A:6E X:02 Y:F1 P:67 SP:F9 PPU:335,209
FB52  60        RTS                             A:6E X:02 Y:F1 P:67 SP:F9 PPU:  0,210
F3CC  AD 47 06  LDA                             A:6E X:02 Y:F1 P:67 SP:FB PPU: 18,210
F3CF  C9 1B     CMP                             A:1B X:02 Y:F1 P:65 SP:FB PPU: 30,210
F3D1  F0 02     BEQ                             A:1B X:02 Y:F1 P:67 SP:FB PPU: 36,210
F3D5  A9 A5     LDA                             A:1B X:02 Y:F1 P:67 SP:FB PPU: 45,210
F3D7  8D 47 06  STA                             A:A5 X:02 Y:F1 P:E5 SP:FB PPU: 51,210
F3DA  A9 48     LDA                             A:A5 X:02 Y:F1 P:E5 SP:FB PPU: 63,210
F3DC  85 45     STA                             A:48 X:02 Y:F1 P:65 SP:FB PPU: 69,210
F3DE  A9 05     LDA                             A:48 X:02 Y:F1 P:65 SP:FB PPU: 78,210
F3E0  85 46     STA                             A:05 X:02 Y:F1 P:65 SP:FB PPU: 84,210
F3E2  A0 FF     LDY                             A:05 X:02 Y:F1 P:65 SP:FB PPU: 93,210
F3E4  20 1D FB  JSR                             A:05 X:02 Y:FF P:E5 SP:FB PPU: 99,210
FB1D  24 01     BIT                             A:05 X:02 Y:FF P:E5 SP:F9 PPU:117,210
FB1F  18        CLC                             A:05 X:02 Y:FF P:E5 SP:F9 PPU:126,210
FB20  A9 B3     LDA                             A:05 X:02 Y:FF P:E4 SP:F9 PPU:132,210
FB22  60        RTS                             A:B3 X:02 Y:FF P:E4 SP:F9 PPU:138,210
F3E7  53 45     SRE                             A:B3 X:02 Y:FF P:E4 SP:FB PPU:156,210
F3E9  EA        NOP                             A:E1 X:02 Y:FF P:E5 SP:FB PPU:180,210
F3EA  EA        NOP                             A:E1 X:02 Y:FF P:E5 SP:FB PPU:186,210
F3EB  08        PHP                             A:E1 X:02 Y:FF P:E5 SP:FB PPU:192,210
F3EC  48        PHA                             A:E1 X:02 Y:FF P:E5 SP:FA PPU:201,210
F3ED  A0 F2     LDY                             A:E1 X:02 Y:FF P:E5 SP:F9 PPU:210,210
F3EF  68        PLA                             A:E1 X:02 Y:F2 P:E5 SP:F9 PPU:216,210
F3F0  28        PLP                             A:E1 X:02 Y:F2 P:E5 SP:FA PPU:228,210
F3F1  20 23 FB  JSR                             A:E1 X:02 Y:F2 P:E5 SP:FB PPU:240,210
FB23  50 50     BVC                             A:E1 X:02 Y:F2 P:E5 SP:F9 PPU:258,210
FB25  90 4E     BCC                             A:E1 X:02 Y:F2 P:E5 SP:F9 PPU:264,210
FB27  10 4C     BPL                             A:E1 X:02 Y:F2 P:E5 SP:F9 PPU:270,210
FB29  C9 E1     CMP                             A:E1 X:02 Y:F2 P:E5 SP:F9 PPU:276,210
FB2B  D0 48     BNE                             A:E1 X:02 Y:F2 P:67 SP:F9 PPU:282,210
FB2D  60        RTS                             A:E1 X:02 Y:F2 P:67 SP:F9 PPU:288,210
F3F4  AD 47 06  LDA                             A:E1 X:02 Y:F2 P:67 SP:FB PPU:306,210
F3F7  C9 52     CMP                             A:52 X:02 Y:F2 P:65 SP:FB PPU:318,210
F3F9  F0 02     BEQ                             A:52 X:02 Y:F2 P:67 SP:FB PPU:324,210
F3FD  A0 FF     LDY                             A:52 X:02 Y:F2 P:67 SP:FB PPU:333,210
F3FF  A9 29     LDA                             A:52 X:02 Y:FF P:E5 SP:FB PPU:339,210
F401  8D 47 06  STA                             A:29 X:02 Y:FF P:65 SP:FB PPU:  4,211
F404  20 2E FB  JSR                             A:29 X:02 Y:FF P:65 SP:FB PPU: 16,211
FB2E  B8        CLV                             A:29 X:02 Y:FF P:65 SP:F9 PPU: 34,211
FB2F  18        CLC                             A:29 X:02 Y:FF P:25 SP:F9 PPU: 40,211
FB30  A9 42     LDA                             A:29 X:02 Y:FF P:24 SP:F9 PPU: 46,211
FB32  60        RTS                             A:42 X:02 Y:FF P:24 SP:F9 PPU: 52,211
F407  53 45     SRE                             A:42 X:02 Y:FF P:24 SP:FB PPU: 70,211
F409  EA        NOP                             A:56 X:02 Y:FF P:25 SP:FB PPU: 94,211
F40A  EA        NOP                             A:56 X:02 Y:FF P:25 SP:FB PPU:100,211
F40B  08        PHP                             A:56 X:02 Y:FF P:25 SP:FB PPU:106,211
F40C  48        PHA                             A:56 X:02 Y:FF P:25 SP:FA PPU:115,211
F40D  A0 F3     LDY                             A:56 X:02 Y:FF P:25 SP:F9 PPU:124,211
F40F  68        PLA                             A:56 X:02 Y:F3 P:A5 SP:F9 PPU:130,211
F410  28        PLP                             A:56 X:02 Y:F3 P:25 SP:FA PPU:142,211
F411  20 33 FB  JSR                             A:56 X:02 Y:F3 P:25 SP:FB PPU:154,211
FB33  70 40     BVS                             A:56 X:02 Y:F3 P:25 SP:F9 PPU:172,211
FB35  F0 3E     BEQ                             A:56 X:02 Y:F3 P:25 SP:F9 PPU:178,211
FB37  30 3C     BMI                             A:56 X:02 Y:F3 P:25 SP:F9 PPU:184,211
FB39  90 3A     BCC                             A:56 X:02 Y:F3 P:25 SP:F9 PPU:190,211
FB3B  C9 56     CMP                             A:56 X:02 Y:F3 P:25 SP:F9 PPU:196,211
FB3D  D0 36     BNE                             A:56 X:02 Y:F3 P:27 SP:F9 PPU:202,211
FB3F  60        RTS                             A:56 X:02 Y:F3 P:27 SP:F9 PPU:208,211
F414  AD 47 06  LDA                             A:56 X:02 Y:F3 P:27 SP:FB PPU:226,211
F417  C9 14     CMP                             A:14 X:02 Y:F3 P:25 SP:FB PPU:238,211
F419  F0 02     BEQ                             A:14 X:02 Y:F3 P:27 SP:FB PPU:244,211
F41D  A0 FF     LDY                             A:14 X:02 Y:F3 P:27 SP:FB PPU:253,211
F41F  A9 37     LDA                             A:14 X:02 Y:FF P:A5 SP:FB PPU:259,211
F421  8D 47 06  STA                             A:37 X:02 Y:FF P:25 SP:FB PPU:265,211
F424  20 40 FB  JSR                             A:37 X:02 Y:FF P:25 SP:FB PPU:277,211
FB40  24 01     BIT                             A:37 X:02 Y:FF P:25 SP:F9 PPU:295,211
FB42  38        SEC                             A:37 X:02 Y:FF P:E5 SP:F9 PPU:304,211
FB43  A9 75     LDA                             A:37 X:02 Y:FF P:E5 SP:F9 PPU:310,211
FB45  60        RTS                             A:75 X:02 Y:FF P:65 SP:F9 PPU:316,211
F427  53 45     SRE                             A:75 X:02 Y:FF P:65 SP:FB PPU:334,211
F429  EA        NOP                             A:6E X:02 Y:FF P:65 SP:FB PPU: 17,212
F42A  EA        NOP                             A:6E X:02 Y:FF P:65 SP:FB PPU: 23,212
F42B  08        PHP                             A:6E X:02 Y:FF P:65 SP:FB PPU: 29,212
F42C  48        PHA                             A:6E X:02 Y:FF P:65 SP:FA PPU: 38,212
F42D  A0 F4     LDY                             A:6E X:02 Y:FF P:65 SP:F9 PPU: 47,212
F42F  68        PLA                             A:6E X:02 Y:F4 P:E5 SP:F9 PPU: 53,212
F430  28        PLP                             A:6E X:02 Y:F4 P:65 SP:FA PPU: 65,212
F431  20 46 FB  JSR                             A:6E X:02 Y:F4 P:65 SP:FB PPU: 77,212
FB46  50 2D     BVC                             A:6E X:02 Y:F4 P:65 SP:F9 PPU: 95,212
FB48  F0 2B     BEQ                             A:6E X:02 Y:F4 P:65 SP:F9 PPU:101,212
FB4A  30 29     BMI                             A:6E X:02 Y:F4 P:65 SP:F9 PPU:107,212
FB4C  90 27     BCC                             A:6E X:02 Y:F4 P:65 SP:F9 PPU:113,212
FB4E  C9 6E     CMP                             A:6E X:02 Y:F4 P:65 SP:F9 PPU:119,212
FB50  D0 23     BNE                             A:6E X:02 Y:F4 P:67 SP:F9 PPU:125,212
FB52  60        RTS                             A:6E X:02 Y:F4 P:67 SP:F9 PPU:131,212
F434  AD 47 06  LDA                             A:6E X:02 Y:F4 P:67 SP:FB PPU:149,212
F437  C9 1B     CMP                             A:1B X:02 Y:F4 P:65 SP:FB PPU:161,212
F439  F0 02     BEQ                             A:1B X:02 Y:F4 P:67 SP:FB PPU:167,212
F43D  A0 F5     LDY                             A:1B X:02 Y:F4 P:67 SP:FB PPU:176,212
F43F  A2 FF     LDX                             A:1B X:02 Y:F5 P:E5 SP:FB PPU:182,212
F441  A9 A5     LDA                             A:1B X:FF Y:F5 P:E5 SP:FB PPU:188,212
F443  85 47     STA                             A:A5 X:FF Y:F5 P:E5 SP:FB PPU:194,212
F445  20 1D FB  JSR                             A:A5 X:FF Y:F5 P:E5 SP:FB PPU:203,212
FB1D  24 01     BIT                             A:A5 X:FF Y:F5 P:E5 SP:F9 PPU:221,212
FB1F  18        CLC                             A:A5 X:FF Y:F5 P:E5 SP:F9 PPU:230,212
FB20  A9 B3     LDA                             A:A5 X:FF Y:F5 P:E4 SP:F9 PPU:236,212
FB22  60        RTS                             A:B3 X:FF Y:F5 P:E4 SP:F9 PPU:242,212
F448  57 48     SRE                             A:B3 X:FF Y:F5 P:E4 SP:FB PPU:260,212
F44A  EA        NOP                             A:E1 X:FF Y:F5 P:E5 SP:FB PPU:278,212
F44B  EA        NOP                             A:E1 X:FF Y:F5 P:E5 SP:FB PPU:284,212
F44C  EA        NOP                             A:E1 X:FF Y:F5 P:E5 SP:FB PPU:290,212
F44D  EA        NOP                             A:E1 X:FF Y:F5 P:E5 SP:FB PPU:296,212
F44E  20 23 FB  JSR                             A:E1 X:FF Y:F5 P:E5 SP:FB PPU:302,212
FB23  50 50     BVC                             A:E1 X:FF Y:F5 P:E5 SP:F9 PPU:320,212
FB25  90 4E     BCC                             A:E1 X:FF Y:F5 P:E5 SP:F9 PPU:326,212
FB27  10 4C     BPL                             A:E1 X:FF Y:F5 P:E5 SP:F9 PPU:332,212
FB29  C9 E1     CMP                             A:E1 X:FF Y:F5 P:E5 SP:F9 PPU:338,212
FB2B  D0 48     BNE                             A:E1 X:FF Y:F5 P:67 SP:F9 PPU:  3,213
FB2D  60        RTS                             A:E1 X:FF Y:F5 P:67 SP:F9 PPU:  9,213
F451  A5 47     LDA                             A:E1 X:FF Y:F5 P:67 SP:FB PPU: 27,213
F453  C9 52     CMP                             A:52 X:FF Y:F5 P:65 SP:FB PPU: 36,213
F455  F0 02     BEQ                             A:52 X:FF Y:F5 P:67 SP:FB PPU: 42,213
F459  C8        INY                             A:52 X:FF Y:F5 P:67 SP:FB PPU: 51,213
F45A  A9 29     LDA                             A:52 X:FF Y:F6 P:E5 SP:FB PPU: 57,213
F45C  85 47     STA                             A:29 X:FF Y:F6 P:65 SP:FB PPU: 63,213
F45E  20 2E FB  JSR                             A:29 X:FF Y:F6 P:65 SP:FB PPU: 72,213
FB2E  B8        CLV                             A:29 X:FF Y:F6 P:65 SP:F9 PPU: 90,213
FB2F  18        CLC                             A:29 X:FF Y:F6 P:25 SP:F9 PPU: 96,213
FB30  A9 42     LDA                             A:29 X:FF Y:F6 P:24 SP:F9 PPU:102,213
FB32  60        RTS                             A:42 X:FF Y:F6 P:24 SP:F9 PPU:108,213
F461  57 48     SRE                             A:42 X:FF Y:F6 P:24 SP:FB PPU:126,213
F463  EA        NOP                             A:56 X:FF Y:F6 P:25 SP:FB PPU:144,213
F464  EA        NOP                             A:56 X:FF Y:F6 P:25 SP:FB PPU:150,213
F465  EA        NOP                             A:56 X:FF Y:F6 P:25 SP:FB PPU:156,213
F466  EA        NOP                             A:56 X:FF Y:F6 P:25 SP:FB PPU:162,213
F467  20 33 FB  JSR                             A:56 X:FF Y:F6 P:25 SP:FB PPU:168,213
FB33  70 40     BVS                             A:56 X:FF Y:F6 P:25 SP:F9 PPU:186,213
FB35  F0 3E     BEQ                             A:56 X:FF Y:F6 P:25 SP:F9 PPU:192,213
FB37  30 3C     BMI                             A:56 X:FF Y:F6 P:25 SP:F9 PPU:198,213
FB39  90 3A     BCC                             A:56 X:FF Y:F6 P:25 SP:F9 PPU:204,213
FB3B  C9 56     CMP                             A:56 X:FF Y:F6 P:25 SP:F9 PPU:210,213
FB3D  D0 36     BNE                             A:56 X:FF Y:F6 P:27 SP:F9 PPU:216,213
FB3F  60        RTS                             A:56 X:FF Y:F6 P:27 SP:F9 PPU:222,213
F46A  A5 47     LDA                             A:56 X:FF Y:F6 P:27 SP:FB PPU:240,213
F46C  C9 14     CMP                             A:14 X:FF Y:F6 P:25 SP:FB PPU:249,213
F46E  F0 02     BEQ                             A:14 X:FF Y:F6 P:27 SP:FB PPU:255,213
F472  C8        INY                             A:14 X:FF Y:F6 P:27 SP:FB PPU:264,213
F473  A9 37     LDA                             A:14 X:FF Y:F7 P:A5 SP:FB PPU:270,213
F475  85 47     STA                             A:37 X:FF Y:F7 P:25 SP:FB PPU:276,213
F477  20 40 FB  JSR                             A:37 X:FF Y:F7 P:25 SP:FB PPU:285,213
FB40  24 01     BIT                             A:37 X:FF Y:F7 P:25 SP:F9 PPU:303,213
FB42  38        SEC                             A:37 X:FF Y:F7 P:E5 SP:F9 PPU:312,213
FB43  A9 75     LDA                             A:37 X:FF Y:F7 P:E5 SP:F9 PPU:318,213
FB45  60        RTS                             A:75 X:FF Y:F7 P:65 SP:F9 PPU:324,213
F47A  57 48     SRE                             A:75 X:FF Y:F7 P:65 SP:FB PPU:  1,214
F47C  EA        NOP                             A:6E X:FF Y:F7 P:65 SP:FB PPU: 19,214
F47D  EA        NOP                             A:6E X:FF Y:F7 P:65 SP:FB PPU: 25,214
F47E  EA        NOP                             A:6E X:FF Y:F7 P:65 SP:FB PPU: 31,214
F47F  EA        NOP                             A:6E X:FF Y:F7 P:65 SP:FB PPU: 37,214
F480  20 46 FB  JSR                             A:6E X:FF Y:F7 P:65 SP:FB PPU: 43,214
FB46  50 2D     BVC                             A:6E X:FF Y:F7 P:65 SP:F9 PPU: 61,214
FB48  F0 2B     BEQ                             A:6E X:FF Y:F7 P:65 SP:F9 PPU: 67,214
FB4A  30 29     BMI                             A:6E X:FF Y:F7 P:65 SP:F9 PPU: 73,214
FB4C  90 27     BCC                             A:6E X:FF Y:F7 P:65 SP:F9 PPU: 79,214
FB4E  C9 6E     CMP                             A:6E X:FF Y:F7 P:65 SP:F9 PPU: 85,214
FB50  D0 23     BNE                             A:6E X:FF Y:F7 P:67 SP:F9 PPU: 91,214
FB52  60        RTS                             A:6E X:FF Y:F7 P:67 SP:F9 PPU: 97,214
F483  A5 47     LDA                             A:6E X:FF Y:F7 P:67 SP:FB PPU:115,214
F485  C9 1B     CMP                             A:1B X:FF Y:F7 P:65 SP:FB PPU:124,214
F487  F0 02     BEQ                             A:1B X:FF Y:F7 P:67 SP:FB PPU:130,214
F48B  A9 A5     LDA                             A:1B X:FF Y:F7 P:67 SP:FB PPU:139,214
F48D  8D 47 06  STA                             A:A5 X:FF Y:F7 P:E5 SP:FB PPU:145,214
F490  A0 FF     LDY                             A:A5 X:FF Y:F7 P:E5 SP:FB PPU:157,214
F492  20 1D FB  JSR                             A:A5 X:FF Y:FF P:E5 SP:FB PPU:163,214
FB1D  24 01     BIT                             A:A5 X:FF Y:FF P:E5 SP:F9 PPU:181,214
FB1F  18        CLC                             A:A5 X:FF Y:FF P:E5 SP:F9 PPU:190,214
FB20  A9 B3     LDA                             A:A5 X:FF Y:FF P:E4 SP:F9 PPU:196,214
FB22  60        RTS                             A:B3 X:FF Y:FF P:E4 SP:F9 PPU:202,214
F495  5B 48 05  SRE                             A:B3 X:FF Y:FF P:E4 SP:FB PPU:220,214
F498  EA        NOP                             A:E1 X:FF Y:FF P:E5 SP:FB PPU:241,214
F499  EA        NOP                             A:E1 X:FF Y:FF P:E5 SP:FB PPU:247,214
F49A  08        PHP                             A:E1 X:FF Y:FF P:E5 SP:FB PPU:253,214
F49B  48        PHA                             A:E1 X:FF Y:FF P:E5 SP:FA PPU:262,214
F49C  A0 F8     LDY                             A:E1 X:FF Y:FF P:E5 SP:F9 PPU:271,214
F49E  68        PLA                             A:E1 X:FF Y:F8 P:E5 SP:F9 PPU:277,214
F49F  28        PLP                             A:E1 X:FF Y:F8 P:E5 SP:FA PPU:289,214
F4A0  20 23 FB  JSR                             A:E1 X:FF Y:F8 P:E5 SP:FB PPU:301,214
FB23  50 50     BVC                             A:E1 X:FF Y:F8 P:E5 SP:F9 PPU:319,214
FB25  90 4E     BCC                             A:E1 X:FF Y:F8 P:E5 SP:F9 PPU:325,214
FB27  10 4C     BPL                             A:E1 X:FF Y:F8 P:E5 SP:F9 PPU:331,214
FB29  C9 E1     CMP                             A:E1 X:FF Y:F8 P:E5 SP:F9 PPU:337,214
FB2B  D0 48     BNE                             A:E1 X:FF Y:F8 P:67 SP:F9 PPU:  2,215
FB2D  60        RTS                             A:E1 X:FF Y:F8 P:67 SP:F9 PPU:  8,215
F4A3  AD 47 06  LDA                             A:E1 X:FF Y:F8 P:67 SP:FB PPU: 26,215
F4A6  C9 52     CMP                             A:52 X:FF Y:F8 P:65 SP:FB PPU: 38,215
F4A8  F0 02     BEQ                             A:52 X:FF Y:F8 P:67 SP:FB PPU: 44,215
F4AC  A0 FF     LDY                             A:52 X:FF Y:F8 P:67 SP:FB PPU: 53,215
F4AE  A9 29     LDA                             A:52 X:FF Y:FF P:E5 SP:FB PPU: 59,215
F4B0  8D 47 06  STA                             A:29 X:FF Y:FF P:65 SP:FB PPU: 65,215
F4B3  20 2E FB  JSR                             A:29 X:FF Y:FF P:65 SP:FB PPU: 77,215
FB2E  B8        CLV                             A:29 X:FF Y:FF P:65 SP:F9 PPU: 95,215
FB2F  18        CLC                             A:29 X:FF Y:FF P:25 SP:F9 PPU:101,215
FB30  A9 42     LDA                             A:29 X:FF Y:FF P:24 SP:F9 PPU:107,215
FB32  60        RTS                             A:42 X:FF Y:FF P:24 SP:F9 PPU:113,215
F4B6  5B 48 05  SRE                             A:42 X:FF Y:FF P:24 SP:FB PPU:131,215
F4B9  EA        NOP                             A:56 X:FF Y:FF P:25 SP:FB PPU:152,215
F4BA  EA        NOP                             A:56 X:FF Y:FF P:25 SP:FB PPU:158,215
F4BB  08        PHP                             A:56 X:FF Y:FF P:25 SP:FB PPU:164,215
F4BC  48        PHA                             A:56 X:FF Y:FF P:25 SP:FA PPU:173,215
F4BD  A0 F9     LDY                             A:56 X:FF Y:FF P:25 SP:F9 PPU:182,215
F4BF  68        PLA                             A:56 X:FF Y:F9 P:A5 SP:F9 PPU:188,215
F4C0  28        PLP                             A:56 X:FF Y:F9 P:25 SP:FA PPU:200,215
F4C1  20 33 FB  JSR                             A:56 X:FF Y:F9 P:25 SP:FB PPU:212,215
FB33  70 40     BVS                             A:56 X:FF Y:F9 P:25 SP:F9 PPU:230,215
FB35  F0 3E     BEQ                             A:56 X:FF Y:F9 P:25 SP:F9 PPU:236,215
FB37  30 3C     BMI                             A:56 X:FF Y:F9 P:25 SP:F9 PPU:242,215
FB39  90 3A     BCC                             A:56 X:FF Y:F9 P:25 SP:F9 PPU:248,215
FB3B  C9 56     CMP                             A:56 X:FF Y:F9 P:25 SP:F9 PPU:254,215
FB3D  D0 36     BNE                             A:56 X:FF Y:F9 P:27 SP:F9 PPU:260,215
FB3F  60        RTS                             A:56 X:FF Y:F9 P:27 SP:F9 PPU:266,215
F4C4  AD 47 06  LDA                             A:56 X:FF Y:F9 P:27 SP:FB PPU:284,215
F4C7  C9 14     CMP                             A:14 X:FF Y:F9 P:25 SP:FB PPU:296,215
F4C9  F0 02     BEQ                             A:14 X:FF Y:F9 P:27 SP:FB PPU:302,215
F4CD  A0 FF     LDY                             A:14 X:FF Y:F9 P:27 SP:FB PPU:311,215
F4CF  A9 37     LDA                             A:14 X:FF Y:FF P:A5 SP:FB PPU:317,215
F4D1  8D 47 06  STA                             A:37 X:FF Y:FF P:25 SP:FB PPU:323,215
F4D4  20 40 FB  JSR                             A:37 X:FF Y:FF P:25 SP:FB PPU:335,215
FB40  24 01     BIT                             A:37 X:FF Y:FF P:25 SP:F9 PPU: 12,216
FB42  38        SEC                             A:37 X:FF Y:FF P:E5 SP:F9 PPU: 21,216
FB43  A9 75     LDA                             A:37 X:FF Y:FF P:E5 SP:F9 PPU: 27,216
FB45  60        RTS                             A:75 X:FF Y:FF P:65 SP:F9 PPU: 33,216
F4D7  5B 48 05  SRE                             A:75 X:FF Y:FF P:65 SP:FB PPU: 51,216
F4DA  EA        NOP                             A:6E X:FF Y:FF P:65 SP:FB PPU: 72,216
F4DB  EA        NOP                             A:6E X:FF Y:FF P:65 SP:FB PPU: 78,216
F4DC  08        PHP                             A:6E X:FF Y:FF P:65 SP:FB PPU: 84,216
F4DD  48        PHA                             A:6E X:FF Y:FF P:65 SP:FA PPU: 93,216
F4DE  A0 FA     LDY                             A:6E X:FF Y:FF P:65 SP:F9 PPU:102,216
F4E0  68        PLA                             A:6E X:FF Y:FA P:E5 SP:F9 PPU:108,216
F4E1  28        PLP                             A:6E X:FF Y:FA P:65 SP:FA PPU:120,216
F4E2  20 46 FB  JSR                             A:6E X:FF Y:FA P:65 SP:FB PPU:132,216
FB46  50 2D     BVC                             A:6E X:FF Y:FA P:65 SP:F9 PPU:150,216
FB48  F0 2B     BEQ                             A:6E X:FF Y:FA P:65 SP:F9 PPU:156,216
FB4A  30 29     BMI                             A:6E X:FF Y:FA P:65 SP:F9 PPU:162,216
FB4C  90 27     BCC                             A:6E X:FF Y:FA P:65 SP:F9 PPU:168,216
FB4E  C9 6E     CMP                             A:6E X:FF Y:FA P:65 SP:F9 PPU:174,216
FB50  D0 23     BNE                             A:6E X:FF Y:FA P:67 SP:F9 PPU:180,216
FB52  60        RTS                             A:6E X:FF Y:FA P:67 SP:F9 PPU:186,216
F4E5  AD 47 06  LDA                             A:6E X:FF Y:FA P:67 SP:FB PPU:204,216
F4E8  C9 1B     CMP                             A:1B X:FF Y:FA P:65 SP:FB PPU:216,216
F4EA  F0 02     BEQ                             A:1B X:FF Y:FA P:67 SP:FB PPU:222,216
F4EE  A0 FB     LDY                             A:1B X:FF Y:FA P:67 SP:FB PPU:231,216
F4F0  A2 FF     LDX                             A:1B X:FF Y:FB P:E5 SP:FB PPU:237,216
F4F2  A9 A5     LDA                             A:1B X:FF Y:FB P:E5 SP:FB PPU:243,216
F4F4  8D 47 06  STA                             A:A5 X:FF Y:FB P:E5 SP:FB PPU:249,216
F4F7  20 1D FB  JSR                             A:A5 X:FF Y:FB P:E5 SP:FB PPU:261,216
FB1D  24 01     BIT                             A:A5 X:FF Y:FB P:E5 SP:F9 PPU:279,216
FB1F  18        CLC                             A:A5 X:FF Y:FB P:E5 SP:F9 PPU:288,216
FB20  A9 B3     LDA                             A:A5 X:FF Y:FB P:E4 SP:F9 PPU:294,216
FB22  60        RTS                             A:B3 X:FF Y:FB P:E4 SP:F9 PPU:300,216
F4FA  5F 48 05  SRE                             A:B3 X:FF Y:FB P:E4 SP:FB PPU:318,216
F4FD  EA        NOP                             A:E1 X:FF Y:FB P:E5 SP:FB PPU:339,216
F4FE  EA        NOP                             A:E1 X:FF Y:FB P:E5 SP:FB PPU:  4,217
F4FF  EA        NOP                             A:E1 X:FF Y:FB P:E5 SP:FB PPU: 10,217
F500  EA        NOP                             A:E1 X:FF Y:FB P:E5 SP:FB PPU: 16,217
F501  20 23 FB  JSR                             A:E1 X:FF Y:FB P:E5 SP:FB PPU: 22,217
FB23  50 50     BVC                             A:E1 X:FF Y:FB P:E5 SP:F9 PPU: 40,217
FB25  90 4E     BCC                             A:E1 X:FF Y:FB P:E5 SP:F9 PPU: 46,217
FB27  10 4C     BPL                             A:E1 X:FF Y:FB P:E5 SP:F9 PPU: 52,217
FB29  C9 E1     CMP                             A:E1 X:FF Y:FB P:E5 SP:F9 PPU: 58,217
FB2B  D0 48     BNE                             A:E1 X:FF Y:FB P:67 SP:F9 PPU: 64,217
FB2D  60        RTS                             A:E1 X:FF Y:FB P:67 SP:F9 PPU: 70,217
F504  AD 47 06  LDA                             A:E1 X:FF Y:FB P:67 SP:FB PPU: 88,217
F507  C9 52     CMP                             A:52 X:FF Y:FB P:65 SP:FB PPU:100,217
F509  F0 02     BEQ                             A:52 X:FF Y:FB P:67 SP:FB PPU:106,217
F50D  C8        INY                             A:52 X:FF Y:FB P:67 SP:FB PPU:115,217
F50E  A9 29     LDA                             A:52 X:FF Y:FC P:E5 SP:FB PPU:121,217
F510  8D 47 06  STA                             A:29 X:FF Y:FC P:65 SP:FB PPU:127,217
F513  20 2E FB  JSR                             A:29 X:FF Y:FC P:65 SP:FB PPU:139,217
FB2E  B8        CLV                             A:29 X:FF Y:FC P:65 SP:F9 PPU:157,217
FB2F  18        CLC                             A:29 X:FF Y:FC P:25 SP:F9 PPU:163,217
FB30  A9 42     LDA                             A:29 X:FF Y:FC P:24 SP:F9 PPU:169,217
FB32  60        RTS                             A:42 X:FF Y:FC P:24 SP:F9 PPU:175,217
F516  5F 48 05  SRE                             A:42 X:FF Y:FC P:24 SP:FB PPU:193,217
F519  EA        NOP                             A:56 X:FF Y:FC P:25 SP:FB PPU:214,217
F51A  EA        NOP                             A:56 X:FF Y:FC P:25 SP:FB PPU:220,217
F51B  EA        NOP                             A:56 X:FF Y:FC P:25 SP:FB PPU:226,217
F51C  EA        NOP                             A:56 X:FF Y:FC P:25 SP:FB PPU:232,217
F51D  20 33 FB  JSR                             A:56 X:FF Y:FC P:25 SP:FB PPU:238,217
FB33  70 40     BVS                             A:56 X:FF Y:FC P:25 SP:F9 PPU:256,217
FB35  F0 3E     BEQ                             A:56 X:FF Y:FC P:25 SP:F9 PPU:262,217
FB37  30 3C     BMI                             A:56 X:FF Y:FC P:25 SP:F9 PPU:268,217
FB39  90 3A     BCC                             A:56 X:FF Y:FC P:25 SP:F9 PPU:274,217
FB3B  C9 56     CMP                             A:56 X:FF Y:FC P:25 SP:F9 PPU:280,217
FB3D  D0 36     BNE                             A:56 X:FF Y:FC P:27 SP:F9 PPU:286,217
FB3F  60        RTS                             A:56 X:FF Y:FC P:27 SP:F9 PPU:292,217
F520  AD 47 06  LDA                             A:56 X:FF Y:FC P:27 SP:FB PPU:310,217
F523  C9 14     CMP                             A:14 X:FF Y:FC P:25 SP:FB PPU:322,217
F525  F0 02     BEQ                             A:14 X:FF Y:FC P:27 SP:FB PPU:328,217
F529  C8        INY                             A:14 X:FF Y:FC P:27 SP:FB PPU:337,217
F52A  A9 37     LDA                             A:14 X:FF Y:FD P:A5 SP:FB PPU:  2,218
F52C  8D 47 06  STA                             A:37 X:FF Y:FD P:25 SP:FB PPU:  8,218
F52F  20 40 FB  JSR                             A:37 X:FF Y:FD P:25 SP:FB PPU: 20,218
FB40  24 01     BIT                             A:37 X:FF Y:FD P:25 SP:F9 PPU: 38,218
FB42  38        SEC                             A:37 X:FF Y:FD P:E5 SP:F9 PPU: 47,218
FB43  A9 75     LDA                             A:37 X:FF Y:FD P:E5 SP:F9 PPU: 53,218
FB45  60        RTS                             A:75 X:FF Y:FD P:65 SP:F9 PPU: 59,218
F532  5F 48 05  SRE                             A:75 X:FF Y:FD P:65 SP:FB PPU: 77,218
F535  EA        NOP                             A:6E X:FF Y:FD P:65 SP:FB PPU: 98,218
F536  EA        NOP                             A:6E X:FF Y:FD P:65 SP:FB PPU:104,218
F537  EA        NOP                             A:6E X:FF Y:FD P:65 SP:FB PPU:110,218
F538  EA        NOP                             A:6E X:FF Y:FD P:65 SP:FB PPU:116,218
F539  20 46 FB  JSR                             A:6E X:FF Y:FD P:65 SP:FB PPU:122,218
FB46  50 2D     BVC                             A:6E X:FF Y:FD P:65 SP:F9 PPU:140,218
FB48  F0 2B     BEQ                             A:6E X:FF Y:FD P:65 SP:F9 PPU:146,218
FB4A  30 29     BMI                             A:6E X:FF Y:FD P:65 SP:F9 PPU:152,218
FB4C  90 27     BCC                             A:6E X:FF Y:FD P:65 SP:F9 PPU:158,218
FB4E  C9 6E     CMP                             A:6E X:FF Y:FD P:65 SP:F9 PPU:164,218
FB50  D0 23     BNE                             A:6E X:FF Y:FD P:67 SP:F9 PPU:170,218
FB52  60        RTS                             A:6E X:FF Y:FD P:67 SP:F9 PPU:176,218
F53C  AD 47 06  LDA                             A:6E X:FF Y:FD P:67 SP:FB PPU:194,218
F53F  C9 1B     CMP                             A:1B X:FF Y:FD P:65 SP:FB PPU:206,218
F541  F0 02     BEQ                             A:1B X:FF Y:FD P:67 SP:FB PPU:212,218
F545  60        RTS                             A:1B X:FF Y:FD P:67 SP:FB PPU:221,218
C64A  A5 00     LDA                             A:1B X:FF Y:FD P:67 SP:FD PPU:239,218
C64C  85 11     STA                             A:00 X:FF Y:FD P:67 SP:FD PPU:248,218
C64E  A9 00     LDA                             A:00 X:FF Y:FD P:67 SP:FD PPU:257,218
C650  85 00     STA                             A:00 X:FF Y:FD P:67 SP:FD PPU:263,218
C652  20 46 F5  JSR                             A:00 X:FF Y:FD P:67 SP:FD PPU:272,218
F546  A9 FF     LDA                             A:00 X:FF Y:FD P:67 SP:FB PPU:290,218
F548  85 01     STA                             A:FF X:FF Y:FD P:E5 SP:FB PPU:296,218
F54A  A0 01     LDY                             A:FF X:FF Y:FD P:E5 SP:FB PPU:305,218
F54C  A2 02     LDX                             A:FF X:FF Y:01 P:65 SP:FB PPU:311,218
F54E  A9 47     LDA                             A:FF X:02 Y:01 P:65 SP:FB PPU:317,218
F550  85 47     STA                             A:47 X:02 Y:01 P:65 SP:FB PPU:323,218
F552  A9 06     LDA                             A:47 X:02 Y:01 P:65 SP:FB PPU:332,218
F554  85 48     STA                             A:06 X:02 Y:01 P:65 SP:FB PPU:338,218
F556  A9 A5     LDA                             A:06 X:02 Y:01 P:65 SP:FB PPU:  6,219
F558  8D 47 06  STA                             A:A5 X:02 Y:01 P:E5 SP:FB PPU: 12,219
F55B  20 E9 FA  JSR                             A:A5 X:02 Y:01 P:E5 SP:FB PPU: 24,219
FAE9  24 01     BIT                             A:A5 X:02 Y:01 P:E5 SP:F9 PPU: 42,219
FAEB  18        CLC                             A:A5 X:02 Y:01 P:E5 SP:F9 PPU: 51,219
FAEC  A9 B2     LDA                             A:A5 X:02 Y:01 P:E4 SP:F9 PPU: 57,219
FAEE  60        RTS                             A:B2 X:02 Y:01 P:E4 SP:F9 PPU: 63,219
F55E  63 45     RRA                             A:B2 X:02 Y:01 P:E4 SP:FB PPU: 81,219
F560  EA        NOP                             A:05 X:02 Y:01 P:25 SP:FB PPU:105,219
F561  EA        NOP                             A:05 X:02 Y:01 P:25 SP:FB PPU:111,219
F562  EA        NOP                             A:05 X:02 Y:01 P:25 SP:FB PPU:117,219
F563  EA        NOP                             A:05 X:02 Y:01 P:25 SP:FB PPU:123,219
F564  20 EF FA  JSR                             A:05 X:02 Y:01 P:25 SP:FB PPU:129,219
FAEF  70 2A     BVS                             A:05 X:02 Y:01 P:25 SP:F9 PPU:147,219
FAF1  90 28     BCC                             A:05 X:02 Y:01 P:25 SP:F9 PPU:153,219
FAF3  30 26     BMI                             A:05 X:02 Y:01 P:25 SP:F9 PPU:159,219
FAF5  C9 05     CMP                             A:05 X:02 Y:01 P:25 SP:F9 PPU:165,219
FAF7  D0 22     BNE                             A:05 X:02 Y:01 P:27 SP:F9 PPU:171,219
FAF9  60        RTS                             A:05 X:02 Y:01 P:27 SP:F9 PPU:177,219
F567  AD 47 06  LDA                             A:05 X:02 Y:01 P:27 SP:FB PPU:195,219
F56A  C9 52     CMP                             A:52 X:02 Y:01 P:25 SP:FB PPU:207,219
F56C  F0 02     BEQ                             A:52 X:02 Y:01 P:27 SP:FB PPU:213,219
F570  C8        INY                             A:52 X:02 Y:01 P:27 SP:FB PPU:222,219
F571  A9 29     LDA                             A:52 X:02 Y:02 P:25 SP:FB PPU:228,219
F573  8D 47 06  STA                             A:29 X:02 Y:02 P:25 SP:FB PPU:234,219
F576  20 FA FA  JSR                             A:29 X:02 Y:02 P:25 SP:FB PPU:246,219
FAFA  B8        CLV                             A:29 X:02 Y:02 P:25 SP:F9 PPU:264,219
FAFB  18        CLC                             A:29 X:02 Y:02 P:25 SP:F9 PPU:270,219
FAFC  A9 42     LDA                             A:29 X:02 Y:02 P:24 SP:F9 PPU:276,219
FAFE  60        RTS                             A:42 X:02 Y:02 P:24 SP:F9 PPU:282,219
F579  63 45     RRA                             A:42 X:02 Y:02 P:24 SP:FB PPU:300,219
F57B  EA        NOP                             A:57 X:02 Y:02 P:24 SP:FB PPU:324,219
F57C  EA        NOP                             A:57 X:02 Y:02 P:24 SP:FB PPU:330,219
F57D  EA        NOP                             A:57 X:02 Y:02 P:24 SP:FB PPU:336,219
F57E  EA        NOP                             A:57 X:02 Y:02 P:24 SP:FB PPU:  1,220
F57F  20 FF FA  JSR                             A:57 X:02 Y:02 P:24 SP:FB PPU:  7,220
FAFF  70 1A     BVS                             A:57 X:02 Y:02 P:24 SP:F9 PPU: 25,220
FB01  30 18     BMI                             A:57 X:02 Y:02 P:24 SP:F9 PPU: 31,220
FB03  B0 16     BCS                             A:57 X:02 Y:02 P:24 SP:F9 PPU: 37,220
FB05  C9 57     CMP                             A:57 X:02 Y:02 P:24 SP:F9 PPU: 43,220
FB07  D0 12     BNE                             A:57 X:02 Y:02 P:27 SP:F9 PPU: 49,220
FB09  60        RTS                             A:57 X:02 Y:02 P:27 SP:F9 PPU: 55,220
F582  AD 47 06  LDA                             A:57 X:02 Y:02 P:27 SP:FB PPU: 73,220
F585  C9 14     CMP                             A:14 X:02 Y:02 P:25 SP:FB PPU: 85,220
F587  F0 02     BEQ                             A:14 X:02 Y:02 P:27 SP:FB PPU: 91,220
F58B  C8        INY                             A:14 X:02 Y:02 P:27 SP:FB PPU:100,220
F58C  A9 37     LDA                             A:14 X:02 Y:03 P:25 SP:FB PPU:106,220
F58E  8D 47 06  STA                             A:37 X:02 Y:03 P:25 SP:FB PPU:112,220
F591  20 0A FB  JSR                             A:37 X:02 Y:03 P:25 SP:FB PPU:124,220
FB0A  24 01     BIT                             A:37 X:02 Y:03 P:25 SP:F9 PPU:142,220
FB0C  38        SEC                             A:37 X:02 Y:03 P:E5 SP:F9 PPU:151,220
FB0D  A9 75     LDA                             A:37 X:02 Y:03 P:E5 SP:F9 PPU:157,220
FB0F  60        RTS                             A:75 X:02 Y:03 P:65 SP:F9 PPU:163,220
F594  63 45     RRA                             A:75 X:02 Y:03 P:65 SP:FB PPU:181,220
F596  EA        NOP                             A:11 X:02 Y:03 P:25 SP:FB PPU:205,220
F597  EA        NOP                             A:11 X:02 Y:03 P:25 SP:FB PPU:211,220
F598  EA        NOP                             A:11 X:02 Y:03 P:25 SP:FB PPU:217,220
F599  EA        NOP                             A:11 X:02 Y:03 P:25 SP:FB PPU:223,220
F59A  20 10 FB  JSR                             A:11 X:02 Y:03 P:25 SP:FB PPU:229,220
FB10  70 09     BVS                             A:11 X:02 Y:03 P:25 SP:F9 PPU:247,220
FB12  30 07     BMI                             A:11 X:02 Y:03 P:25 SP:F9 PPU:253,220
FB14  90 05     BCC                             A:11 X:02 Y:03 P:25 SP:F9 PPU:259,220
FB16  C9 11     CMP                             A:11 X:02 Y:03 P:25 SP:F9 PPU:265,220
FB18  D0 01     BNE                             A:11 X:02 Y:03 P:27 SP:F9 PPU:271,220
FB1A  60        RTS                             A:11 X:02 Y:03 P:27 SP:F9 PPU:277,220
F59D  AD 47 06  LDA                             A:11 X:02 Y:03 P:27 SP:FB PPU:295,220
F5A0  C9 9B     CMP                             A:9B X:02 Y:03 P:A5 SP:FB PPU:307,220
F5A2  F0 02     BEQ                             A:9B X:02 Y:03 P:27 SP:FB PPU:313,220
F5A6  C8        INY                             A:9B X:02 Y:03 P:27 SP:FB PPU:322,220
F5A7  A9 A5     LDA                             A:9B X:02 Y:04 P:25 SP:FB PPU:328,220
F5A9  85 47     STA                             A:A5 X:02 Y:04 P:A5 SP:FB PPU:334,220
F5AB  20 E9 FA  JSR                             A:A5 X:02 Y:04 P:A5 SP:FB PPU:  2,221
FAE9  24 01     BIT                             A:A5 X:02 Y:04 P:A5 SP:F9 PPU: 20,221
FAEB  18        CLC                             A:A5 X:02 Y:04 P:E5 SP:F9 PPU: 29,221
FAEC  A9 B2     LDA                             A:A5 X:02 Y:04 P:E4 SP:F9 PPU: 35,221
FAEE  60        RTS                             A:B2 X:02 Y:04 P:E4 SP:F9 PPU: 41,221
F5AE  67 47     RRA                             A:B2 X:02 Y:04 P:E4 SP:FB PPU: 59,221
F5B0  EA        NOP                             A:05 X:02 Y:04 P:25 SP:FB PPU: 74,221
F5B1  EA        NOP                             A:05 X:02 Y:04 P:25 SP:FB PPU: 80,221
F5B2  EA        NOP                             A:05 X:02 Y:04 P:25 SP:FB PPU: 86,221
F5B3  EA        NOP                             A:05 X:02 Y:04 P:25 SP:FB PPU: 92,221
F5B4  20 EF FA  JSR                             A:05 X:02 Y:04 P:25 SP:FB PPU: 98,221
FAEF  70 2A     BVS                             A:05 X:02 Y:04 P:25 SP:F9 PPU:116,221
FAF1  90 28     BCC                             A:05 X:02 Y:04 P:25 SP:F9 PPU:122,221
FAF3  30 26     BMI                             A:05 X:02 Y:04 P:25 SP:F9 PPU:128,221
FAF5  C9 05     CMP                             A:05 X:02 Y:04 P:25 SP:F9 PPU:134,221
FAF7  D0 22     BNE                             A:05 X:02 Y:04 P:27 SP:F9 PPU:140,221
FAF9  60        RTS                             A:05 X:02 Y:04 P:27 SP:F9 PPU:146,221
F5B7  A5 47     LDA                             A:05 X:02 Y:04 P:27 SP:FB PPU:164,221
F5B9  C9 52     CMP                             A:52 X:02 Y:04 P:25 SP:FB PPU:173,221
F5BB  F0 02     BEQ                             A:52 X:02 Y:04 P:27 SP:FB PPU:179,221
F5BF  C8        INY                             A:52 X:02 Y:04 P:27 SP:FB PPU:188,221
F5C0  A9 29     LDA                             A:52 X:02 Y:05 P:25 SP:FB PPU:194,221
F5C2  85 47     STA                             A:29 X:02 Y:05 P:25 SP:FB PPU:200,221
F5C4  20 FA FA  JSR                             A:29 X:02 Y:05 P:25 SP:FB PPU:209,221
FAFA  B8        CLV                             A:29 X:02 Y:05 P:25 SP:F9 PPU:227,221
FAFB  18        CLC                             A:29 X:02 Y:05 P:25 SP:F9 PPU:233,221
FAFC  A9 42     LDA                             A:29 X:02 Y:05 P:24 SP:F9 PPU:239,221
FAFE  60        RTS                             A:42 X:02 Y:05 P:24 SP:F9 PPU:245,221
F5C7  67 47     RRA                             A:42 X:02 Y:05 P:24 SP:FB PPU:263,221
F5C9  EA        NOP                             A:57 X:02 Y:05 P:24 SP:FB PPU:278,221
F5CA  EA        NOP                             A:57 X:02 Y:05 P:24 SP:FB PPU:284,221
F5CB  EA        NOP                             A:57 X:02 Y:05 P:24 SP:FB PPU:290,221
F5CC  EA        NOP                             A:57 X:02 Y:05 P:24 SP:FB PPU:296,221
F5CD  20 FF FA  JSR                             A:57 X:02 Y:05 P:24 SP:FB PPU:302,221
FAFF  70 1A     BVS                             A:57 X:02 Y:05 P:24 SP:F9 PPU:320,221
FB01  30 18     BMI                             A:57 X:02 Y:05 P:24 SP:F9 PPU:326,221
FB03  B0 16     BCS                             A:57 X:02 Y:05 P:24 SP:F9 PPU:332,221
FB05  C9 57     CMP                             A:57 X:02 Y:05 P:24 SP:F9 PPU:338,221
FB07  D0 12     BNE                             A:57 X:02 Y:05 P:27 SP:F9 PPU:  3,222
FB09  60        RTS                             A:57 X:02 Y:05 P:27 SP:F9 PPU:  9,222
F5D0  A5 47     LDA                             A:57 X:02 Y:05 P:27 SP:FB PPU: 27,222
F5D2  C9 14     CMP                             A:14 X:02 Y:05 P:25 SP:FB PPU: 36,222
F5D4  F0 02     BEQ                             A:14 X:02 Y:05 P:27 SP:FB PPU: 42,222
F5D8  C8        INY                             A:14 X:02 Y:05 P:27 SP:FB PPU: 51,222
F5D9  A9 37     LDA                             A:14 X:02 Y:06 P:25 SP:FB PPU: 57,222
F5DB  85 47     STA                             A:37 X:02 Y:06 P:25 SP:FB PPU: 63,222
F5DD  20 0A FB  JSR                             A:37 X:02 Y:06 P:25 SP:FB PPU: 72,222
FB0A  24 01     BIT                             A:37 X:02 Y:06 P:25 SP:F9 PPU: 90,222
FB0C  38        SEC                             A:37 X:02 Y:06 P:E5 SP:F9 PPU: 99,222
FB0D  A9 75     LDA                             A:37 X:02 Y:06 P:E5 SP:F9 PPU:105,222
FB0F  60        RTS                             A:75 X:02 Y:06 P:65 SP:F9 PPU:111,222
F5E0  67 47     RRA                             A:75 X:02 Y:06 P:65 SP:FB PPU:129,222
F5E2  EA        NOP                             A:11 X:02 Y:06 P:25 SP:FB PPU:144,222
F5E3  EA        NOP                             A:11 X:02 Y:06 P:25 SP:FB PPU:150,222
F5E4  EA        NOP                             A:11 X:02 Y:06 P:25 SP:FB PPU:156,222
F5E5  EA        NOP                             A:11 X:02 Y:06 P:25 SP:FB PPU:162,222
F5E6  20 10 FB  JSR                             A:11 X:02 Y:06 P:25 SP:FB PPU:168,222
FB10  70 09     BVS                             A:11 X:02 Y:06 P:25 SP:F9 PPU:186,222
FB12  30 07     BMI                             A:11 X:02 Y:06 P:25 SP:F9 PPU:192,222
FB14  90 05     BCC                             A:11 X:02 Y:06 P:25 SP:F9 PPU:198,222
FB16  C9 11     CMP                             A:11 X:02 Y:06 P:25 SP:F9 PPU:204,222
FB18  D0 01     BNE                             A:11 X:02 Y:06 P:27 SP:F9 PPU:210,222
FB1A  60        RTS                             A:11 X:02 Y:06 P:27 SP:F9 PPU:216,222
F5E9  A5 47     LDA                             A:11 X:02 Y:06 P:27 SP:FB PPU:234,222
F5EB  C9 9B     CMP                             A:9B X:02 Y:06 P:A5 SP:FB PPU:243,222
F5ED  F0 02     BEQ                             A:9B X:02 Y:06 P:27 SP:FB PPU:249,222
F5F1  C8        INY                             A:9B X:02 Y:06 P:27 SP:FB PPU:258,222
F5F2  A9 A5     LDA                             A:9B X:02 Y:07 P:25 SP:FB PPU:264,222
F5F4  8D 47 06  STA                             A:A5 X:02 Y:07 P:A5 SP:FB PPU:270,222
F5F7  20 E9 FA  JSR                             A:A5 X:02 Y:07 P:A5 SP:FB PPU:282,222
FAE9  24 01     BIT                             A:A5 X:02 Y:07 P:A5 SP:F9 PPU:300,222
FAEB  18        CLC                             A:A5 X:02 Y:07 P:E5 SP:F9 PPU:309,222
FAEC  A9 B2     LDA                             A:A5 X:02 Y:07 P:E4 SP:F9 PPU:315,222
FAEE  60        RTS                             A:B2 X:02 Y:07 P:E4 SP:F9 PPU:321,222
F5FA  6F 47 06  RRA                             A:B2 X:02 Y:07 P:E4 SP:FB PPU:339,222
F5FD  EA        NOP                             A:05 X:02 Y:07 P:25 SP:FB PPU: 16,223
F5FE  EA        NOP                             A:05 X:02 Y:07 P:25 SP:FB PPU: 22,223
F5FF  EA        NOP                             A:05 X:02 Y:07 P:25 SP:FB PPU: 28,223
F600  EA        NOP                             A:05 X:02 Y:07 P:25 SP:FB PPU: 34,223
F601  20 EF FA  JSR                             A:05 X:02 Y:07 P:25 SP:FB PPU: 40,223
FAEF  70 2A     BVS                             A:05 X:02 Y:07 P:25 SP:F9 PPU: 58,223
FAF1  90 28     BCC                             A:05 X:02 Y:07 P:25 SP:F9 PPU: 64,223
FAF3  30 26     BMI                             A:05 X:02 Y:07 P:25 SP:F9 PPU: 70,223
FAF5  C9 05     CMP                             A:05 X:02 Y:07 P:25 SP:F9 PPU: 76,223
FAF7  D0 22     BNE                             A:05 X:02 Y:07 P:27 SP:F9 PPU: 82,223
FAF9  60        RTS                             A:05 X:02 Y:07 P:27 SP:F9 PPU: 88,223
F604  AD 47 06  LDA                             A:05 X:02 Y:07 P:27 SP:FB PPU:106,223
F607  C9 52     CMP                             A:52 X:02 Y:07 P:25 SP:FB PPU:118,223
F609  F0 02     BEQ                             A:52 X:02 Y:07 P:27 SP:FB PPU:124,223
F60D  C8        INY                             A:52 X:02 Y:07 P:27 SP:FB PPU:133,223
F60E  A9 29     LDA                             A:52 X:02 Y:08 P:25 SP:FB PPU:139,223
F610  8D 47 06  STA                             A:29 X:02 Y:08 P:25 SP:FB PPU:145,223
F613  20 FA FA  JSR                             A:29 X:02 Y:08 P:25 SP:FB PPU:157,223
FAFA  B8        CLV                             A:29 X:02 Y:08 P:25 SP:F9 PPU:175,223
FAFB  18        CLC                             A:29 X:02 Y:08 P:25 SP:F9 PPU:181,223
FAFC  A9 42     LDA                             A:29 X:02 Y:08 P:24 SP:F9 PPU:187,223
FAFE  60        RTS                             A:42 X:02 Y:08 P:24 SP:F9 PPU:193,223
F616  6F 47 06  RRA                             A:42 X:02 Y:08 P:24 SP:FB PPU:211,223
F619  EA        NOP                             A:57 X:02 Y:08 P:24 SP:FB PPU:229,223
F61A  EA        NOP                             A:57 X:02 Y:08 P:24 SP:FB PPU:235,223
F61B  EA        NOP                             A:57 X:02 Y:08 P:24 SP:FB PPU:241,223
F61C  EA        NOP                             A:57 X:02 Y:08 P:24 SP:FB PPU:247,223
F61D  20 FF FA  JSR                             A:57 X:02 Y:08 P:24 SP:FB PPU:253,223
FAFF  70 1A     BVS                             A:57 X:02 Y:08 P:24 SP:F9 PPU:271,223
FB01  30 18     BMI                             A:57 X:02 Y:08 P:24 SP:F9 PPU:277,223
FB03  B0 16     BCS                             A:57 X:02 Y:08 P:24 SP:F9 PPU:283,223
FB05  C9 57     CMP                             A:57 X:02 Y:08 P:24 SP:F9 PPU:289,223
FB07  D0 12     BNE                             A:57 X:02 Y:08 P:27 SP:F9 PPU:295,223
FB09  60        RTS                             A:57 X:02 Y:08 P:27 SP:F9 PPU:301,223
F620  AD 47 06  LDA                             A:57 X:02 Y:08 P:27 SP:FB PPU:319,223
F623  C9 14     CMP                             A:14 X:02 Y:08 P:25 SP:FB PPU:331,223
F625  F0 02     BEQ                             A:14 X:02 Y:08 P:27 SP:FB PPU:337,223
F629  C8        INY                             A:14 X:02 Y:08 P:27 SP:FB PPU:  5,224
F62A  A9 37     LDA                             A:14 X:02 Y:09 P:25 SP:FB PPU: 11,224
F62C  8D 47 06  STA                             A:37 X:02 Y:09 P:25 SP:FB PPU: 17,224
F62F  20 0A FB  JSR                             A:37 X:02 Y:09 P:25 SP:FB PPU: 29,224
FB0A  24 01     BIT                             A:37 X:02 Y:09 P:25 SP:F9 PPU: 47,224
FB0C  38        SEC                             A:37 X:02 Y:09 P:E5 SP:F9 PPU: 56,224
FB0D  A9 75     LDA                             A:37 X:02 Y:09 P:E5 SP:F9 PPU: 62,224
FB0F  60        RTS                             A:75 X:02 Y:09 P:65 SP:F9 PPU: 68,224
F632  6F 47 06  RRA                             A:75 X:02 Y:09 P:65 SP:FB PPU: 86,224
F635  EA        NOP                             A:11 X:02 Y:09 P:25 SP:FB PPU:104,224
F636  EA        NOP                             A:11 X:02 Y:09 P:25 SP:FB PPU:110,224
F637  EA        NOP                             A:11 X:02 Y:09 P:25 SP:FB PPU:116,224
F638  EA        NOP                             A:11 X:02 Y:09 P:25 SP:FB PPU:122,224
F639  20 10 FB  JSR                             A:11 X:02 Y:09 P:25 SP:FB PPU:128,224
FB10  70 09     BVS                             A:11 X:02 Y:09 P:25 SP:F9 PPU:146,224
FB12  30 07     BMI                             A:11 X:02 Y:09 P:25 SP:F9 PPU:152,224
FB14  90 05     BCC                             A:11 X:02 Y:09 P:25 SP:F9 PPU:158,224
FB16  C9 11     CMP                             A:11 X:02 Y:09 P:25 SP:F9 PPU:164,224
FB18  D0 01     BNE                             A:11 X:02 Y:09 P:27 SP:F9 PPU:170,224
FB1A  60        RTS                             A:11 X:02 Y:09 P:27 SP:F9 PPU:176,224
F63C  AD 47 06  LDA                             A:11 X:02 Y:09 P:27 SP:FB PPU:194,224
F63F  C9 9B     CMP                             A:9B X:02 Y:09 P:A5 SP:FB PPU:206,224
F641  F0 02     BEQ                             A:9B X:02 Y:09 P:27 SP:FB PPU:212,224
F645  A9 A5     LDA                             A:9B X:02 Y:09 P:27 SP:FB PPU:221,224
F647  8D 47 06  STA                             A:A5 X:02 Y:09 P:A5 SP:FB PPU:227,224
F64A  A9 48     LDA                             A:A5 X:02 Y:09 P:A5 SP:FB PPU:239,224
F64C  85 45     STA                             A:48 X:02 Y:09 P:25 SP:FB PPU:245,224
F64E  A9 05     LDA                             A:48 X:02 Y:09 P:25 SP:FB PPU:254,224
F650  85 46     STA                             A:05 X:02 Y:09 P:25 SP:FB PPU:260,224
F652  A0 FF     LDY                             A:05 X:02 Y:09 P:25 SP:FB PPU:269,224
F654  20 E9 FA  JSR                             A:05 X:02 Y:FF P:A5 SP:FB PPU:275,224
FAE9  24 01     BIT                             A:05 X:02 Y:FF P:A5 SP:F9 PPU:293,224
FAEB  18        CLC                             A:05 X:02 Y:FF P:E5 SP:F9 PPU:302,224
FAEC  A9 B2     LDA                             A:05 X:02 Y:FF P:E4 SP:F9 PPU:308,224
FAEE  60        RTS                             A:B2 X:02 Y:FF P:E4 SP:F9 PPU:314,224
F657  73 45     RRA                             A:B2 X:02 Y:FF P:E4 SP:FB PPU:332,224
F659  EA        NOP                             A:05 X:02 Y:FF P:25 SP:FB PPU: 15,225
F65A  EA        NOP                             A:05 X:02 Y:FF P:25 SP:FB PPU: 21,225
F65B  08        PHP                             A:05 X:02 Y:FF P:25 SP:FB PPU: 27,225
F65C  48        PHA                             A:05 X:02 Y:FF P:25 SP:FA PPU: 36,225
F65D  A0 0A     LDY                             A:05 X:02 Y:FF P:25 SP:F9 PPU: 45,225
F65F  68        PLA                             A:05 X:02 Y:0A P:25 SP:F9 PPU: 51,225
F660  28        PLP                             A:05 X:02 Y:0A P:25 SP:FA PPU: 63,225
F661  20 EF FA  JSR                             A:05 X:02 Y:0A P:25 SP:FB PPU: 75,225
FAEF  70 2A     BVS                             A:05 X:02 Y:0A P:25 SP:F9 PPU: 93,225
FAF1  90 28     BCC                             A:05 X:02 Y:0A P:25 SP:F9 PPU: 99,225
FAF3  30 26     BMI                             A:05 X:02 Y:0A P:25 SP:F9 PPU:105,225
FAF5  C9 05     CMP                             A:05 X:02 Y:0A P:25 SP:F9 PPU:111,225
FAF7  D0 22     BNE                             A:05 X:02 Y:0A P:27 SP:F9 PPU:117,225
FAF9  60        RTS                             A:05 X:02 Y:0A P:27 SP:F9 PPU:123,225
F664  AD 47 06  LDA                             A:05 X:02 Y:0A P:27 SP:FB PPU:141,225
F667  C9 52     CMP                             A:52 X:02 Y:0A P:25 SP:FB PPU:153,225
F669  F0 02     BEQ                             A:52 X:02 Y:0A P:27 SP:FB PPU:159,225
F66D  A0 FF     LDY                             A:52 X:02 Y:0A P:27 SP:FB PPU:168,225
F66F  A9 29     LDA                             A:52 X:02 Y:FF P:A5 SP:FB PPU:174,225
F671  8D 47 06  STA                             A:29 X:02 Y:FF P:25 SP:FB PPU:180,225
F674  20 FA FA  JSR                             A:29 X:02 Y:FF P:25 SP:FB PPU:192,225
FAFA  B8        CLV                             A:29 X:02 Y:FF P:25 SP:F9 PPU:210,225
FAFB  18        CLC                             A:29 X:02 Y:FF P:25 SP:F9 PPU:216,225
FAFC  A9 42     LDA                             A:29 X:02 Y:FF P:24 SP:F9 PPU:222,225
FAFE  60        RTS                             A:42 X:02 Y:FF P:24 SP:F9 PPU:228,225
F677  73 45     RRA                             A:42 X:02 Y:FF P:24 SP:FB PPU:246,225
F679  EA        NOP                             A:57 X:02 Y:FF P:24 SP:FB PPU:270,225
F67A  EA        NOP                             A:57 X:02 Y:FF P:24 SP:FB PPU:276,225
F67B  08        PHP                             A:57 X:02 Y:FF P:24 SP:FB PPU:282,225
F67C  48        PHA                             A:57 X:02 Y:FF P:24 SP:FA PPU:291,225
F67D  A0 0B     LDY                             A:57 X:02 Y:FF P:24 SP:F9 PPU:300,225
F67F  68        PLA                             A:57 X:02 Y:0B P:24 SP:F9 PPU:306,225
F680  28        PLP                             A:57 X:02 Y:0B P:24 SP:FA PPU:318,225
F681  20 FF FA  JSR                             A:57 X:02 Y:0B P:24 SP:FB PPU:330,225
FAFF  70 1A     BVS                             A:57 X:02 Y:0B P:24 SP:F9 PPU:  7,226
FB01  30 18     BMI                             A:57 X:02 Y:0B P:24 SP:F9 PPU: 13,226
FB03  B0 16     BCS                             A:57 X:02 Y:0B P:24 SP:F9 PPU: 19,226
FB05  C9 57     CMP                             A:57 X:02 Y:0B P:24 SP:F9 PPU: 25,226
FB07  D0 12     BNE                             A:57 X:02 Y:0B P:27 SP:F9 PPU: 31,226
FB09  60        RTS                             A:57 X:02 Y:0B P:27 SP:F9 PPU: 37,226
F684  AD 47 06  LDA                             A:57 X:02 Y:0B P:27 SP:FB PPU: 55,226
F687  C9 14     CMP                             A:14 X:02 Y:0B P:25 SP:FB PPU: 67,226
F689  F0 02     BEQ                             A:14 X:02 Y:0B P:27 SP:FB PPU: 73,226
F68D  A0 FF     LDY                             A:14 X:02 Y:0B P:27 SP:FB PPU: 82,226
F68F  A9 37     LDA                             A:14 X:02 Y:FF P:A5 SP:FB PPU: 88,226
F691  8D 47 06  STA                             A:37 X:02 Y:FF P:25 SP:FB PPU: 94,226
F694  20 0A FB  JSR                             A:37 X:02 Y:FF P:25 SP:FB PPU:106,226
FB0A  24 01     BIT                             A:37 X:02 Y:FF P:25 SP:F9 PPU:124,226
FB0C  38        SEC                             A:37 X:02 Y:FF P:E5 SP:F9 PPU:133,226
FB0D  A9 75     LDA                             A:37 X:02 Y:FF P:E5 SP:F9 PPU:139,226
FB0F  60        RTS                             A:75 X:02 Y:FF P:65 SP:F9 PPU:145,226
F697  73 45     RRA                             A:75 X:02 Y:FF P:65 SP:FB PPU:163,226
F699  EA        NOP                             A:11 X:02 Y:FF P:25 SP:FB PPU:187,226
F69A  EA        NOP                             A:11 X:02 Y:FF P:25 SP:FB PPU:193,226
F69B  08        PHP                             A:11 X:02 Y:FF P:25 SP:FB PPU:199,226
F69C  48        PHA                             A:11 X:02 Y:FF P:25 SP:FA PPU:208,226
F69D  A0 0C     LDY                             A:11 X:02 Y:FF P:25 SP:F9 PPU:217,226
F69F  68        PLA                             A:11 X:02 Y:0C P:25 SP:F9 PPU:223,226
F6A0  28        PLP                             A:11 X:02 Y:0C P:25 SP:FA PPU:235,226
F6A1  20 10 FB  JSR                             A:11 X:02 Y:0C P:25 SP:FB PPU:247,226
FB10  70 09     BVS                             A:11 X:02 Y:0C P:25 SP:F9 PPU:265,226
FB12  30 07     BMI                             A:11 X:02 Y:0C P:25 SP:F9 PPU:271,226
FB14  90 05     BCC                             A:11 X:02 Y:0C P:25 SP:F9 PPU:277,226
FB16  C9 11     CMP                             A:11 X:02 Y:0C P:25 SP:F9 PPU:283,226
FB18  D0 01     BNE                             A:11 X:02 Y:0C P:27 SP:F9 PPU:289,226
FB1A  60        RTS                             A:11 X:02 Y:0C P:27 SP:F9 PPU:295,226
F6A4  AD 47 06  LDA                             A:11 X:02 Y:0C P:27 SP:FB PPU:313,226
F6A7  C9 9B     CMP                             A:9B X:02 Y:0C P:A5 SP:FB PPU:325,226
F6A9  F0 02     BEQ                             A:9B X:02 Y:0C P:27 SP:FB PPU:331,226
F6AD  A0 0D     LDY                             A:9B X:02 Y:0C P:27 SP:FB PPU:340,226
F6AF  A2 FF     LDX                             A:9B X:02 Y:0D P:25 SP:FB PPU:  5,227
F6B1  A9 A5     LDA                             A:9B X:FF Y:0D P:A5 SP:FB PPU: 11,227
F6B3  85 47     STA                             A:A5 X:FF Y:0D P:A5 SP:FB PPU: 17,227
F6B5  20 E9 FA  JSR                             A:A5 X:FF Y:0D P:A5 SP:FB PPU: 26,227
FAE9  24 01     BIT                             A:A5 X:FF Y:0D P:A5 SP:F9 PPU: 44,227
FAEB  18        CLC                             A:A5 X:FF Y:0D P:E5 SP:F9 PPU: 53,227
FAEC  A9 B2     LDA                             A:A5 X:FF Y:0D P:E4 SP:F9 PPU: 59,227
FAEE  60        RTS                             A:B2 X:FF Y:0D P:E4 SP:F9 PPU: 65,227
F6B8  77 48     RRA                             A:B2 X:FF Y:0D P:E4 SP:FB PPU: 83,227
F6BA  EA        NOP                             A:05 X:FF Y:0D P:25 SP:FB PPU:101,227
F6BB  EA        NOP                             A:05 X:FF Y:0D P:25 SP:FB PPU:107,227
F6BC  EA        NOP                             A:05 X:FF Y:0D P:25 SP:FB PPU:113,227
F6BD  EA        NOP                             A:05 X:FF Y:0D P:25 SP:FB PPU:119,227
F6BE  20 EF FA  JSR                             A:05 X:FF Y:0D P:25 SP:FB PPU:125,227
FAEF  70 2A     BVS                             A:05 X:FF Y:0D P:25 SP:F9 PPU:143,227
FAF1  90 28     BCC                             A:05 X:FF Y:0D P:25 SP:F9 PPU:149,227
FAF3  30 26     BMI                             A:05 X:FF Y:0D P:25 SP:F9 PPU:155,227
FAF5  C9 05     CMP                             A:05 X:FF Y:0D P:25 SP:F9 PPU:161,227
FAF7  D0 22     BNE                             A:05 X:FF Y:0D P:27 SP:F9 PPU:167,227
FAF9  60        RTS                             A:05 X:FF Y:0D P:27 SP:F9 PPU:173,227
F6C1  A5 47     LDA                             A:05 X:FF Y:0D P:27 SP:FB PPU:191,227
F6C3  C9 52     CMP                             A:52 X:FF Y:0D P:25 SP:FB PPU:200,227
F6C5  F0 02     BEQ                             A:52 X:FF Y:0D P:27 SP:FB PPU:206,227
F6C9  C8        INY                             A:52 X:FF Y:0D P:27 SP:FB PPU:215,227
F6CA  A9 29     LDA                             A:52 X:FF Y:0E P:25 SP:FB PPU:221,227
F6CC  85 47     STA                             A:29 X:FF Y:0E P:25 SP:FB PPU:227,227
F6CE  20 FA FA  JSR                             A:29 X:FF Y:0E P:25 SP:FB PPU:236,227
FAFA  B8        CLV                             A:29 X:FF Y:0E P:25 SP:F9 PPU:254,227
FAFB  18        CLC                             A:29 X:FF Y:0E P:25 SP:F9 PPU:260,227
FAFC  A9 42     LDA                             A:29 X:FF Y:0E P:24 SP:F9 PPU:266,227
FAFE  60        RTS                             A:42 X:FF Y:0E P:24 SP:F9 PPU:272,227
F6D1  77 48     RRA                             A:42 X:FF Y:0E P:24 SP:FB PPU:290,227
F6D3  EA        NOP                             A:57 X:FF Y:0E P:24 SP:FB PPU:308,227
F6D4  EA        NOP                             A:57 X:FF Y:0E P:24 SP:FB PPU:314,227
F6D5  EA        NOP                             A:57 X:FF Y:0E P:24 SP:FB PPU:320,227
F6D6  EA        NOP                             A:57 X:FF Y:0E P:24 SP:FB PPU:326,227
F6D7  20 FF FA  JSR                             A:57 X:FF Y:0E P:24 SP:FB PPU:332,227
FAFF  70 1A     BVS                             A:57 X:FF Y:0E P:24 SP:F9 PPU:  9,228
FB01  30 18     BMI                             A:57 X:FF Y:0E P:24 SP:F9 PPU: 15,228
FB03  B0 16     BCS                             A:57 X:FF Y:0E P:24 SP:F9 PPU: 21,228
FB05  C9 57     CMP                             A:57 X:FF Y:0E P:24 SP:F9 PPU: 27,228
FB07  D0 12     BNE                             A:57 X:FF Y:0E P:27 SP:F9 PPU: 33,228
FB09  60        RTS                             A:57 X:FF Y:0E P:27 SP:F9 PPU: 39,228
F6DA  A5 47     LDA                             A:57 X:FF Y:0E P:27 SP:FB PPU: 57,228
F6DC  C9 14     CMP                             A:14 X:FF Y:0E P:25 SP:FB PPU: 66,228
F6DE  F0 02     BEQ                             A:14 X:FF Y:0E P:27 SP:FB PPU: 72,228
F6E2  C8        INY                             A:14 X:FF Y:0E P:27 SP:FB PPU: 81,228
F6E3  A9 37     LDA                             A:14 X:FF Y:0F P:25 SP:FB PPU: 87,228
F6E5  85 47     STA                             A:37 X:FF Y:0F P:25 SP:FB PPU: 93,228
F6E7  20 0A FB  JSR                             A:37 X:FF Y:0F P:25 SP:FB PPU:102,228
FB0A  24 01     BIT                             A:37 X:FF Y:0F P:25 SP:F9 PPU:120,228
FB0C  38        SEC                             A:37 X:FF Y:0F P:E5 SP:F9 PPU:129,228
FB0D  A9 75     LDA                             A:37 X:FF Y:0F P:E5 SP:F9 PPU:135,228
FB0F  60        RTS                             A:75 X:FF Y:0F P:65 SP:F9 PPU:141,228
F6EA  77 48     RRA                             A:75 X:FF Y:0F P:65 SP:FB PPU:159,228
F6EC  EA        NOP                             A:11 X:FF Y:0F P:25 SP:FB PPU:177,228
F6ED  EA        NOP                             A:11 X:FF Y:0F P:25 SP:FB PPU:183,228
F6EE  EA        NOP                             A:11 X:FF Y:0F P:25 SP:FB PPU:189,228
F6EF  EA        NOP                             A:11 X:FF Y:0F P:25 SP:FB PPU:195,228
F6F0  20 10 FB  JSR                             A:11 X:FF Y:0F P:25 SP:FB PPU:201,228
FB10  70 09     BVS                             A:11 X:FF Y:0F P:25 SP:F9 PPU:219,228
FB12  30 07     BMI                             A:11 X:FF Y:0F P:25 SP:F9 PPU:225,228
FB14  90 05     BCC                             A:11 X:FF Y:0F P:25 SP:F9 PPU:231,228
FB16  C9 11     CMP                             A:11 X:FF Y:0F P:25 SP:F9 PPU:237,228
FB18  D0 01     BNE                             A:11 X:FF Y:0F P:27 SP:F9 PPU:243,228
FB1A  60        RTS                             A:11 X:FF Y:0F P:27 SP:F9 PPU:249,228
F6F3  A5 47     LDA                             A:11 X:FF Y:0F P:27 SP:FB PPU:267,228
F6F5  C9 9B     CMP                             A:9B X:FF Y:0F P:A5 SP:FB PPU:276,228
F6F7  F0 02     BEQ                             A:9B X:FF Y:0F P:27 SP:FB PPU:282,228
F6FB  A9 A5     LDA                             A:9B X:FF Y:0F P:27 SP:FB PPU:291,228
F6FD  8D 47 06  STA                             A:A5 X:FF Y:0F P:A5 SP:FB PPU:297,228
F700  A0 FF     LDY                             A:A5 X:FF Y:0F P:A5 SP:FB PPU:309,228
F702  20 E9 FA  JSR                             A:A5 X:FF Y:FF P:A5 SP:FB PPU:315,228
FAE9  24 01     BIT                             A:A5 X:FF Y:FF P:A5 SP:F9 PPU:333,228
FAEB  18        CLC                             A:A5 X:FF Y:FF P:E5 SP:F9 PPU:  1,229
FAEC  A9 B2     LDA                             A:A5 X:FF Y:FF P:E4 SP:F9 PPU:  7,229
FAEE  60        RTS                             A:B2 X:FF Y:FF P:E4 SP:F9 PPU: 13,229
F705  7B 48 05  RRA                             A:B2 X:FF Y:FF P:E4 SP:FB PPU: 31,229
F708  EA        NOP                             A:05 X:FF Y:FF P:25 SP:FB PPU: 52,229
F709  EA        NOP                             A:05 X:FF Y:FF P:25 SP:FB PPU: 58,229
F70A  08        PHP                             A:05 X:FF Y:FF P:25 SP:FB PPU: 64,229
F70B  48        PHA                             A:05 X:FF Y:FF P:25 SP:FA PPU: 73,229
F70C  A0 10     LDY                             A:05 X:FF Y:FF P:25 SP:F9 PPU: 82,229
F70E  68        PLA                             A:05 X:FF Y:10 P:25 SP:F9 PPU: 88,229
F70F  28        PLP                             A:05 X:FF Y:10 P:25 SP:FA PPU:100,229
F710  20 EF FA  JSR                             A:05 X:FF Y:10 P:25 SP:FB PPU:112,229
FAEF  70 2A     BVS                             A:05 X:FF Y:10 P:25 SP:F9 PPU:130,229
FAF1  90 28     BCC                             A:05 X:FF Y:10 P:25 SP:F9 PPU:136,229
FAF3  30 26     BMI                             A:05 X:FF Y:10 P:25 SP:F9 PPU:142,229
FAF5  C9 05     CMP                             A:05 X:FF Y:10 P:25 SP:F9 PPU:148,229
FAF7  D0 22     BNE                             A:05 X:FF Y:10 P:27 SP:F9 PPU:154,229
FAF9  60        RTS                             A:05 X:FF Y:10 P:27 SP:F9 PPU:160,229
F713  AD 47 06  LDA                             A:05 X:FF Y:10 P:27 SP:FB PPU:178,229
F716  C9 52     CMP                             A:52 X:FF Y:10 P:25 SP:FB PPU:190,229
F718  F0 02     BEQ                             A:52 X:FF Y:10 P:27 SP:FB PPU:196,229
F71C  A0 FF     LDY                             A:52 X:FF Y:10 P:27 SP:FB PPU:205,229
F71E  A9 29     LDA                             A:52 X:FF Y:FF P:A5 SP:FB PPU:211,229
F720  8D 47 06  STA                             A:29 X:FF Y:FF P:25 SP:FB PPU:217,229
F723  20 FA FA  JSR                             A:29 X:FF Y:FF P:25 SP:FB PPU:229,229
FAFA  B8        CLV                             A:29 X:FF Y:FF P:25 SP:F9 PPU:247,229
FAFB  18        CLC                             A:29 X:FF Y:FF P:25 SP:F9 PPU:253,229
FAFC  A9 42     LDA                             A:29 X:FF Y:FF P:24 SP:F9 PPU:259,229
FAFE  60        RTS                             A:42 X:FF Y:FF P:24 SP:F9 PPU:265,229
F726  7B 48 05  RRA                             A:42 X:FF Y:FF P:24 SP:FB PPU:283,229
F729  EA        NOP                             A:57 X:FF Y:FF P:24 SP:FB PPU:304,229
F72A  EA        NOP                             A:57 X:FF Y:FF P:24 SP:FB PPU:310,229
F72B  08        PHP                             A:57 X:FF Y:FF P:24 SP:FB PPU:316,229
F72C  48        PHA                             A:57 X:FF Y:FF P:24 SP:FA PPU:325,229
F72D  A0 11     LDY                             A:57 X:FF Y:FF P:24 SP:F9 PPU:334,229
F72F  68        PLA                             A:57 X:FF Y:11 P:24 SP:F9 PPU:340,229
F730  28        PLP                             A:57 X:FF Y:11 P:24 SP:FA PPU: 11,230
F731  20 FF FA  JSR                             A:57 X:FF Y:11 P:24 SP:FB PPU: 23,230
FAFF  70 1A     BVS                             A:57 X:FF Y:11 P:24 SP:F9 PPU: 41,230
FB01  30 18     BMI                             A:57 X:FF Y:11 P:24 SP:F9 PPU: 47,230
FB03  B0 16     BCS                             A:57 X:FF Y:11 P:24 SP:F9 PPU: 53,230
FB05  C9 57     CMP                             A:57 X:FF Y:11 P:24 SP:F9 PPU: 59,230
FB07  D0 12     BNE                             A:57 X:FF Y:11 P:27 SP:F9 PPU: 65,230
FB09  60        RTS                             A:57 X:FF Y:11 P:27 SP:F9 PPU: 71,230
F734  AD 47 06  LDA                             A:57 X:FF Y:11 P:27 SP:FB PPU: 89,230
F737  C9 14     CMP                             A:14 X:FF Y:11 P:25 SP:FB PPU:101,230
F739  F0 02     BEQ                             A:14 X:FF Y:11 P:27 SP:FB PPU:107,230
F73D  A0 FF     LDY                             A:14 X:FF Y:11 P:27 SP:FB PPU:116,230
F73F  A9 37     LDA                             A:14 X:FF Y:FF P:A5 SP:FB PPU:122,230
F741  8D 47 06  STA                             A:37 X:FF Y:FF P:25 SP:FB PPU:128,230
F744  20 0A FB  JSR                             A:37 X:FF Y:FF P:25 SP:FB PPU:140,230
FB0A  24 01     BIT                             A:37 X:FF Y:FF P:25 SP:F9 PPU:158,230
FB0C  38        SEC                             A:37 X:FF Y:FF P:E5 SP:F9 PPU:167,230
FB0D  A9 75     LDA                             A:37 X:FF Y:FF P:E5 SP:F9 PPU:173,230
FB0F  60        RTS                             A:75 X:FF Y:FF P:65 SP:F9 PPU:179,230
F747  7B 48 05  RRA                             A:75 X:FF Y:FF P:65 SP:FB PPU:197,230
F74A  EA        NOP                             A:11 X:FF Y:FF P:25 SP:FB PPU:218,230
F74B  EA        NOP                             A:11 X:FF Y:FF P:25 SP:FB PPU:224,230
F74C  08        PHP                             A:11 X:FF Y:FF P:25 SP:FB PPU:230,230
F74D  48        PHA                             A:11 X:FF Y:FF P:25 SP:FA PPU:239,230
F74E  A0 12     LDY                             A:11 X:FF Y:FF P:25 SP:F9 PPU:248,230
F750  68        PLA                             A:11 X:FF Y:12 P:25 SP:F9 PPU:254,230
F751  28        PLP                             A:11 X:FF Y:12 P:25 SP:FA PPU:266,230
F752  20 10 FB  JSR                             A:11 X:FF Y:12 P:25 SP:FB PPU:278,230
FB10  70 09     BVS                             A:11 X:FF Y:12 P:25 SP:F9 PPU:296,230
FB12  30 07     BMI                             A:11 X:FF Y:12 P:25 SP:F9 PPU:302,230
FB14  90 05     BCC                             A:11 X:FF Y:12 P:25 SP:F9 PPU:308,230
FB16  C9 11     CMP                             A:11 X:FF Y:12 P:25 SP:F9 PPU:314,230
FB18  D0 01     BNE                             A:11 X:FF Y:12 P:27 SP:F9 PPU:320,230
FB1A  60        RTS                             A:11 X:FF Y:12 P:27 SP:F9 PPU:326,230
F755  AD 47 06  LDA                             A:11 X:FF Y:12 P:27 SP:FB PPU:  3,231
F758  C9 9B     CMP                             A:9B X:FF Y:12 P:A5 SP:FB PPU: 15,231
F75A  F0 02     BEQ                             A:9B X:FF Y:12 P:27 SP:FB PPU: 21,231
F75E  A0 13     LDY                             A:9B X:FF Y:12 P:27 SP:FB PPU: 30,231
F760  A2 FF     LDX                             A:9B X:FF Y:13 P:25 SP:FB PPU: 36,231
F762  A9 A5     LDA                             A:9B X:FF Y:13 P:A5 SP:FB PPU: 42,231
F764  8D 47 06  STA                             A:A5 X:FF Y:13 P:A5 SP:FB PPU: 48,231
F767  20 E9 FA  JSR                             A:A5 X:FF Y:13 P:A5 SP:FB PPU: 60,231
FAE9  24 01     BIT                             A:A5 X:FF Y:13 P:A5 SP:F9 PPU: 78,231
FAEB  18        CLC                             A:A5 X:FF Y:13 P:E5 SP:F9 PPU: 87,231
FAEC  A9 B2     LDA                             A:A5 X:FF Y:13 P:E4 SP:F9 PPU: 93,231
FAEE  60        RTS                             A:B2 X:FF Y:13 P:E4 SP:F9 PPU: 99,231
F76A  7F 48 05  RRA                             A:B2 X:FF Y:13 P:E4 SP:FB PPU:117,231
F76D  EA        NOP                             A:05 X:FF Y:13 P:25 SP:FB PPU:138,231
F76E  EA        NOP                             A:05 X:FF Y:13 P:25 SP:FB PPU:144,231
F76F  EA        NOP                             A:05 X:FF Y:13 P:25 SP:FB PPU:150,231
F770  EA        NOP                             A:05 X:FF Y:13 P:25 SP:FB PPU:156,231
F771  20 EF FA  JSR                             A:05 X:FF Y:13 P:25 SP:FB PPU:162,231
FAEF  70 2A     BVS                             A:05 X:FF Y:13 P:25 SP:F9 PPU:180,231
FAF1  90 28     BCC                             A:05 X:FF Y:13 P:25 SP:F9 PPU:186,231
FAF3  30 26     BMI                             A:05 X:FF Y:13 P:25 SP:F9 PPU:192,231
FAF5  C9 05     CMP                             A:05 X:FF Y:13 P:25 SP:F9 PPU:198,231
FAF7  D0 22     BNE                             A:05 X:FF Y:13 P:27 SP:F9 PPU:204,231
FAF9  60        RTS                             A:05 X:FF Y:13 P:27 SP:F9 PPU:210,231
F774  AD 47 06  LDA                             A:05 X:FF Y:13 P:27 SP:FB PPU:228,231
F777  C9 52     CMP                             A:52 X:FF Y:13 P:25 SP:FB PPU:240,231
F779  F0 02     BEQ                             A:52 X:FF Y:13 P:27 SP:FB PPU:246,231
F77D  C8        INY                             A:52 X:FF Y:13 P:27 SP:FB PPU:255,231
F77E  A9 29     LDA                             A:52 X:FF Y:14 P:25 SP:FB PPU:261,231
F780  8D 47 06  STA                             A:29 X:FF Y:14 P:25 SP:FB PPU:267,231
F783  20 FA FA  JSR                             A:29 X:FF Y:14 P:25 SP:FB PPU:279,231
FAFA  B8        CLV                             A:29 X:FF Y:14 P:25 SP:F9 PPU:297,231
FAFB  18        CLC                             A:29 X:FF Y:14 P:25 SP:F9 PPU:303,231
FAFC  A9 42     LDA                             A:29 X:FF Y:14 P:24 SP:F9 PPU:309,231
FAFE  60        RTS                             A:42 X:FF Y:14 P:24 SP:F9 PPU:315,231
F786  7F 48 05  RRA                             A:42 X:FF Y:14 P:24 SP:FB PPU:333,231
F789  EA        NOP                             A:57 X:FF Y:14 P:24 SP:FB PPU: 13,232
F78A  EA        NOP                             A:57 X:FF Y:14 P:24 SP:FB PPU: 19,232
F78B  EA        NOP                             A:57 X:FF Y:14 P:24 SP:FB PPU: 25,232
F78C  EA        NOP                             A:57 X:FF Y:14 P:24 SP:FB PPU: 31,232
F78D  20 FF FA  JSR                             A:57 X:FF Y:14 P:24 SP:FB PPU: 37,232
FAFF  70 1A     BVS                             A:57 X:FF Y:14 P:24 SP:F9 PPU: 55,232
FB01  30 18     BMI                             A:57 X:FF Y:14 P:24 SP:F9 PPU: 61,232
FB03  B0 16     BCS                             A:57 X:FF Y:14 P:24 SP:F9 PPU: 67,232
FB05  C9 57     CMP                             A:57 X:FF Y:14 P:24 SP:F9 PPU: 73,232
FB07  D0 12     BNE                             A:57 X:FF Y:14 P:27 SP:F9 PPU: 79,232
FB09  60        RTS                             A:57 X:FF Y:14 P:27 SP:F9 PPU: 85,232
F790  AD 47 06  LDA                             A:57 X:FF Y:14 P:27 SP:FB PPU:103,232
F793  C9 14     CMP                             A:14 X:FF Y:14 P:25 SP:FB PPU:115,232
F795  F0 02     BEQ                             A:14 X:FF Y:14 P:27 SP:FB PPU:121,232
F799  C8        INY                             A:14 X:FF Y:14 P:27 SP:FB PPU:130,232
F79A  A9 37     LDA                             A:14 X:FF Y:15 P:25 SP:FB PPU:136,232
F79C  8D 47 06  STA                             A:37 X:FF Y:15 P:25 SP:FB PPU:142,232
F79F  20 0A FB  JSR                             A:37 X:FF Y:15 P:25 SP:FB PPU:154,232
FB0A  24 01     BIT                             A:37 X:FF Y:15 P:25 SP:F9 PPU:172,232
FB0C  38        SEC                             A:37 X:FF Y:15 P:E5 SP:F9 PPU:181,232
FB0D  A9 75     LDA                             A:37 X:FF Y:15 P:E5 SP:F9 PPU:187,232
FB0F  60        RTS                             A:75 X:FF Y:15 P:65 SP:F9 PPU:193,232
F7A2  7F 48 05  RRA                             A:75 X:FF Y:15 P:65 SP:FB PPU:211,232
F7A5  EA        NOP                             A:11 X:FF Y:15 P:25 SP:FB PPU:232,232
F7A6  EA        NOP                             A:11 X:FF Y:15 P:25 SP:FB PPU:238,232
F7A7  EA        NOP                             A:11 X:FF Y:15 P:25 SP:FB PPU:244,232
F7A8  EA        NOP                             A:11 X:FF Y:15 P:25 SP:FB PPU:250,232
F7A9  20 10 FB  JSR                             A:11 X:FF Y:15 P:25 SP:FB PPU:256,232
FB10  70 09     BVS                             A:11 X:FF Y:15 P:25 SP:F9 PPU:274,232
FB12  30 07     BMI                             A:11 X:FF Y:15 P:25 SP:F9 PPU:280,232
FB14  90 05     BCC                             A:11 X:FF Y:15 P:25 SP:F9 PPU:286,232
FB16  C9 11     CMP                             A:11 X:FF Y:15 P:25 SP:F9 PPU:292,232
FB18  D0 01     BNE                             A:11 X:FF Y:15 P:27 SP:F9 PPU:298,232
FB1A  60        RTS                             A:11 X:FF Y:15 P:27 SP:F9 PPU:304,232
F7AC  AD 47 06  LDA                             A:11 X:FF Y:15 P:27 SP:FB PPU:322,232
F7AF  C9 9B     CMP                             A:9B X:FF Y:15 P:A5 SP:FB PPU:334,232
F7B1  F0 02     BEQ                             A:9B X:FF Y:15 P:27 SP:FB PPU:340,232
F7B5  60        RTS                             A:9B X:FF Y:15 P:27 SP:FB PPU:  8,233
C655  A5 00     LDA                             A:9B X:FF Y:15 P:27 SP:FD PPU: 26,233
C657  05 10     ORA                             A:00 X:FF Y:15 P:27 SP:FD PPU: 35,233
C659  05 11     ORA                             A:00 X:FF Y:15 P:27 SP:FD PPU: 44,233
C65B  F0 0E     BEQ                             A:00 X:FF Y:15 P:27 SP:FD PPU: 53,233
C66B  20 89 C6  JSR                             A:00 X:FF Y:15 P:27 SP:FD PPU: 62,233
C689  A9 02     LDA                             A:00 X:FF Y:15 P:27 SP:FB PPU: 80,233
C68B  8D 15 40  STA                             A:02 X:FF Y:15 P:25 SP:FB PPU: 86,233
C68E  A9 3F     LDA                             A:02 X:FF Y:15 P:25 SP:FB PPU: 98,233
C690  8D 04 40  STA                             A:3F X:FF Y:15 P:25 SP:FB PPU:104,233
C693  A9 9A     LDA                             A:3F X:FF Y:15 P:25 SP:FB PPU:116,233
C695  8D 05 40  STA                             A:9A X:FF Y:15 P:A5 SP:FB PPU:122,233
C698  A9 FF     LDA                             A:9A X:FF Y:15 P:A5 SP:FB PPU:134,233
C69A  8D 06 40  STA                             A:FF X:FF Y:15 P:A5 SP:FB PPU:140,233
C69D  A9 00     LDA                             A:FF X:FF Y:15 P:A5 SP:FB PPU:152,233
C69F  8D 07 40  STA                             A:00 X:FF Y:15 P:27 SP:FB PPU:158,233
C6A2  60        RTS                             A:00 X:FF Y:15 P:27 SP:FB PPU:170,233
C66E  60        RTS                             A:00 X:FF Y:15 P:27 SP:FD PPU:188,233
0001  FF 00 00  ISB                             A:00 X:FF Y:15 P:27 SP:FF PPU:206,233
0004  00 99     BRK                             A:B9 X:FF Y:15 P:A4 SP:FF PPU:227,233
C5F4  40        RTI                             A:B9 X:FF Y:15 P:A4 SP:FC PPU:248,233
0006  00 00     BRK                             A:B9 X:FF Y:15 P:A4 SP:FF PPU:266,233
C5F4  40        RTI                             A:B9 X:FF Y:15 P:A4 SP:FC PPU:287,233
0008  00 00     BRK                             A:B9 X:FF Y:15 P:A4 SP:FF PPU:305,233
C5F4  40        RTI                             A:B9 X:FF Y:15 P:A4 SP:FC PPU:326,233
000A  00 00     BRK                             A:B9 X:FF Y:15 P:A4 SP:FF PPU:  3,234
C5F4  40        RTI                             A:B9 X:FF Y:15 P:A4 SP:FC PPU: 24,234
000C  00 00     BRK                             A:B9 X:FF Y:15 P:A4 SP:FF PPU: 42,234
C5F4  40        RTI                             A:B9 X:FF Y:15 P:A4 SP:FC PPU: 63,234
000E  00 00     BRK                             A:B9 X:FF Y:15 P:A4 SP:FF PPU: 81,234
C5F4  40        RTI                             A:B9 X:FF Y:15 P:A4 SP:FC PPU:102,234
0010  00 00     BRK                             A:B9 X:FF Y:15 P:A4 SP:FF PPU:120,234
C5F4  40        RTI                             A:B9 X:FF Y:15 P:A4 SP:FC PPU:141,234
0012  00 00     BRK                             A:B9 X:FF Y:15 P:A4 SP:FF PPU:159,234
C5F4  40        RTI                             A:B9 X:FF Y:15 P:A4 SP:FC PPU:180,234
0014  00 00     BRK                             A:B9 X:FF Y:15 P:A4 SP:FF PPU:198,234
C5F4  40        RTI                             A:B9 X:FF Y:15 P:A4 SP:FC PPU:219,234
0016  00 00     BRK                             A:B9 X:FF Y:15 P:A4 SP:FF PPU:237,234
C5F4  40        RTI                             A:B9 X:FF Y:15 P:A4 SP:FC PPU:258,234
0018  00 00     BRK                             A:B9 X:FF Y:15 P:A4 SP:FF PPU:276,234
C5F4  40        RTI                             A:B9 X:FF Y:15 P:A4 SP:FC PPU:297,234
001A  00 00     BRK                             A:B9 X:FF Y:15 P:A4 SP:FF PPU:315,234
C5F4  40        RTI                             A:B9 X:FF Y:15 P:A4 SP:FC PPU:336,234
001C  00 00     BRK                             A:B9 X:FF Y:15 P:A4 SP:FF PPU: 13,235
C5F4  40        RTI                             A:B9 X:FF Y:15 P:A4 SP:FC PPU: 34,235
001E  00 00     BRK                             A:B9 X:FF Y:15 P:A4 SP:FF PPU: 52,235
C5F4  40        RTI                             A:B9 X:FF Y:15 P:A4 SP:FC PPU: 73,235
0020  00 00     BRK                             A:B9 X:FF Y:15 P:A4 SP:FF PPU: 91,235
C5F4  40        RTI                             A:B9 X:FF Y:15 P:A4 SP:FC PPU:112,235
0022  00 00     BRK                             A:B9 X:FF Y:15 P:A4 SP:FF PPU:130,235
C5F4  40        RTI                             A:B9 X:FF Y:15 P:A4 SP:FC PPU:151,235
0024  00 00     BRK                             A:B9 X:FF Y:15 P:A4 SP:FF PPU:169,235
C5F4  40        RTI                             A:B9 X:FF Y:15 P:A4 SP:FC PPU:190,235
0026  00 00     BRK                             A:B9 X:FF Y:15 P:A4 SP:FF PPU:208,235
C5F4  40        RTI                             A:B9 X:FF Y:15 P:A4 SP:FC PPU:229,235
0028  00 00     BRK                             A:B9 X:FF Y:15 P:A4 SP:FF PPU:247,235
C5F4  40        RTI                             A:B9 X:FF Y:15 P:A4 SP:FC PPU:268,235
002A  00 00     BRK                             A:B9 X:FF Y:15 P:A4 SP:FF PPU:286,235
C5F4  40        RTI                             A:B9 X:FF Y:15 P:A4 SP:FC PPU:307,235
002C  00 00     BRK                             A:B9 X:FF Y:15 P:A4 SP:FF PPU:325,235
C5F4  40        RTI                             A:B9 X:FF Y:15 P:A4 SP:FC PPU:  5,236
002E  00 00     BRK                             A:B9 X:FF Y:15 P:A4 SP:FF PPU: 23,236
C5F4  40        RTI                             A:B9 X:FF Y:15 P:A4 SP:FC PPU: 44,236
0030  00 00     BRK                             A:B9 X:FF Y:15 P:A4 SP:FF PPU: 62,236
C5F4  40        RTI                             A:B9 X:FF Y:15 P:A4 SP:FC PPU: 83,236
0032  00 44     BRK                             A:B9 X:FF Y:15 P:A4 SP:FF PPU:101,236
C5F4  40        RTI                             A:B9 X:FF Y:15 P:A4 SP:FC PPU:122,236
0034  04 00     NOP                             A:B9 X:FF Y:15 P:A4 SP:FF PPU:140,236
0036  00 00     BRK                             A:B9 X:FF Y:15 P:A4 SP:FF PPU:149,236
C5F4  40        RTI                             A:B9 X:FF Y:15 P:A4 SP:FC PPU:170,236
0038  00 00     BRK                             A:B9 X:FF Y:15 P:A4 SP:FF PPU:188,236
C5F4  40        RTI                             A:B9 X:FF Y:15 P:A4 SP:FC PPU:209,236
003A  00 00     BRK                             A:B9 X:FF Y:15 P:A4 SP:FF PPU:227,236
C5F4  40        RTI                             A:B9 X:FF Y:15 P:A4 SP:FC PPU:248,236
003C  00 00     BRK                             A:B9 X:FF Y:15 P:A4 SP:FF PPU:266,236
C5F4  40        RTI                             A:B9 X:FF Y:15 P:A4 SP:FC PPU:287,236
003E  00 00     BRK                             A:B9 X:FF Y:15 P:A4 SP:FF PPU:305,236
C5F4  40        RTI                             A:B9 X:FF Y:15 P:A4 SP:FC PPU:326,236
0040  00 00     BRK                             A:B9 X:FF Y:15 P:A4 SP:FF PPU:  3,237
C5F4  40        RTI                             A:B9 X:FF Y:15 P:A4 SP:FC PPU: 24,237
0042  00 FF     BRK                             A:B9 X:FF Y:15 P:A4 SP:FF PPU: 42,237
C5F4  40        RTI                             A:B9 X:FF Y:15 P:A4 SP:FC PPU: 63,237
0044  04 48     NOP                             A:B9 X:FF Y:15 P:A4 SP:FF PPU: 81,237
0046  05 9B     ORA                             A:B9 X:FF Y:15 P:A4 SP:FF PPU: 90,237
0048  06 00     ASL                             A:B9 X:FF Y:15 P:A4 SP:FF PPU: 99,237
004A  00 00     BRK                             A:B9 X:FF Y:15 P:26 SP:FF PPU:114,237
C5F4  40        RTI                             A:B9 X:FF Y:15 P:26 SP:FC PPU:135,237
004C  00 00     BRK                             A:B9 X:FF Y:15 P:26 SP:FF PPU:153,237
C5F4  40        RTI                             A:B9 X:FF Y:15 P:26 SP:FC PPU:174,237
004E  00 00     BRK                             A:B9 X:FF Y:15 P:26 SP:FF PPU:192,237
C5F4  40        RTI                             A:B9 X:FF Y:15 P:26 SP:FC PPU:213,237
0050  00 00     BRK                             A:B9 X:FF Y:15 P:26 SP:FF PPU:231,237
C5F4  40        RTI                             A:B9 X:FF Y:15 P:26 SP:FC PPU:252,237
0052  00 00     BRK                             A:B9 X:FF Y:15 P:26 SP:FF PPU:270,237
C5F4  40        RTI                             A:B9 X:FF Y:15 P:26 SP:FC PPU:291,237
0054  00 00     BRK                             A:B9 X:FF Y:15 P:26 SP:FF PPU:309,237
C5F4  40        RTI                             A:B9 X:FF Y:15 P:26 SP:FC PPU:330,237
0056  66 00     ROR                             A:B9 X:FF Y:15 P:26 SP:FF PPU:  7,238
0058  00 00     BRK                             A:B9 X:FF Y:15 P:26 SP:FF PPU: 22,238
C5F4  40        RTI                             A:B9 X:FF Y:15 P:26 SP:FC PPU: 43,238
005A  00 00     BRK                             A:B9 X:FF Y:15 P:26 SP:FF PPU: 61,238
C5F4  40        RTI                             A:B9 X:FF Y:15 P:26 SP:FC PPU: 82,238
005C  00 00     BRK                             A:B9 X:FF Y:15 P:26 SP:FF PPU:100,238
C5F4  40        RTI                             A:B9 X:FF Y:15 P:26 SP:FC PPU:121,238
005E  00 00     BRK                             A:B9 X:FF Y:15 P:26 SP:FF PPU:139,238
C5F4  40        RTI                             A:B9 X:FF Y:15 P:26 SP:FC PPU:160,238
